---
triple:          'arm64-apple-darwin'
binary-path:     '/Users/joshuayu/Documents/Programming/OpenGL/2024.07.05 Advanced Lighting/main'
relocations:
  - { offsetInCU: 0x3F, offset: 0x3F, size: 0x8, addend: 0x0, symName: _flipYZMat, symObjAddr: 0x63CA8, symBinAddr: 0x1001F1898, symSize: 0x0 }
  - { offsetInCU: 0x1ECF, offset: 0x1ECF, size: 0x8, addend: 0x0, symName: __ZN3glm11perspectiveIfEENS_3matILi4ELi4ET_LNS_9qualifierE0EEES2_S2_S2_S2_, symObjAddr: 0xCBC, symBinAddr: 0x100005768, symSize: 0x3C }
  - { offsetInCU: 0x1F33, offset: 0x1F33, size: 0x8, addend: 0x0, symName: __ZN3glm7half_piIfEET_v, symObjAddr: 0xCF8, symBinAddr: 0x1000057A4, symSize: 0x10 }
  - { offsetInCU: 0x1F5A, offset: 0x1F5A, size: 0x8, addend: 0x0, symName: __ZN3glm6lookAtIfLNS_9qualifierE0EEENS_3matILi4ELi4ET_XT0_EEERKNS_3vecILi3ES3_XT0_EEES8_S8_, symObjAddr: 0xD08, symBinAddr: 0x1000057B4, symSize: 0x34 }
  - { offsetInCU: 0x1FB5, offset: 0x1FB5, size: 0x8, addend: 0x0, symName: __ZN3glm8identityINS_3matILi4ELi4EfLNS_9qualifierE0EEEEET_v, symObjAddr: 0x10A8, symBinAddr: 0x100005B54, symSize: 0x14 }
  - { offsetInCU: 0x1FDC, offset: 0x1FDC, size: 0x8, addend: 0x0, symName: __ZN3glmmlIfLNS_9qualifierE0EEENS_3vecILi3ET_XT0_EEES3_RKS4_, symObjAddr: 0x3B48, symBinAddr: 0x1000085F4, symSize: 0x64 }
  - { offsetInCU: 0x202C, offset: 0x202C, size: 0x8, addend: 0x0, symName: __ZN3glm9normalizeILi3EfLNS_9qualifierE0EEENS_3vecIXT_ET0_XT1_EEERKS4_, symObjAddr: 0x3BAC, symBinAddr: 0x100008658, symSize: 0x3C }
  - { offsetInCU: 0x2075, offset: 0x2075, size: 0x8, addend: 0x0, symName: __ZN3glm9value_ptrIfLNS_9qualifierE0EEEPT_RNS_3vecILi3ES2_XT0_EEE, symObjAddr: 0xAF10, symBinAddr: 0x10000F9BC, symSize: 0x14 }
  - { offsetInCU: 0x20B4, offset: 0x20B4, size: 0x8, addend: 0x0, symName: __ZN3glm7radiansIfEET_S1_, symObjAddr: 0x11970, symBinAddr: 0x10001641C, symSize: 0x24 }
  - { offsetInCU: 0x20E9, offset: 0x20E9, size: 0x8, addend: 0x0, symName: __ZN3glm9value_ptrIfLNS_9qualifierE0EEEPT_RNS_3matILi4ELi4ES2_XT0_EEE, symObjAddr: 0x12FF4, symBinAddr: 0x100017AA0, symSize: 0x28 }
  - { offsetInCU: 0x2128, offset: 0x2128, size: 0x8, addend: 0x0, symName: __ZN3glmmlIfLNS_9qualifierE0EEENS_3matILi4ELi4ET_XT0_EEERKS4_S6_, symObjAddr: 0x1BC48, symBinAddr: 0x1000206F4, symSize: 0x5AC }
  - { offsetInCU: 0x2206, offset: 0x2206, size: 0x8, addend: 0x0, symName: __ZN3glmplIfLNS_9qualifierE0EEENS_3vecILi4ET_XT0_EEERKS4_S6_, symObjAddr: 0x1D8A8, symBinAddr: 0x100022354, symSize: 0x50 }
  - { offsetInCU: 0x2256, offset: 0x2256, size: 0x8, addend: 0x0, symName: __ZN3glmmlIfLNS_9qualifierE0EEENS_3vecILi4ET_XT0_EEERKS4_RKS3_, symObjAddr: 0x1D8F8, symBinAddr: 0x1000223A4, symSize: 0x54 }
  - { offsetInCU: 0x22A6, offset: 0x22A6, size: 0x8, addend: 0x0, symName: __ZN3glm2piIfEET_v, symObjAddr: 0x34C98, symBinAddr: 0x100039744, symSize: 0x10 }
  - { offsetInCU: 0x22CD, offset: 0x22CD, size: 0x8, addend: 0x0, symName: __ZN3glm6two_piIfEET_v, symObjAddr: 0x34CCC, symBinAddr: 0x100039778, symSize: 0x10 }
  - { offsetInCU: 0x22F4, offset: 0x22F4, size: 0x8, addend: 0x0, symName: __ZN3glm5crossIfLNS_9qualifierE0EEENS_3vecILi3ET_XT0_EEERKS4_S6_, symObjAddr: 0x34E1C, symBinAddr: 0x1000398C8, symSize: 0x44 }
  - { offsetInCU: 0x2341, offset: 0x2341, size: 0x8, addend: 0x0, symName: __ZN3glmeqIfLNS_9qualifierE0EEEbRKNS_3matILi4ELi4ET_XT0_EEES6_, symObjAddr: 0x3C190, symBinAddr: 0x100040C3C, symSize: 0x110 }
  - { offsetInCU: 0x2391, offset: 0x2391, size: 0x8, addend: 0x0, symName: __ZN3glmneIfLNS_9qualifierE0EEEbRKNS_3vecILi3ET_XT0_EEES6_, symObjAddr: 0x3C2A0, symBinAddr: 0x100040D4C, symSize: 0x34 }
  - { offsetInCU: 0x23E1, offset: 0x23E1, size: 0x8, addend: 0x0, symName: __ZN3glm5orthoIfEENS_3matILi4ELi4ET_LNS_9qualifierE0EEES2_S2_S2_S2_S2_S2_, symObjAddr: 0x3C2D4, symBinAddr: 0x100040D80, symSize: 0x4C }
  - { offsetInCU: 0x245C, offset: 0x245C, size: 0x8, addend: 0x0, symName: __ZN3glmngIfLNS_9qualifierE0EEENS_3vecILi3ET_XT0_EEERKS4_, symObjAddr: 0x3C320, symBinAddr: 0x100040DCC, symSize: 0x54 }
  - { offsetInCU: 0x249D, offset: 0x249D, size: 0x8, addend: 0x0, symName: __ZN3glmeqIfLNS_9qualifierE0EEEbRKNS_3vecILi4ET_XT0_EEES6_, symObjAddr: 0x3C374, symBinAddr: 0x100040E20, symSize: 0x30 }
  - { offsetInCU: 0x24ED, offset: 0x24ED, size: 0x8, addend: 0x0, symName: __ZN3glmeqIfLNS_9qualifierE0EEEbRKNS_3vecILi3ET_XT0_EEES6_, symObjAddr: 0x3C47C, symBinAddr: 0x100040F28, symSize: 0x8C }
  - { offsetInCU: 0x253D, offset: 0x253D, size: 0x8, addend: 0x0, symName: __ZN3glm10orthoRH_NOIfEENS_3matILi4ELi4ET_LNS_9qualifierE0EEES2_S2_S2_S2_S2_S2_, symObjAddr: 0x3C508, symBinAddr: 0x100040FB4, symSize: 0x1DC }
  - { offsetInCU: 0x25C7, offset: 0x25C7, size: 0x8, addend: 0x0, symName: __ZN3glmplIfLNS_9qualifierE0EEENS_3vecILi3ET_XT0_EEERKS4_S6_, symObjAddr: 0x3FA1C, symBinAddr: 0x1000444C8, symSize: 0x70 }
  - { offsetInCU: 0x2617, offset: 0x2617, size: 0x8, addend: 0x0, symName: __ZN3glm7inverseILi4ELi4EfLNS_9qualifierE0EEENS_3matIXT_EXT0_ET1_XT2_EEERKS4_, symObjAddr: 0x47080, symBinAddr: 0x10004BB2C, symSize: 0x24 }
  - { offsetInCU: 0x266C, offset: 0x266C, size: 0x8, addend: 0x0, symName: __ZN3glmmiIfLNS_9qualifierE0EEENS_3vecILi4ET_XT0_EEERKS4_S6_, symObjAddr: 0x4813C, symBinAddr: 0x10004CBE8, symSize: 0x50 }
  - { offsetInCU: 0x26BC, offset: 0x26BC, size: 0x8, addend: 0x0, symName: __ZN3glmmlIfLNS_9qualifierE0EEENS_3vecILi4ET_XT0_EEERKS4_S6_, symObjAddr: 0x4818C, symBinAddr: 0x10004CC38, symSize: 0x50 }
  - { offsetInCU: 0x270C, offset: 0x270C, size: 0x8, addend: 0x0, symName: __ZN3glmmlIfLNS_9qualifierE0EEENS_3matILi4ELi4ET_XT0_EEERKS4_RKS3_, symObjAddr: 0x48228, symBinAddr: 0x10004CCD4, symSize: 0xE4 }
  - { offsetInCU: 0x275C, offset: 0x275C, size: 0x8, addend: 0x0, symName: __ZN3glmmlIfLNS_9qualifierE0EEENS_3matILi3ELi3ET_XT0_EE8col_typeERKS4_RKNS4_8row_typeE, symObjAddr: 0x484D4, symBinAddr: 0x10004CF80, symSize: 0x1DC }
  - { offsetInCU: 0x27AC, offset: 0x27AC, size: 0x8, addend: 0x0, symName: __ZN3glm9transposeILi4ELi4EfLNS_9qualifierE0EEENS_3matIXT_EXT0_ET1_XT2_EE14transpose_typeERKS4_, symObjAddr: 0x486B0, symBinAddr: 0x10004D15C, symSize: 0x24 }
  - { offsetInCU: 0x2801, offset: 0x2801, size: 0x8, addend: 0x0, symName: __ZN3glmmlIfLNS_9qualifierE0EEENS_3matILi4ELi4ET_XT0_EE8col_typeERKS4_RKNS4_8row_typeE, symObjAddr: 0x48D3C, symBinAddr: 0x10004D7E8, symSize: 0x1B4 }
  - { offsetInCU: 0x28FF, offset: 0x28FF, size: 0x8, addend: 0x0, symName: __ZN3glm9translateIfLNS_9qualifierE0EEENS_3matILi4ELi4ET_XT0_EEERKS4_RKNS_3vecILi3ES3_XT0_EEE, symObjAddr: 0x4914C, symBinAddr: 0x10004DBF8, symSize: 0x17C }
  - { offsetInCU: 0x295B, offset: 0x295B, size: 0x8, addend: 0x0, symName: __ZN3glm6rotateIfLNS_9qualifierE0EEENS_3matILi4ELi4ET_XT0_EEERKS4_S3_RKNS_3vecILi3ES3_XT0_EEE, symObjAddr: 0x492C8, symBinAddr: 0x10004DD74, symSize: 0x8C0 }
  - { offsetInCU: 0x2A1B, offset: 0x2A1B, size: 0x8, addend: 0x0, symName: __ZN3glm5scaleIfLNS_9qualifierE0EEENS_3matILi4ELi4ET_XT0_EEERKS4_RKNS_3vecILi3ES3_XT0_EEE, symObjAddr: 0x49B88, symBinAddr: 0x10004E634, symSize: 0x144 }
  - { offsetInCU: 0x2A77, offset: 0x2A77, size: 0x8, addend: 0x0, symName: __ZN3glmmlIfLNS_9qualifierE0EEENS_3vecILi3ET_XT0_EEERKS4_S3_, symObjAddr: 0x4B798, symBinAddr: 0x100050244, symSize: 0x64 }
  - { offsetInCU: 0x2AC7, offset: 0x2AC7, size: 0x8, addend: 0x0, symName: __ZN3glm11inversesqrtIfEET_S1_, symObjAddr: 0x4B9E8, symBinAddr: 0x100050494, symSize: 0x30 }
  - { offsetInCU: 0x2AFC, offset: 0x2AFC, size: 0x8, addend: 0x0, symName: __ZN3glm3dotILi3EfLNS_9qualifierE0EEET0_RKNS_3vecIXT_ES2_XT1_EEES6_, symObjAddr: 0x4BA18, symBinAddr: 0x1000504C4, symSize: 0x2C }
  - { offsetInCU: 0x2B53, offset: 0x2B53, size: 0x8, addend: 0x0, symName: __ZN3glmmlIfLNS_9qualifierE0EEENS_3vecILi3ET_XT0_EEERKS4_S6_, symObjAddr: 0x4BAA8, symBinAddr: 0x100050554, symSize: 0x70 }
  - { offsetInCU: 0x2BA3, offset: 0x2BA3, size: 0x8, addend: 0x0, symName: __ZN3glm8lookAtRHIfLNS_9qualifierE0EEENS_3matILi4ELi4ET_XT0_EEERKNS_3vecILi3ES3_XT0_EEES8_S8_, symObjAddr: 0x4BB18, symBinAddr: 0x1000505C4, symSize: 0x2E4 }
  - { offsetInCU: 0x2C38, offset: 0x2C38, size: 0x8, addend: 0x0, symName: __ZN3glmmiIfLNS_9qualifierE0EEENS_3vecILi3ET_XT0_EEERKS4_S6_, symObjAddr: 0x4BDFC, symBinAddr: 0x1000508A8, symSize: 0x70 }
  - { offsetInCU: 0x2C88, offset: 0x2C88, size: 0x8, addend: 0x0, symName: __ZN3glm16perspectiveRH_NOIfEENS_3matILi4ELi4ET_LNS_9qualifierE0EEES2_S2_S2_S2_, symObjAddr: 0x4BE6C, symBinAddr: 0x100050918, symSize: 0x1C8 }
  - { offsetInCU: 0x2D04, offset: 0x2D04, size: 0x8, addend: 0x0, symName: __ZN3glm3absIfEET_S1_, symObjAddr: 0x4C034, symBinAddr: 0x100050AE0, symSize: 0x24 }
  - { offsetInCU: 0x302D, offset: 0x302D, size: 0x8, addend: 0x0, symName: _texTypeStrings, symObjAddr: 0x2E3DA0, symBinAddr: 0x1001F6BB8, symSize: 0x0 }
  - { offsetInCU: 0x2E475, offset: 0x2E475, size: 0x8, addend: 0x0, symName: __ZNSt3__119piecewise_constructE, symObjAddr: 0x65B40, symBinAddr: 0x1001A8E40, symSize: 0x0 }
  - { offsetInCU: 0x37D3D, offset: 0x37D3D, size: 0x8, addend: 0x0, symName: __ZNSt3__124__put_character_sequenceB8ue170006IcNS_11char_traitsIcEEEERNS_13basic_ostreamIT_T0_EES7_PKS4_m, symObjAddr: 0x17C10, symBinAddr: 0x10001C6BC, symSize: 0x1EC }
  - { offsetInCU: 0x39BE1, offset: 0x39BE1, size: 0x8, addend: 0x0, symName: __ZNSt3__16copy_nB8ue170006IPKcmPcEENS_9enable_ifIXsr37__has_random_access_iterator_categoryIT_EE5valueET1_E4typeES5_T0_S6_, symObjAddr: 0x2413C, symBinAddr: 0x100028BE8, symSize: 0x44 }
  - { offsetInCU: 0x3A165, offset: 0x3A165, size: 0x8, addend: 0x0, symName: __ZNSt3__17advanceB8ue170006INS_11__wrap_iterIPNS_10shared_ptrI3TexEEEEllvEEvRT_T0_, symObjAddr: 0x265B8, symBinAddr: 0x10002B064, symSize: 0x38 }
  - { offsetInCU: 0x3E159, offset: 0x3E159, size: 0x8, addend: 0x0, symName: __ZNSt3__17advanceB8ue170006IPjllvEEvRT_T0_, symObjAddr: 0x4A3B4, symBinAddr: 0x10004EE60, symSize: 0x38 }
  - { offsetInCU: 0x40489, offset: 0x40489, size: 0x8, addend: 0x0, symName: __ZNSt3__1lsB8ue170006INS_11char_traitsIcEEEERNS_13basic_ostreamIcT_EES6_PKc, symObjAddr: 0xF10, symBinAddr: 0x1000059BC, symSize: 0x48 }
  - { offsetInCU: 0x404CF, offset: 0x404CF, size: 0x8, addend: 0x0, symName: __ZNSt3__14endlB8ue170006IcNS_11char_traitsIcEEEERNS_13basic_ostreamIT_T0_EES7_, symObjAddr: 0xF84, symBinAddr: 0x100005A30, symSize: 0x58 }
  - { offsetInCU: 0x41119, offset: 0x41119, size: 0x8, addend: 0x0, symName: __ZNSt3__1neB8ue170006ERKNS_14__map_iteratorINS_15__tree_iteratorINS_12__value_typeINS_12basic_stringIcNS_11char_traitsIcEENS_9allocatorIcEEEENS_10shared_ptrI3TexEEEEPNS_11__tree_nodeISC_PvEElEEEESK_, symObjAddr: 0xAAC0, symBinAddr: 0x10000F56C, symSize: 0x30 }
  - { offsetInCU: 0x41156, offset: 0x41156, size: 0x8, addend: 0x0, symName: __ZNSt3__1plB8ue170006IcNS_11char_traitsIcEENS_9allocatorIcEEEENS_12basic_stringIT_T0_T1_EEPKS6_OS9_, symObjAddr: 0xABAC, symBinAddr: 0x10000F658, symSize: 0x44 }
  - { offsetInCU: 0x411AE, offset: 0x411AE, size: 0x8, addend: 0x0, symName: __ZNSt3__1neB8ue170006IPNS_12basic_stringIcNS_11char_traitsIcEENS_9allocatorIcEEEEEEbRKNS_11__wrap_iterIT_EESC_, symObjAddr: 0xACA8, symBinAddr: 0x10000F754, symSize: 0x34 }
  - { offsetInCU: 0x411F1, offset: 0x411F1, size: 0x8, addend: 0x0, symName: __ZNSt3__1neB8ue170006ERKNS_14__map_iteratorINS_15__tree_iteratorINS_12__value_typeINS_12basic_stringIcNS_11char_traitsIcEENS_9allocatorIcEEEENS_10shared_ptrI5ModelEEEEPNS_11__tree_nodeISC_PvEElEEEESK_, symObjAddr: 0xAD80, symBinAddr: 0x10000F82C, symSize: 0x30 }
  - { offsetInCU: 0x4122E, offset: 0x4122E, size: 0x8, addend: 0x0, symName: __ZNSt3__1plB8ue170006IcNS_11char_traitsIcEENS_9allocatorIcEEEENS_12basic_stringIT_T0_T1_EEOS9_PKS6_, symObjAddr: 0xAF24, symBinAddr: 0x10000F9D0, symSize: 0x40 }
  - { offsetInCU: 0x41286, offset: 0x41286, size: 0x8, addend: 0x0, symName: __ZNSt3__1eqB8ue170006IcNS_11char_traitsIcEENS_9allocatorIcEEEEbRKNS_12basic_stringIT_T0_T1_EEPKS6_, symObjAddr: 0xB010, symBinAddr: 0x10000FABC, symSize: 0xAC }
  - { offsetInCU: 0x412ED, offset: 0x412ED, size: 0x8, addend: 0x0, symName: __ZNSt3__1eqB8ue170006INS_9allocatorIcEEEEbRKNS_12basic_stringIcNS_11char_traitsIcEET_EES9_, symObjAddr: 0xB0E8, symBinAddr: 0x10000FB94, symSize: 0x148 }
  - { offsetInCU: 0x41360, offset: 0x41360, size: 0x8, addend: 0x0, symName: __ZNSt3__1neB8ue170006ERKNS_14__map_iteratorINS_15__tree_iteratorINS_12__value_typeI8Tex_TypeNS_12basic_stringIcNS_11char_traitsIcEENS_9allocatorIcEEEEEEPNS_11__tree_nodeISA_PvEElEEEESI_, symObjAddr: 0xB3CC, symBinAddr: 0x10000FE78, symSize: 0x30 }
  - { offsetInCU: 0x4139D, offset: 0x4139D, size: 0x8, addend: 0x0, symName: __ZNSt3__1neB8ue170006ERKNS_14__map_iteratorINS_15__tree_iteratorINS_12__value_typeINS_12basic_stringIcNS_11char_traitsIcEENS_9allocatorIcEEEENS_10shared_ptrI5ShapeEEEEPNS_11__tree_nodeISC_PvEElEEEESK_, symObjAddr: 0xB58C, symBinAddr: 0x100010038, symSize: 0x30 }
  - { offsetInCU: 0x413DA, offset: 0x413DA, size: 0x8, addend: 0x0, symName: __ZNSt3__1neB8ue170006IPNS_10shared_ptrI16DirectionalLightEEEEbRKNS_11__wrap_iterIT_EES9_, symObjAddr: 0xC008, symBinAddr: 0x100010AB4, symSize: 0x34 }
  - { offsetInCU: 0x4141D, offset: 0x4141D, size: 0x8, addend: 0x0, symName: __ZNSt3__1neB8ue170006IPNS_10shared_ptrI10PointLightEEEEbRKNS_11__wrap_iterIT_EES9_, symObjAddr: 0xC1C8, symBinAddr: 0x100010C74, symSize: 0x34 }
  - { offsetInCU: 0x41460, offset: 0x41460, size: 0x8, addend: 0x0, symName: __ZNSt3__1neB8ue170006IPNS_10shared_ptrI9SceneNodeEEEEbRKNS_11__wrap_iterIT_EES9_, symObjAddr: 0xC35C, symBinAddr: 0x100010E08, symSize: 0x34 }
  - { offsetInCU: 0x416E2, offset: 0x416E2, size: 0x8, addend: 0x0, symName: __ZNSt3__112__to_addressB8ue170006IN3glm3vecILi2EfLNS1_9qualifierE0EEEEEPT_S6_, symObjAddr: 0x1402C, symBinAddr: 0x100018AD8, symSize: 0x14 }
  - { offsetInCU: 0x41718, offset: 0x41718, size: 0x8, addend: 0x0, symName: __ZNSt3__119__libcpp_deallocateB8ue170006EPvmm, symObjAddr: 0x14104, symBinAddr: 0x100018BB0, symSize: 0x60 }
  - { offsetInCU: 0x4177F, offset: 0x4177F, size: 0x8, addend: 0x0, symName: __ZNSt3__124__is_overaligned_for_newB8ue170006Em, symObjAddr: 0x14164, symBinAddr: 0x100018C10, symSize: 0x20 }
  - { offsetInCU: 0x417AE, offset: 0x417AE, size: 0x8, addend: 0x0, symName: __ZNSt3__127__do_deallocate_handle_sizeB8ue170006IJSt11align_val_tEEEvPvmDpT_, symObjAddr: 0x14184, symBinAddr: 0x100018C30, symSize: 0x30 }
  - { offsetInCU: 0x41802, offset: 0x41802, size: 0x8, addend: 0x0, symName: __ZNSt3__127__do_deallocate_handle_sizeB8ue170006IJEEEvPvmDpT_, symObjAddr: 0x141B4, symBinAddr: 0x100018C60, symSize: 0x28 }
  - { offsetInCU: 0x41841, offset: 0x41841, size: 0x8, addend: 0x0, symName: __ZNSt3__124__libcpp_operator_deleteB8ue170006IJPvSt11align_val_tEEEvDpT_, symObjAddr: 0x141DC, symBinAddr: 0x100018C88, symSize: 0x2C }
  - { offsetInCU: 0x4188B, offset: 0x4188B, size: 0x8, addend: 0x0, symName: __ZNSt3__124__libcpp_operator_deleteB8ue170006IJPvEEEvDpT_, symObjAddr: 0x14208, symBinAddr: 0x100018CB4, symSize: 0x24 }
  - { offsetInCU: 0x418C0, offset: 0x418C0, size: 0x8, addend: 0x0, symName: __ZNSt3__17launderB8ue170006INS_4pairIK8Tex_TypeNS_10shared_ptrI3TexEEEEEEPT_S9_, symObjAddr: 0x14588, symBinAddr: 0x100019034, symSize: 0x24 }
  - { offsetInCU: 0x418F8, offset: 0x418F8, size: 0x8, addend: 0x0, symName: __ZNSt3__19__launderB8ue170006INS_4pairIK8Tex_TypeNS_10shared_ptrI3TexEEEEEEPT_S9_, symObjAddr: 0x145AC, symBinAddr: 0x100019058, symSize: 0x14 }
  - { offsetInCU: 0x4192F, offset: 0x4192F, size: 0x8, addend: 0x0, symName: __ZNSt3__1neB8ue170006ERKNS_14__map_iteratorINS_15__tree_iteratorINS_12__value_typeI8Tex_TypeNS_10shared_ptrI3TexEEEEPNS_11__tree_nodeIS7_PvEElEEEESF_, symObjAddr: 0x152FC, symBinAddr: 0x100019DA8, symSize: 0x30 }
  - { offsetInCU: 0x4196C, offset: 0x4196C, size: 0x8, addend: 0x0, symName: __ZNSt3__1neB8ue170006ERKNS_15__tree_iteratorINS_12__value_typeI8Tex_TypeNS_10shared_ptrI3TexEEEEPNS_11__tree_nodeIS6_PvEElEESD_, symObjAddr: 0x15490, symBinAddr: 0x100019F3C, symSize: 0x34 }
  - { offsetInCU: 0x419AA, offset: 0x419AA, size: 0x8, addend: 0x0, symName: __ZNSt3__1eqB8ue170006ERKNS_15__tree_iteratorINS_12__value_typeI8Tex_TypeNS_10shared_ptrI3TexEEEEPNS_11__tree_nodeIS6_PvEElEESD_, symObjAddr: 0x154C4, symBinAddr: 0x100019F70, symSize: 0x30 }
  - { offsetInCU: 0x41A1A, offset: 0x41A1A, size: 0x8, addend: 0x0, symName: __ZNSt3__116__tree_next_iterB8ue170006IPNS_15__tree_end_nodeIPNS_16__tree_node_baseIPvEEEES5_EET_T0_, symObjAddr: 0x15584, symBinAddr: 0x10001A030, symSize: 0x90 }
  - { offsetInCU: 0x41A58, offset: 0x41A58, size: 0x8, addend: 0x0, symName: __ZNSt3__110__tree_minB8ue170006IPNS_16__tree_node_baseIPvEEEET_S5_, symObjAddr: 0x15614, symBinAddr: 0x10001A0C0, symSize: 0x40 }
  - { offsetInCU: 0x41A8D, offset: 0x41A8D, size: 0x8, addend: 0x0, symName: __ZNSt3__120__tree_is_left_childB8ue170006IPNS_16__tree_node_baseIPvEEEEbT_, symObjAddr: 0x15654, symBinAddr: 0x10001A100, symSize: 0x2C }
  - { offsetInCU: 0x41AC2, offset: 0x41AC2, size: 0x8, addend: 0x0, symName: __ZNSt3__1lsB8ue170006IcNS_11char_traitsIcEENS_9allocatorIcEEEERNS_13basic_ostreamIT_T0_EES9_RKNS_12basic_stringIS6_S7_T1_EE, symObjAddr: 0x15E40, symBinAddr: 0x10001A8EC, symSize: 0x4C }
  - { offsetInCU: 0x41B1A, offset: 0x41B1A, size: 0x8, addend: 0x0, symName: __ZNSt3__122__make_exception_guardB8ue170006INS_6vectorINS_12basic_stringIcNS_11char_traitsIcEENS_9allocatorIcEEEENS5_IS7_EEE16__destroy_vectorEEENS_28__exception_guard_exceptionsIT_EESC_, symObjAddr: 0x16544, symBinAddr: 0x10001AFF0, symSize: 0x40 }
  - { offsetInCU: 0x41B4F, offset: 0x41B4F, size: 0x8, addend: 0x0, symName: __ZNSt3__119__allocate_at_leastB8ue170006INS_9allocatorINS_12basic_stringIcNS_11char_traitsIcEENS1_IcEEEEEEEENS_19__allocation_resultINS_16allocator_traitsIT_E7pointerEEERSA_m, symObjAddr: 0x16954, symBinAddr: 0x10001B400, symSize: 0x40 }
  - { offsetInCU: 0x41B92, offset: 0x41B92, size: 0x8, addend: 0x0, symName: __ZNSt3__13minB8ue170006ImEERKT_S3_S3_, symObjAddr: 0x16AAC, symBinAddr: 0x10001B558, symSize: 0x2C }
  - { offsetInCU: 0x41DBF, offset: 0x41DBF, size: 0x8, addend: 0x0, symName: __ZNSt3__13minB8ue170006ImNS_6__lessIvvEEEERKT_S5_S5_T0_, symObjAddr: 0x16B38, symBinAddr: 0x10001B5E4, symSize: 0x54 }
  - { offsetInCU: 0x41E5F, offset: 0x41E5F, size: 0x8, addend: 0x0, symName: __ZNSt3__120__throw_length_errorB8ue170006EPKc, symObjAddr: 0x16C18, symBinAddr: 0x10001B6C4, symSize: 0x64 }
  - { offsetInCU: 0x41E89, offset: 0x41E89, size: 0x8, addend: 0x0, symName: __ZNSt3__117__libcpp_allocateB8ue170006Emm, symObjAddr: 0x16D8C, symBinAddr: 0x10001B838, symSize: 0x60 }
  - { offsetInCU: 0x41EE4, offset: 0x41EE4, size: 0x8, addend: 0x0, symName: __ZNSt3__121__libcpp_operator_newB8ue170006IJmSt11align_val_tEEEPvDpT_, symObjAddr: 0x16DEC, symBinAddr: 0x10001B898, symSize: 0x2C }
  - { offsetInCU: 0x41F31, offset: 0x41F31, size: 0x8, addend: 0x0, symName: __ZNSt3__121__libcpp_operator_newB8ue170006IJmEEEPvDpT_, symObjAddr: 0x16E18, symBinAddr: 0x10001B8C4, symSize: 0x24 }
  - { offsetInCU: 0x41F6A, offset: 0x41F6A, size: 0x8, addend: 0x0, symName: __ZNSt3__112__to_addressB8ue170006INS_12basic_stringIcNS_11char_traitsIcEENS_9allocatorIcEEEEEEPT_S8_, symObjAddr: 0x16F34, symBinAddr: 0x10001B9E0, symSize: 0x14 }
  - { offsetInCU: 0x41F9F, offset: 0x41F9F, size: 0x8, addend: 0x0, symName: __ZNSt3__130__uninitialized_allocator_copyB8ue170006INS_9allocatorINS_12basic_stringIcNS_11char_traitsIcEENS1_IcEEEEEEPKS6_S9_PS6_EET2_RT_T0_T1_SB_, symObjAddr: 0x16FE4, symBinAddr: 0x10001BA90, symSize: 0x80 }
  - { offsetInCU: 0x4203C, offset: 0x4203C, size: 0x8, addend: 0x0, symName: __ZNSt3__114__unwrap_rangeB8ue170006IPKNS_12basic_stringIcNS_11char_traitsIcEENS_9allocatorIcEEEES8_EENS_4pairIT0_SA_EET_SC_, symObjAddr: 0x170DC, symBinAddr: 0x10001BB88, symSize: 0x60 }
  - { offsetInCU: 0x42088, offset: 0x42088, size: 0x8, addend: 0x0, symName: __ZNSt3__135__uninitialized_allocator_copy_implB8ue170006INS_9allocatorINS_12basic_stringIcNS_11char_traitsIcEENS1_IcEEEEEEPKS6_S9_PS6_EET2_RT_T0_T1_SB_, symObjAddr: 0x1713C, symBinAddr: 0x10001BBE8, symSize: 0xF4 }
  - { offsetInCU: 0x42126, offset: 0x42126, size: 0x8, addend: 0x0, symName: __ZNSt3__113__unwrap_iterB8ue170006IPNS_12basic_stringIcNS_11char_traitsIcEENS_9allocatorIcEEEENS_18__unwrap_iter_implIS7_Lb1EEELi0EEEDTclsrT0_8__unwrapclsr3stdE7declvalIT_EEEESB_, symObjAddr: 0x17230, symBinAddr: 0x10001BCDC, symSize: 0x24 }
  - { offsetInCU: 0x4216A, offset: 0x4216A, size: 0x8, addend: 0x0, symName: __ZNSt3__113__rewrap_iterB8ue170006IPNS_12basic_stringIcNS_11char_traitsIcEENS_9allocatorIcEEEES7_NS_18__unwrap_iter_implIS7_Lb1EEEEET_SA_T0_, symObjAddr: 0x17254, symBinAddr: 0x10001BD00, symSize: 0x3C }
  - { offsetInCU: 0x421BF, offset: 0x421BF, size: 0x8, addend: 0x0, symName: __ZNSt3__19make_pairB8ue170006IPKNS_12basic_stringIcNS_11char_traitsIcEENS_9allocatorIcEEEES8_EENS_4pairINS_18__unwrap_ref_decayIT_E4typeENSA_IT0_E4typeEEEOSB_OSE_, symObjAddr: 0x17290, symBinAddr: 0x10001BD3C, symSize: 0x38 }
  - { offsetInCU: 0x4220E, offset: 0x4220E, size: 0x8, addend: 0x0, symName: __ZNSt3__113__unwrap_iterB8ue170006IPKNS_12basic_stringIcNS_11char_traitsIcEENS_9allocatorIcEEEENS_18__unwrap_iter_implIS8_Lb1EEELi0EEEDTclsrT0_8__unwrapclsr3stdE7declvalIT_EEEESC_, symObjAddr: 0x172C8, symBinAddr: 0x10001BD74, symSize: 0x24 }
  - { offsetInCU: 0x42379, offset: 0x42379, size: 0x8, addend: 0x0, symName: __ZNSt3__112__to_addressB8ue170006IKNS_12basic_stringIcNS_11char_traitsIcEENS_9allocatorIcEEEEEEPT_S9_, symObjAddr: 0x17380, symBinAddr: 0x10001BE2C, symSize: 0x14 }
  - { offsetInCU: 0x423AE, offset: 0x423AE, size: 0x8, addend: 0x0, symName: __ZNSt3__122__make_exception_guardB8ue170006INS_29_AllocatorDestroyRangeReverseINS_9allocatorINS_12basic_stringIcNS_11char_traitsIcEENS2_IcEEEEEEPS7_EEEENS_28__exception_guard_exceptionsIT_EESC_, symObjAddr: 0x17394, symBinAddr: 0x10001BE40, symSize: 0x4C }
  - { offsetInCU: 0x423E5, offset: 0x423E5, size: 0x8, addend: 0x0, symName: __ZNSt3__119__allocator_destroyB8ue170006INS_9allocatorINS_12basic_stringIcNS_11char_traitsIcEENS1_IcEEEEEENS_16reverse_iteratorIPS6_EESA_EEvRT_T0_T1_, symObjAddr: 0x17624, symBinAddr: 0x10001C0D0, symSize: 0x70 }
  - { offsetInCU: 0x42448, offset: 0x42448, size: 0x8, addend: 0x0, symName: __ZNSt3__1neB8ue170006IPNS_12basic_stringIcNS_11char_traitsIcEENS_9allocatorIcEEEES7_EEbRKNS_16reverse_iteratorIT_EERKNS8_IT0_EE, symObjAddr: 0x176C8, symBinAddr: 0x10001C174, symSize: 0x48 }
  - { offsetInCU: 0x42494, offset: 0x42494, size: 0x8, addend: 0x0, symName: __ZNSt3__112__to_addressB8ue170006INS_16reverse_iteratorIPNS_12basic_stringIcNS_11char_traitsIcEENS_9allocatorIcEEEEEEvEEu7__decayIDTclsr19__to_address_helperIT_EE6__callclsr3stdE7declvalIRKSA_EEEEESC_, symObjAddr: 0x1773C, symBinAddr: 0x10001C1E8, symSize: 0x24 }
  - { offsetInCU: 0x42547, offset: 0x42547, size: 0x8, addend: 0x0, symName: __ZNSt3__116__pad_and_outputB8ue170006IcNS_11char_traitsIcEEEENS_19ostreambuf_iteratorIT_T0_EES6_PKS4_S8_S8_RNS_8ios_baseES4_, symObjAddr: 0x17E94, symBinAddr: 0x10001C940, symSize: 0x240 }
  - { offsetInCU: 0x42616, offset: 0x42616, size: 0x8, addend: 0x0, symName: __ZNSt3__112__to_addressB8ue170006IcEEPT_S2_, symObjAddr: 0x183FC, symBinAddr: 0x10001CEA8, symSize: 0x14 }
  - { offsetInCU: 0x4267E, offset: 0x4267E, size: 0x8, addend: 0x0, symName: __ZNSt3__19use_facetB8ue170006INS_5ctypeIcEEEERKT_RKNS_6localeE, symObjAddr: 0x186B4, symBinAddr: 0x10001D160, symSize: 0x2C }
  - { offsetInCU: 0x42B4B, offset: 0x42B4B, size: 0x8, addend: 0x0, symName: __ZNSt3__112__to_addressB8ue170006IKcEEPT_S3_, symObjAddr: 0x1874C, symBinAddr: 0x10001D1F8, symSize: 0x14 }
  - { offsetInCU: 0x42BB3, offset: 0x42BB3, size: 0x8, addend: 0x0, symName: __ZNSt3__130__uninitialized_allocator_copyB8ue170006INS_9allocatorINS_12basic_stringIcNS_11char_traitsIcEENS1_IcEEEEEEPS6_S8_S8_EET2_RT_T0_T1_S9_, symObjAddr: 0x18DF8, symBinAddr: 0x10001D8A4, symSize: 0x80 }
  - { offsetInCU: 0x42C50, offset: 0x42C50, size: 0x8, addend: 0x0, symName: __ZNSt3__114__unwrap_rangeB8ue170006IPNS_12basic_stringIcNS_11char_traitsIcEENS_9allocatorIcEEEES7_EENS_4pairIT0_S9_EET_SB_, symObjAddr: 0x18E78, symBinAddr: 0x10001D924, symSize: 0x60 }
  - { offsetInCU: 0x42C9C, offset: 0x42C9C, size: 0x8, addend: 0x0, symName: __ZNSt3__135__uninitialized_allocator_copy_implB8ue170006INS_9allocatorINS_12basic_stringIcNS_11char_traitsIcEENS1_IcEEEEEEPS6_S8_S8_EET2_RT_T0_T1_S9_, symObjAddr: 0x18ED8, symBinAddr: 0x10001D984, symSize: 0xF4 }
  - { offsetInCU: 0x42D3A, offset: 0x42D3A, size: 0x8, addend: 0x0, symName: __ZNSt3__19make_pairB8ue170006IPNS_12basic_stringIcNS_11char_traitsIcEENS_9allocatorIcEEEES7_EENS_4pairINS_18__unwrap_ref_decayIT_E4typeENS9_IT0_E4typeEEEOSA_OSD_, symObjAddr: 0x18FCC, symBinAddr: 0x10001DA78, symSize: 0x38 }
  - { offsetInCU: 0x43760, offset: 0x43760, size: 0x8, addend: 0x0, symName: __ZNSt3__1neB8ue170006IcNS_11char_traitsIcEENS_9allocatorIcEEEEbRKNS_12basic_stringIT_T0_T1_EEPKS6_, symObjAddr: 0x19CC0, symBinAddr: 0x10001E76C, symSize: 0x34 }
  - { offsetInCU: 0x437CE, offset: 0x437CE, size: 0x8, addend: 0x0, symName: __ZNSt3__134__libcpp_atomic_refcount_incrementB8ue170006IlEET_RS1_, symObjAddr: 0x1A5D0, symBinAddr: 0x10001F07C, symSize: 0x30 }
  - { offsetInCU: 0x43803, offset: 0x43803, size: 0x8, addend: 0x0, symName: __ZNSt3__112__to_addressB8ue170006INS_10shared_ptrI4MeshEEEEPT_S5_, symObjAddr: 0x1DF8C, symBinAddr: 0x100022A38, symSize: 0x14 }
  - { offsetInCU: 0x43838, offset: 0x43838, size: 0x8, addend: 0x0, symName: __ZNSt3__13maxB8ue170006ImEERKT_S3_S3_, symObjAddr: 0x1E424, symBinAddr: 0x100022ED0, symSize: 0x2C }
  - { offsetInCU: 0x4387B, offset: 0x4387B, size: 0x8, addend: 0x0, symName: __ZNSt3__13maxB8ue170006ImNS_6__lessIvvEEEERKT_S5_S5_T0_, symObjAddr: 0x1E548, symBinAddr: 0x100022FF4, symSize: 0x54 }
  - { offsetInCU: 0x438D5, offset: 0x438D5, size: 0x8, addend: 0x0, symName: __ZNSt3__119__allocate_at_leastB8ue170006INS_9allocatorINS_10shared_ptrI4MeshEEEEEENS_19__allocation_resultINS_16allocator_traitsIT_E7pointerEEERS8_m, symObjAddr: 0x1E6AC, symBinAddr: 0x100023158, symSize: 0x40 }
  - { offsetInCU: 0x43918, offset: 0x43918, size: 0x8, addend: 0x0, symName: __ZNSt3__142__uninitialized_allocator_move_if_noexceptB8ue170006INS_9allocatorINS_10shared_ptrI4MeshEEEENS_16reverse_iteratorIPS4_EES8_S8_EET2_RT_T0_T1_S9_, symObjAddr: 0x1E918, symBinAddr: 0x1000233C4, symSize: 0x12C }
  - { offsetInCU: 0x439B8, offset: 0x439B8, size: 0x8, addend: 0x0, symName: __ZNSt3__14swapB8ue170006IPNS_10shared_ptrI4MeshEEEENS_9enable_ifIXaasr21is_move_constructibleIT_EE5valuesr18is_move_assignableIS6_EE5valueEvE4typeERS6_S9_, symObjAddr: 0x1EA90, symBinAddr: 0x10002353C, symSize: 0x3C }
  - { offsetInCU: 0x43A09, offset: 0x43A09, size: 0x8, addend: 0x0, symName: __ZNSt3__122__make_exception_guardB8ue170006INS_29_AllocatorDestroyRangeReverseINS_9allocatorINS_10shared_ptrI4MeshEEEENS_16reverse_iteratorIPS5_EEEEEENS_28__exception_guard_exceptionsIT_EESC_, symObjAddr: 0x1EBC0, symBinAddr: 0x10002366C, symSize: 0x4C }
  - { offsetInCU: 0x43A3F, offset: 0x43A3F, size: 0x8, addend: 0x0, symName: __ZNSt3__1neB8ue170006IPNS_10shared_ptrI4MeshEES4_EEbRKNS_16reverse_iteratorIT_EERKNS5_IT0_EE, symObjAddr: 0x1EC50, symBinAddr: 0x1000236FC, symSize: 0x48 }
  - { offsetInCU: 0x43A8B, offset: 0x43A8B, size: 0x8, addend: 0x0, symName: __ZNSt3__112__to_addressB8ue170006INS_16reverse_iteratorIPNS_10shared_ptrI4MeshEEEEvEEu7__decayIDTclsr19__to_address_helperIT_EE6__callclsr3stdE7declvalIRKS7_EEEEES9_, symObjAddr: 0x1EC98, symBinAddr: 0x100023744, symSize: 0x24 }
  - { offsetInCU: 0x43AEC, offset: 0x43AEC, size: 0x8, addend: 0x0, symName: __ZNSt3__119__allocator_destroyB8ue170006INS_9allocatorINS_10shared_ptrI4MeshEEEENS_16reverse_iteratorINS6_IPS4_EEEES9_EEvRT_T0_T1_, symObjAddr: 0x1EF48, symBinAddr: 0x1000239F4, symSize: 0x70 }
  - { offsetInCU: 0x43B51, offset: 0x43B51, size: 0x8, addend: 0x0, symName: __ZNSt3__1neB8ue170006INS_16reverse_iteratorIPNS_10shared_ptrI4MeshEEEES6_EEbRKNS1_IT_EERKNS1_IT0_EE, symObjAddr: 0x1EFF4, symBinAddr: 0x100023AA0, symSize: 0x60 }
  - { offsetInCU: 0x43B9D, offset: 0x43B9D, size: 0x8, addend: 0x0, symName: __ZNSt3__112__to_addressB8ue170006INS_16reverse_iteratorINS1_IPNS_10shared_ptrI4MeshEEEEEEvEEu7__decayIDTclsr19__to_address_helperIT_EE6__callclsr3stdE7declvalIRKS8_EEEEESA_, symObjAddr: 0x1F080, symBinAddr: 0x100023B2C, symSize: 0x24 }
  - { offsetInCU: 0x43C1A, offset: 0x43C1A, size: 0x8, addend: 0x0, symName: __ZNSt3__112__to_addressB8ue170006I10MeshVertexEEPT_S3_, symObjAddr: 0x208D8, symBinAddr: 0x100025384, symSize: 0x14 }
  - { offsetInCU: 0x43C4F, offset: 0x43C4F, size: 0x8, addend: 0x0, symName: __ZNSt3__119__allocate_at_leastB8ue170006INS_9allocatorI10MeshVertexEEEENS_19__allocation_resultINS_16allocator_traitsIT_E7pointerEEERS6_m, symObjAddr: 0x20F28, symBinAddr: 0x1000259D4, symSize: 0x40 }
  - { offsetInCU: 0x43C92, offset: 0x43C92, size: 0x8, addend: 0x0, symName: __ZNSt3__142__uninitialized_allocator_move_if_noexceptB8ue170006INS_9allocatorI10MeshVertexEENS_16reverse_iteratorIPS2_EES6_S2_vEET1_RT_T0_SA_S7_, symObjAddr: 0x211B4, symBinAddr: 0x100025C60, symSize: 0x78 }
  - { offsetInCU: 0x43D10, offset: 0x43D10, size: 0x8, addend: 0x0, symName: __ZNSt3__14swapB8ue170006IP10MeshVertexEENS_9enable_ifIXaasr21is_move_constructibleIT_EE5valuesr18is_move_assignableIS4_EE5valueEvE4typeERS4_S7_, symObjAddr: 0x21278, symBinAddr: 0x100025D24, symSize: 0x3C }
  - { offsetInCU: 0x43D61, offset: 0x43D61, size: 0x8, addend: 0x0, symName: __ZNSt3__14moveB8ue170006INS_16reverse_iteratorIP10MeshVertexEES4_EET0_T_S6_S5_, symObjAddr: 0x213C4, symBinAddr: 0x100025E70, symSize: 0x78 }
  - { offsetInCU: 0x43DBB, offset: 0x43DBB, size: 0x8, addend: 0x0, symName: __ZNSt3__16__moveB8ue170006INS_17_ClassicAlgPolicyENS_16reverse_iteratorIP10MeshVertexEES5_S5_EENS_4pairIT0_T2_EES7_T1_S8_, symObjAddr: 0x2143C, symBinAddr: 0x100025EE8, symSize: 0x64 }
  - { offsetInCU: 0x43E27, offset: 0x43E27, size: 0x8, addend: 0x0, symName: __ZNSt3__123__dispatch_copy_or_moveB8ue170006INS_17_ClassicAlgPolicyENS_11__move_loopIS1_EENS_14__move_trivialENS_16reverse_iteratorIP10MeshVertexEES8_S8_EENS_4pairIT2_T4_EESA_T3_SB_, symObjAddr: 0x214A0, symBinAddr: 0x100025F4C, symSize: 0x64 }
  - { offsetInCU: 0x43EA5, offset: 0x43EA5, size: 0x8, addend: 0x0, symName: __ZNSt3__121__unwrap_and_dispatchB8ue170006INS_10__overloadINS_11__move_loopINS_17_ClassicAlgPolicyEEENS_14__move_trivialEEENS_16reverse_iteratorIP10MeshVertexEESA_SA_Li0EEENS_4pairIT0_T2_EESC_T1_SD_, symObjAddr: 0x21504, symBinAddr: 0x100025FB0, symSize: 0x12C }
  - { offsetInCU: 0x43F35, offset: 0x43F35, size: 0x8, addend: 0x0, symName: __ZNSt3__114__unwrap_rangeB8ue170006INS_16reverse_iteratorIP10MeshVertexEES4_EENS_4pairIT0_S6_EET_S8_, symObjAddr: 0x21630, symBinAddr: 0x1000260DC, symSize: 0x84 }
  - { offsetInCU: 0x442A8, offset: 0x442A8, size: 0x8, addend: 0x0, symName: __ZNSt3__113__unwrap_iterB8ue170006INS_16reverse_iteratorIP10MeshVertexEENS_18__unwrap_iter_implIS4_Lb0EEELi0EEEDTclsrT0_8__unwrapclsr3stdE7declvalIT_EEEES8_, symObjAddr: 0x21750, symBinAddr: 0x1000261FC, symSize: 0x44 }
  - { offsetInCU: 0x442EC, offset: 0x442EC, size: 0x8, addend: 0x0, symName: __ZNSt3__19make_pairB8ue170006INS_16reverse_iteratorIP10MeshVertexEES4_EENS_4pairINS_18__unwrap_ref_decayIT_E4typeENS6_IT0_E4typeEEEOS7_OSA_, symObjAddr: 0x21794, symBinAddr: 0x100026240, symSize: 0x38 }
  - { offsetInCU: 0x4433B, offset: 0x4433B, size: 0x8, addend: 0x0, symName: __ZNSt3__114__rewrap_rangeB8ue170006INS_16reverse_iteratorIP10MeshVertexEES4_EET_S5_T0_, symObjAddr: 0x217CC, symBinAddr: 0x100026278, symSize: 0x5C }
  - { offsetInCU: 0x44387, offset: 0x44387, size: 0x8, addend: 0x0, symName: __ZNSt3__113__rewrap_iterB8ue170006INS_16reverse_iteratorIP10MeshVertexEES4_NS_18__unwrap_iter_implIS4_Lb0EEEEET_S7_T0_, symObjAddr: 0x21828, symBinAddr: 0x1000262D4, symSize: 0x74 }
  - { offsetInCU: 0x443DC, offset: 0x443DC, size: 0x8, addend: 0x0, symName: __ZNSt3__1neB8ue170006IP10MeshVertexS2_EEbRKNS_16reverse_iteratorIT_EERKNS3_IT0_EE, symObjAddr: 0x2189C, symBinAddr: 0x100026348, symSize: 0x48 }
  - { offsetInCU: 0x446C8, offset: 0x446C8, size: 0x8, addend: 0x0, symName: __ZNSt3__112__to_addressB8ue170006IjEEPT_S2_, symObjAddr: 0x22080, symBinAddr: 0x100026B2C, symSize: 0x14 }
  - { offsetInCU: 0x446FD, offset: 0x446FD, size: 0x8, addend: 0x0, symName: __ZNSt3__119__allocate_at_leastB8ue170006INS_9allocatorIjEEEENS_19__allocation_resultINS_16allocator_traitsIT_E7pointerEEERS5_m, symObjAddr: 0x226A4, symBinAddr: 0x100027150, symSize: 0x40 }
  - { offsetInCU: 0x44740, offset: 0x44740, size: 0x8, addend: 0x0, symName: __ZNSt3__142__uninitialized_allocator_move_if_noexceptB8ue170006INS_9allocatorIjEENS_16reverse_iteratorIPjEES5_jvEET1_RT_T0_S9_S6_, symObjAddr: 0x22910, symBinAddr: 0x1000273BC, symSize: 0x78 }
  - { offsetInCU: 0x447BE, offset: 0x447BE, size: 0x8, addend: 0x0, symName: __ZNSt3__14swapB8ue170006IPjEENS_9enable_ifIXaasr21is_move_constructibleIT_EE5valuesr18is_move_assignableIS3_EE5valueEvE4typeERS3_S6_, symObjAddr: 0x229D4, symBinAddr: 0x100027480, symSize: 0x3C }
  - { offsetInCU: 0x4480F, offset: 0x4480F, size: 0x8, addend: 0x0, symName: __ZNSt3__14moveB8ue170006INS_16reverse_iteratorIPjEES3_EET0_T_S5_S4_, symObjAddr: 0x22B04, symBinAddr: 0x1000275B0, symSize: 0x78 }
  - { offsetInCU: 0x44869, offset: 0x44869, size: 0x8, addend: 0x0, symName: __ZNSt3__16__moveB8ue170006INS_17_ClassicAlgPolicyENS_16reverse_iteratorIPjEES4_S4_EENS_4pairIT0_T2_EES6_T1_S7_, symObjAddr: 0x22B7C, symBinAddr: 0x100027628, symSize: 0x64 }
  - { offsetInCU: 0x448D5, offset: 0x448D5, size: 0x8, addend: 0x0, symName: __ZNSt3__123__dispatch_copy_or_moveB8ue170006INS_17_ClassicAlgPolicyENS_11__move_loopIS1_EENS_14__move_trivialENS_16reverse_iteratorIPjEES7_S7_EENS_4pairIT2_T4_EES9_T3_SA_, symObjAddr: 0x22BE0, symBinAddr: 0x10002768C, symSize: 0x64 }
  - { offsetInCU: 0x44953, offset: 0x44953, size: 0x8, addend: 0x0, symName: __ZNSt3__121__unwrap_and_dispatchB8ue170006INS_10__overloadINS_11__move_loopINS_17_ClassicAlgPolicyEEENS_14__move_trivialEEENS_16reverse_iteratorIPjEES9_S9_Li0EEENS_4pairIT0_T2_EESB_T1_SC_, symObjAddr: 0x22C44, symBinAddr: 0x1000276F0, symSize: 0x12C }
  - { offsetInCU: 0x449E3, offset: 0x449E3, size: 0x8, addend: 0x0, symName: __ZNSt3__114__unwrap_rangeB8ue170006INS_16reverse_iteratorIPjEES3_EENS_4pairIT0_S5_EET_S7_, symObjAddr: 0x22D70, symBinAddr: 0x10002781C, symSize: 0x84 }
  - { offsetInCU: 0x44B03, offset: 0x44B03, size: 0x8, addend: 0x0, symName: __ZNSt3__113__unwrap_iterB8ue170006INS_16reverse_iteratorIPjEENS_18__unwrap_iter_implIS3_Lb0EEELi0EEEDTclsrT0_8__unwrapclsr3stdE7declvalIT_EEEES7_, symObjAddr: 0x22E94, symBinAddr: 0x100027940, symSize: 0x44 }
  - { offsetInCU: 0x44B47, offset: 0x44B47, size: 0x8, addend: 0x0, symName: __ZNSt3__19make_pairB8ue170006INS_16reverse_iteratorIPjEES3_EENS_4pairINS_18__unwrap_ref_decayIT_E4typeENS5_IT0_E4typeEEEOS6_OS9_, symObjAddr: 0x22ED8, symBinAddr: 0x100027984, symSize: 0x38 }
  - { offsetInCU: 0x44B96, offset: 0x44B96, size: 0x8, addend: 0x0, symName: __ZNSt3__114__rewrap_rangeB8ue170006INS_16reverse_iteratorIPjEES3_EET_S4_T0_, symObjAddr: 0x22F10, symBinAddr: 0x1000279BC, symSize: 0x5C }
  - { offsetInCU: 0x44BE2, offset: 0x44BE2, size: 0x8, addend: 0x0, symName: __ZNSt3__113__rewrap_iterB8ue170006INS_16reverse_iteratorIPjEES3_NS_18__unwrap_iter_implIS3_Lb0EEEEET_S6_T0_, symObjAddr: 0x22F6C, symBinAddr: 0x100027A18, symSize: 0x74 }
  - { offsetInCU: 0x44C37, offset: 0x44C37, size: 0x8, addend: 0x0, symName: __ZNSt3__1neB8ue170006IPjS1_EEbRKNS_16reverse_iteratorIT_EERKNS2_IT0_EE, symObjAddr: 0x22FE0, symBinAddr: 0x100027A8C, symSize: 0x48 }
  - { offsetInCU: 0x44CEF, offset: 0x44CEF, size: 0x8, addend: 0x0, symName: __ZNSt3__1neB8ue170006IPNS_10shared_ptrI3TexEEEEbRKNS_11__wrap_iterIT_EES9_, symObjAddr: 0x23514, symBinAddr: 0x100027FC0, symSize: 0x34 }
  - { offsetInCU: 0x44D32, offset: 0x44D32, size: 0x8, addend: 0x0, symName: __ZNSt3__1plB8ue170006IcNS_11char_traitsIcEENS_9allocatorIcEEEENS_12basic_stringIT_T0_T1_EEOS9_SA_, symObjAddr: 0x23560, symBinAddr: 0x10002800C, symSize: 0x40 }
  - { offsetInCU: 0x44D8A, offset: 0x44D8A, size: 0x8, addend: 0x0, symName: __ZNSt3__1plB8ue170006IcNS_11char_traitsIcEENS_9allocatorIcEEEENS_12basic_stringIT_T0_T1_EERKS9_S6_, symObjAddr: 0x235A0, symBinAddr: 0x10002804C, symSize: 0x110 }
  - { offsetInCU: 0x44E1C, offset: 0x44E1C, size: 0x8, addend: 0x0, symName: __ZNSt3__1eqB8ue170006IPNS_10shared_ptrI3TexEEEEbRKNS_11__wrap_iterIT_EES9_, symObjAddr: 0x23984, symBinAddr: 0x100028430, symSize: 0x48 }
  - { offsetInCU: 0x4504B, offset: 0x4504B, size: 0x8, addend: 0x0, symName: __ZNSt3__14copyB8ue170006IPKcPcEET0_T_S5_S4_, symObjAddr: 0x24180, symBinAddr: 0x100028C2C, symSize: 0x40 }
  - { offsetInCU: 0x450A5, offset: 0x450A5, size: 0x8, addend: 0x0, symName: __ZNSt3__16__copyB8ue170006INS_17_ClassicAlgPolicyEPKcS3_PcEENS_4pairIT0_T2_EES6_T1_S7_, symObjAddr: 0x241C0, symBinAddr: 0x100028C6C, symSize: 0x44 }
  - { offsetInCU: 0x45111, offset: 0x45111, size: 0x8, addend: 0x0, symName: __ZNSt3__123__dispatch_copy_or_moveB8ue170006INS_17_ClassicAlgPolicyENS_11__copy_loopIS1_EENS_14__copy_trivialEPKcS6_PcEENS_4pairIT2_T4_EES9_T3_SA_, symObjAddr: 0x24204, symBinAddr: 0x100028CB0, symSize: 0x44 }
  - { offsetInCU: 0x4518F, offset: 0x4518F, size: 0x8, addend: 0x0, symName: __ZNSt3__121__unwrap_and_dispatchB8ue170006INS_10__overloadINS_11__copy_loopINS_17_ClassicAlgPolicyEEENS_14__copy_trivialEEEPKcS8_PcLi0EEENS_4pairIT0_T2_EESB_T1_SC_, symObjAddr: 0x24248, symBinAddr: 0x100028CF4, symSize: 0xB4 }
  - { offsetInCU: 0x4521D, offset: 0x4521D, size: 0x8, addend: 0x0, symName: __ZNSt3__114__unwrap_rangeB8ue170006IPKcS2_EENS_4pairIT0_S4_EET_S6_, symObjAddr: 0x242FC, symBinAddr: 0x100028DA8, symSize: 0x60 }
  - { offsetInCU: 0x454A2, offset: 0x454A2, size: 0x8, addend: 0x0, symName: __ZNSt3__113__unwrap_iterB8ue170006IPcNS_18__unwrap_iter_implIS1_Lb1EEELi0EEEDTclsrT0_8__unwrapclsr3stdE7declvalIT_EEEES5_, symObjAddr: 0x243A4, symBinAddr: 0x100028E50, symSize: 0x24 }
  - { offsetInCU: 0x454E6, offset: 0x454E6, size: 0x8, addend: 0x0, symName: __ZNSt3__19make_pairB8ue170006IPKcPcEENS_4pairINS_18__unwrap_ref_decayIT_E4typeENS5_IT0_E4typeEEEOS6_OS9_, symObjAddr: 0x243C8, symBinAddr: 0x100028E74, symSize: 0x38 }
  - { offsetInCU: 0x45535, offset: 0x45535, size: 0x8, addend: 0x0, symName: __ZNSt3__114__rewrap_rangeB8ue170006IPKcS2_EET_S3_T0_, symObjAddr: 0x24400, symBinAddr: 0x100028EAC, symSize: 0x2C }
  - { offsetInCU: 0x45581, offset: 0x45581, size: 0x8, addend: 0x0, symName: __ZNSt3__113__rewrap_iterB8ue170006IPcS1_NS_18__unwrap_iter_implIS1_Lb1EEEEET_S4_T0_, symObjAddr: 0x2442C, symBinAddr: 0x100028ED8, symSize: 0x3C }
  - { offsetInCU: 0x455D6, offset: 0x455D6, size: 0x8, addend: 0x0, symName: __ZNSt3__19make_pairB8ue170006IPKcS2_EENS_4pairINS_18__unwrap_ref_decayIT_E4typeENS4_IT0_E4typeEEEOS5_OS8_, symObjAddr: 0x24468, symBinAddr: 0x100028F14, symSize: 0x38 }
  - { offsetInCU: 0x45625, offset: 0x45625, size: 0x8, addend: 0x0, symName: __ZNSt3__113__unwrap_iterB8ue170006IPKcNS_18__unwrap_iter_implIS2_Lb1EEELi0EEEDTclsrT0_8__unwrapclsr3stdE7declvalIT_EEEES6_, symObjAddr: 0x244A0, symBinAddr: 0x100028F4C, symSize: 0x24 }
  - { offsetInCU: 0x45790, offset: 0x45790, size: 0x8, addend: 0x0, symName: __ZNSt3__119__copy_trivial_implB8ue170006IKccEENS_4pairIPT_PT0_EES4_S4_S6_, symObjAddr: 0x24558, symBinAddr: 0x100029004, symSize: 0x78 }
  - { offsetInCU: 0x457F8, offset: 0x457F8, size: 0x8, addend: 0x0, symName: __ZNSt3__119__constexpr_memmoveB8ue170006IcKcLi0EEEPT_S3_PT0_NS_15__element_countE, symObjAddr: 0x245D0, symBinAddr: 0x10002907C, symSize: 0x64 }
  - { offsetInCU: 0x45866, offset: 0x45866, size: 0x8, addend: 0x0, symName: __ZNSt3__19make_pairB8ue170006IRPKcPcEENS_4pairINS_18__unwrap_ref_decayIT_E4typeENS6_IT0_E4typeEEEOS7_OSA_, symObjAddr: 0x24634, symBinAddr: 0x1000290E0, symSize: 0x38 }
  - { offsetInCU: 0x45908, offset: 0x45908, size: 0x8, addend: 0x0, symName: __ZNSt3__113__rewrap_iterB8ue170006IPKcS2_NS_18__unwrap_iter_implIS2_Lb1EEEEET_S5_T0_, symObjAddr: 0x24770, symBinAddr: 0x10002921C, symSize: 0x3C }
  - { offsetInCU: 0x4595D, offset: 0x4595D, size: 0x8, addend: 0x0, symName: __ZNSt3__16fill_nB8ue170006IPcmcEET_S2_T0_RKT1_, symObjAddr: 0x2483C, symBinAddr: 0x1000292E8, symSize: 0x44 }
  - { offsetInCU: 0x459C0, offset: 0x459C0, size: 0x8, addend: 0x0, symName: __ZNSt3__18__fill_nB8ue170006IPcmcEET_S2_T0_RKT1_, symObjAddr: 0x24880, symBinAddr: 0x10002932C, symSize: 0x64 }
  - { offsetInCU: 0x45A23, offset: 0x45A23, size: 0x8, addend: 0x0, symName: __ZNSt3__121__convert_to_integralB8ue170006Em, symObjAddr: 0x248E4, symBinAddr: 0x100029390, symSize: 0x14 }
  - { offsetInCU: 0x45A4F, offset: 0x45A4F, size: 0x8, addend: 0x0, symName: __ZNSt3__112__to_addressB8ue170006INS_10shared_ptrI3TexEEEEPT_S5_, symObjAddr: 0x24B58, symBinAddr: 0x100029604, symSize: 0x14 }
  - { offsetInCU: 0x45A84, offset: 0x45A84, size: 0x8, addend: 0x0, symName: __ZNSt3__119__allocate_at_leastB8ue170006INS_9allocatorINS_10shared_ptrI3TexEEEEEENS_19__allocation_resultINS_16allocator_traitsIT_E7pointerEEERS8_m, symObjAddr: 0x25184, symBinAddr: 0x100029C30, symSize: 0x40 }
  - { offsetInCU: 0x45AC7, offset: 0x45AC7, size: 0x8, addend: 0x0, symName: __ZNSt3__142__uninitialized_allocator_move_if_noexceptB8ue170006INS_9allocatorINS_10shared_ptrI3TexEEEENS_16reverse_iteratorIPS4_EES8_S8_EET2_RT_T0_T1_S9_, symObjAddr: 0x253F0, symBinAddr: 0x100029E9C, symSize: 0x12C }
  - { offsetInCU: 0x45B67, offset: 0x45B67, size: 0x8, addend: 0x0, symName: __ZNSt3__14swapB8ue170006IPNS_10shared_ptrI3TexEEEENS_9enable_ifIXaasr21is_move_constructibleIT_EE5valuesr18is_move_assignableIS6_EE5valueEvE4typeERS6_S9_, symObjAddr: 0x25568, symBinAddr: 0x10002A014, symSize: 0x3C }
  - { offsetInCU: 0x45BB8, offset: 0x45BB8, size: 0x8, addend: 0x0, symName: __ZNSt3__122__make_exception_guardB8ue170006INS_29_AllocatorDestroyRangeReverseINS_9allocatorINS_10shared_ptrI3TexEEEENS_16reverse_iteratorIPS5_EEEEEENS_28__exception_guard_exceptionsIT_EESC_, symObjAddr: 0x25698, symBinAddr: 0x10002A144, symSize: 0x4C }
  - { offsetInCU: 0x45BEE, offset: 0x45BEE, size: 0x8, addend: 0x0, symName: __ZNSt3__1neB8ue170006IPNS_10shared_ptrI3TexEES4_EEbRKNS_16reverse_iteratorIT_EERKNS5_IT0_EE, symObjAddr: 0x25728, symBinAddr: 0x10002A1D4, symSize: 0x48 }
  - { offsetInCU: 0x45C3A, offset: 0x45C3A, size: 0x8, addend: 0x0, symName: __ZNSt3__112__to_addressB8ue170006INS_16reverse_iteratorIPNS_10shared_ptrI3TexEEEEvEEu7__decayIDTclsr19__to_address_helperIT_EE6__callclsr3stdE7declvalIRKS7_EEEEES9_, symObjAddr: 0x257A4, symBinAddr: 0x10002A250, symSize: 0x24 }
  - { offsetInCU: 0x45C9B, offset: 0x45C9B, size: 0x8, addend: 0x0, symName: __ZNSt3__119__allocator_destroyB8ue170006INS_9allocatorINS_10shared_ptrI3TexEEEENS_16reverse_iteratorINS6_IPS4_EEEES9_EEvRT_T0_T1_, symObjAddr: 0x25AF8, symBinAddr: 0x10002A5A4, symSize: 0x70 }
  - { offsetInCU: 0x45D00, offset: 0x45D00, size: 0x8, addend: 0x0, symName: __ZNSt3__1neB8ue170006INS_16reverse_iteratorIPNS_10shared_ptrI3TexEEEES6_EEbRKNS1_IT_EERKNS1_IT0_EE, symObjAddr: 0x25BA4, symBinAddr: 0x10002A650, symSize: 0x60 }
  - { offsetInCU: 0x45D4C, offset: 0x45D4C, size: 0x8, addend: 0x0, symName: __ZNSt3__112__to_addressB8ue170006INS_16reverse_iteratorINS1_IPNS_10shared_ptrI3TexEEEEEEvEEu7__decayIDTclsr19__to_address_helperIT_EE6__callclsr3stdE7declvalIRKS8_EEEEESA_, symObjAddr: 0x25C30, symBinAddr: 0x10002A6DC, symSize: 0x24 }
  - { offsetInCU: 0x45DAC, offset: 0x45DAC, size: 0x8, addend: 0x0, symName: __ZNSt3__1plB8ue170006IcNS_11char_traitsIcEENS_9allocatorIcEEEENS_12basic_stringIT_T0_T1_EEOS9_RKS9_, symObjAddr: 0x26034, symBinAddr: 0x10002AAE0, symSize: 0x40 }
  - { offsetInCU: 0x45E04, offset: 0x45E04, size: 0x8, addend: 0x0, symName: __ZNSt3__1plB8ue170006IcNS_11char_traitsIcEENS_9allocatorIcEEEENS_12basic_stringIT_T0_T1_EERKS9_PKS6_, symObjAddr: 0x26074, symBinAddr: 0x10002AB20, symSize: 0x11C }
  - { offsetInCU: 0x45EA5, offset: 0x45EA5, size: 0x8, addend: 0x0, symName: __ZNSt3__118__constexpr_strlenB8ue170006EPKc, symObjAddr: 0x261C4, symBinAddr: 0x10002AC70, symSize: 0x24 }
  - { offsetInCU: 0x45ED1, offset: 0x45ED1, size: 0x8, addend: 0x0, symName: __ZNSt3__18distanceB8ue170006INS_11__wrap_iterIPNS_10shared_ptrI3TexEEEEEENS_15iterator_traitsIT_E15difference_typeES8_S8_, symObjAddr: 0x264F8, symBinAddr: 0x10002AFA4, symSize: 0x3C }
  - { offsetInCU: 0x45F14, offset: 0x45F14, size: 0x8, addend: 0x0, symName: __ZNSt3__1miB8ue170006IPKNS_10shared_ptrI3TexEEPS3_EEDTmicldtfp_4baseEcldtfp0_4baseEERKNS_11__wrap_iterIT_EERKNS8_IT0_EE, symObjAddr: 0x26534, symBinAddr: 0x10002AFE0, symSize: 0x48 }
  - { offsetInCU: 0x45F60, offset: 0x45F60, size: 0x8, addend: 0x0, symName: __ZNSt3__14nextB8ue170006INS_11__wrap_iterIPNS_10shared_ptrI3TexEEEEEENS_9enable_ifIXsr29__has_input_iterator_categoryIT_EE5valueES8_E4typeES8_NS_15iterator_traitsIS8_E15difference_typeE, symObjAddr: 0x2657C, symBinAddr: 0x10002B028, symSize: 0x3C }
  - { offsetInCU: 0x45FA3, offset: 0x45FA3, size: 0x8, addend: 0x0, symName: __ZNSt3__14copyB8ue170006INS_11__wrap_iterIPNS_10shared_ptrI3TexEEEES5_EET0_T_S8_S7_, symObjAddr: 0x267B8, symBinAddr: 0x10002B264, symSize: 0x50 }
  - { offsetInCU: 0x45FFD, offset: 0x45FFD, size: 0x8, addend: 0x0, symName: __ZNSt3__121__convert_to_integralB8ue170006El, symObjAddr: 0x26A6C, symBinAddr: 0x10002B518, symSize: 0x14 }
  - { offsetInCU: 0x46029, offset: 0x46029, size: 0x8, addend: 0x0, symName: __ZNSt3__19__advanceB8ue170006INS_11__wrap_iterIPNS_10shared_ptrI3TexEEEEEEvRT_NS_15iterator_traitsIS7_E15difference_typeENS_26random_access_iterator_tagE, symObjAddr: 0x26A80, symBinAddr: 0x10002B52C, symSize: 0x2C }
  - { offsetInCU: 0x46073, offset: 0x46073, size: 0x8, addend: 0x0, symName: __ZNSt3__130__uninitialized_allocator_copyB8ue170006INS_9allocatorINS_10shared_ptrI3TexEEEENS_11__wrap_iterIPS4_EES8_S7_EET2_RT_T0_T1_S9_, symObjAddr: 0x26AD4, symBinAddr: 0x10002B580, symSize: 0x90 }
  - { offsetInCU: 0x46110, offset: 0x46110, size: 0x8, addend: 0x0, symName: __ZNSt3__114__unwrap_rangeB8ue170006INS_11__wrap_iterIPNS_10shared_ptrI3TexEEEES5_EENS_4pairIT0_S8_EET_SA_, symObjAddr: 0x26B64, symBinAddr: 0x10002B610, symSize: 0x70 }
  - { offsetInCU: 0x4615C, offset: 0x4615C, size: 0x8, addend: 0x0, symName: __ZNSt3__135__uninitialized_allocator_copy_implB8ue170006INS_9allocatorINS_10shared_ptrI3TexEEEEPS4_S6_S6_EET2_RT_T0_T1_S7_, symObjAddr: 0x26BD4, symBinAddr: 0x10002B680, symSize: 0xF4 }
  - { offsetInCU: 0x461FA, offset: 0x461FA, size: 0x8, addend: 0x0, symName: __ZNSt3__113__unwrap_iterB8ue170006IPNS_10shared_ptrI3TexEENS_18__unwrap_iter_implIS4_Lb1EEELi0EEEDTclsrT0_8__unwrapclsr3stdE7declvalIT_EEEES8_, symObjAddr: 0x26CC8, symBinAddr: 0x10002B774, symSize: 0x24 }
  - { offsetInCU: 0x4623E, offset: 0x4623E, size: 0x8, addend: 0x0, symName: __ZNSt3__113__rewrap_iterB8ue170006IPNS_10shared_ptrI3TexEES4_NS_18__unwrap_iter_implIS4_Lb1EEEEET_S7_T0_, symObjAddr: 0x26CEC, symBinAddr: 0x10002B798, symSize: 0x3C }
  - { offsetInCU: 0x46293, offset: 0x46293, size: 0x8, addend: 0x0, symName: __ZNSt3__19make_pairB8ue170006IPNS_10shared_ptrI3TexEES4_EENS_4pairINS_18__unwrap_ref_decayIT_E4typeENS6_IT0_E4typeEEEOS7_OSA_, symObjAddr: 0x26D28, symBinAddr: 0x10002B7D4, symSize: 0x38 }
  - { offsetInCU: 0x462E2, offset: 0x462E2, size: 0x8, addend: 0x0, symName: __ZNSt3__113__unwrap_iterB8ue170006INS_11__wrap_iterIPNS_10shared_ptrI3TexEEEENS_18__unwrap_iter_implIS6_Lb1EEELi0EEEDTclsrT0_8__unwrapclsr3stdE7declvalIT_EEEESA_, symObjAddr: 0x26D60, symBinAddr: 0x10002B80C, symSize: 0x2C }
  - { offsetInCU: 0x4644D, offset: 0x4644D, size: 0x8, addend: 0x0, symName: __ZNSt3__112__to_addressB8ue170006INS_11__wrap_iterIPNS_10shared_ptrI3TexEEEEvEEu7__decayIDTclsr19__to_address_helperIT_EE6__callclsr3stdE7declvalIRKS7_EEEEES9_, symObjAddr: 0x26E24, symBinAddr: 0x10002B8D0, symSize: 0x24 }
  - { offsetInCU: 0x46529, offset: 0x46529, size: 0x8, addend: 0x0, symName: __ZNSt3__122__make_exception_guardB8ue170006INS_29_AllocatorDestroyRangeReverseINS_9allocatorINS_10shared_ptrI3TexEEEEPS5_EEEENS_28__exception_guard_exceptionsIT_EESA_, symObjAddr: 0x26EA4, symBinAddr: 0x10002B950, symSize: 0x4C }
  - { offsetInCU: 0x46560, offset: 0x46560, size: 0x8, addend: 0x0, symName: __ZNSt3__119__allocator_destroyB8ue170006INS_9allocatorINS_10shared_ptrI3TexEEEENS_16reverse_iteratorIPS4_EES8_EEvRT_T0_T1_, symObjAddr: 0x27134, symBinAddr: 0x10002BBE0, symSize: 0x70 }
  - { offsetInCU: 0x46616, offset: 0x46616, size: 0x8, addend: 0x0, symName: __ZNSt3__113move_backwardB8ue170006IPNS_10shared_ptrI3TexEES4_EET0_T_S6_S5_, symObjAddr: 0x27218, symBinAddr: 0x10002BCC4, symSize: 0x40 }
  - { offsetInCU: 0x46670, offset: 0x46670, size: 0x8, addend: 0x0, symName: __ZNSt3__115__move_backwardB8ue170006INS_17_ClassicAlgPolicyEPNS_10shared_ptrI3TexEES5_S5_EENS_4pairIT0_T2_EES7_T1_S8_, symObjAddr: 0x27258, symBinAddr: 0x10002BD04, symSize: 0x44 }
  - { offsetInCU: 0x466DC, offset: 0x466DC, size: 0x8, addend: 0x0, symName: __ZNSt3__123__dispatch_copy_or_moveB8ue170006INS_17_ClassicAlgPolicyENS_20__move_backward_loopIS1_EENS_23__move_backward_trivialEPNS_10shared_ptrI3TexEES8_S8_EENS_4pairIT2_T4_EESA_T3_SB_, symObjAddr: 0x2729C, symBinAddr: 0x10002BD48, symSize: 0x44 }
  - { offsetInCU: 0x4675A, offset: 0x4675A, size: 0x8, addend: 0x0, symName: __ZNSt3__121__unwrap_and_dispatchB8ue170006INS_10__overloadINS_20__move_backward_loopINS_17_ClassicAlgPolicyEEENS_23__move_backward_trivialEEEPNS_10shared_ptrI3TexEESA_SA_Li0EEENS_4pairIT0_T2_EESC_T1_SD_, symObjAddr: 0x272E0, symBinAddr: 0x10002BD8C, symSize: 0xB4 }
  - { offsetInCU: 0x467E8, offset: 0x467E8, size: 0x8, addend: 0x0, symName: __ZNSt3__114__unwrap_rangeB8ue170006IPNS_10shared_ptrI3TexEES4_EENS_4pairIT0_S6_EET_S8_, symObjAddr: 0x27394, symBinAddr: 0x10002BE40, symSize: 0x60 }
  - { offsetInCU: 0x46886, offset: 0x46886, size: 0x8, addend: 0x0, symName: __ZNSt3__114__rewrap_rangeB8ue170006IPNS_10shared_ptrI3TexEES4_EET_S5_T0_, symObjAddr: 0x27498, symBinAddr: 0x10002BF44, symSize: 0x2C }
  - { offsetInCU: 0x468F6, offset: 0x468F6, size: 0x8, addend: 0x0, symName: __ZNSt3__14swapB8ue170006IP3TexEENS_9enable_ifIXaasr21is_move_constructibleIT_EE5valuesr18is_move_assignableIS4_EE5valueEvE4typeERS4_S7_, symObjAddr: 0x2759C, symBinAddr: 0x10002C048, symSize: 0x3C }
  - { offsetInCU: 0x46947, offset: 0x46947, size: 0x8, addend: 0x0, symName: __ZNSt3__14swapB8ue170006IPNS_19__shared_weak_countEEENS_9enable_ifIXaasr21is_move_constructibleIT_EE5valuesr18is_move_assignableIS4_EE5valueEvE4typeERS4_S7_, symObjAddr: 0x275D8, symBinAddr: 0x10002C084, symSize: 0x3C }
  - { offsetInCU: 0x46998, offset: 0x46998, size: 0x8, addend: 0x0, symName: __ZNSt3__16__copyB8ue170006INS_17_ClassicAlgPolicyENS_11__wrap_iterIPNS_10shared_ptrI3TexEEEES7_S6_EENS_4pairIT0_T2_EES9_T1_SA_, symObjAddr: 0x27614, symBinAddr: 0x10002C0C0, symSize: 0x54 }
  - { offsetInCU: 0x46A04, offset: 0x46A04, size: 0x8, addend: 0x0, symName: __ZNSt3__123__dispatch_copy_or_moveB8ue170006INS_17_ClassicAlgPolicyENS_11__copy_loopIS1_EENS_14__copy_trivialENS_11__wrap_iterIPNS_10shared_ptrI3TexEEEESA_S9_EENS_4pairIT2_T4_EESC_T3_SD_, symObjAddr: 0x27668, symBinAddr: 0x10002C114, symSize: 0x54 }
  - { offsetInCU: 0x46A82, offset: 0x46A82, size: 0x8, addend: 0x0, symName: __ZNSt3__121__unwrap_and_dispatchB8ue170006INS_10__overloadINS_11__copy_loopINS_17_ClassicAlgPolicyEEENS_14__copy_trivialEEENS_11__wrap_iterIPNS_10shared_ptrI3TexEEEESC_SB_Li0EEENS_4pairIT0_T2_EESE_T1_SF_, symObjAddr: 0x276BC, symBinAddr: 0x10002C168, symSize: 0xCC }
  - { offsetInCU: 0x46B62, offset: 0x46B62, size: 0x8, addend: 0x0, symName: __ZNSt3__19make_pairB8ue170006INS_11__wrap_iterIPNS_10shared_ptrI3TexEEEES5_EENS_4pairINS_18__unwrap_ref_decayIT_E4typeENS8_IT0_E4typeEEEOS9_OSC_, symObjAddr: 0x27810, symBinAddr: 0x10002C2BC, symSize: 0x38 }
  - { offsetInCU: 0x46BB1, offset: 0x46BB1, size: 0x8, addend: 0x0, symName: __ZNSt3__114__rewrap_rangeB8ue170006INS_11__wrap_iterIPNS_10shared_ptrI3TexEEEES5_EET_S7_T0_, symObjAddr: 0x27848, symBinAddr: 0x10002C2F4, symSize: 0x3C }
  - { offsetInCU: 0x46CD1, offset: 0x46CD1, size: 0x8, addend: 0x0, symName: __ZNSt3__113__rewrap_iterB8ue170006INS_11__wrap_iterIPNS_10shared_ptrI3TexEEEES5_NS_18__unwrap_iter_implIS6_Lb1EEEEET_S9_T0_, symObjAddr: 0x278F4, symBinAddr: 0x10002C3A0, symSize: 0x4C }
  - { offsetInCU: 0x46D26, offset: 0x46D26, size: 0x8, addend: 0x0, symName: __ZNSt3__142__uninitialized_allocator_move_if_noexceptB8ue170006INS_9allocatorINS_10shared_ptrI3TexEEEEPS4_S6_S6_EET2_RT_T0_T1_S7_, symObjAddr: 0x27AA4, symBinAddr: 0x10002C550, symSize: 0xF4 }
  - { offsetInCU: 0x46DC4, offset: 0x46DC4, size: 0x8, addend: 0x0, symName: __ZNSt3__110__distanceB8ue170006INS_11__wrap_iterIPNS_10shared_ptrI3TexEEEEEENS_15iterator_traitsIT_E15difference_typeES8_S8_NS_26random_access_iterator_tagE, symObjAddr: 0x27BEC, symBinAddr: 0x10002C698, symSize: 0x30 }
  - { offsetInCU: 0x46E12, offset: 0x46E12, size: 0x8, addend: 0x0, symName: __ZNSt3__1miB8ue170006IPNS_10shared_ptrI3TexEES4_EEDTmicldtfp_4baseEcldtfp0_4baseEERKNS_11__wrap_iterIT_EERKNS6_IT0_EE, symObjAddr: 0x27C1C, symBinAddr: 0x10002C6C8, symSize: 0x48 }
  - { offsetInCU: 0x46E5E, offset: 0x46E5E, size: 0x8, addend: 0x0, symName: __ZNSt3__112__to_addressB8ue170006I9MeshColorEEPT_S3_, symObjAddr: 0x28064, symBinAddr: 0x10002CB10, symSize: 0x14 }
  - { offsetInCU: 0x46E93, offset: 0x46E93, size: 0x8, addend: 0x0, symName: __ZNSt3__119__allocate_at_leastB8ue170006INS_9allocatorI9MeshColorEEEENS_19__allocation_resultINS_16allocator_traitsIT_E7pointerEEERS6_m, symObjAddr: 0x2872C, symBinAddr: 0x10002D1D8, symSize: 0x40 }
  - { offsetInCU: 0x46ED6, offset: 0x46ED6, size: 0x8, addend: 0x0, symName: __ZNSt3__142__uninitialized_allocator_move_if_noexceptB8ue170006INS_9allocatorI9MeshColorEENS_16reverse_iteratorIPS2_EES6_S6_EET2_RT_T0_T1_S7_, symObjAddr: 0x289B8, symBinAddr: 0x10002D464, symSize: 0x12C }
  - { offsetInCU: 0x46F76, offset: 0x46F76, size: 0x8, addend: 0x0, symName: __ZNSt3__14swapB8ue170006IP9MeshColorEENS_9enable_ifIXaasr21is_move_constructibleIT_EE5valuesr18is_move_assignableIS4_EE5valueEvE4typeERS4_S7_, symObjAddr: 0x28B30, symBinAddr: 0x10002D5DC, symSize: 0x3C }
  - { offsetInCU: 0x46FC7, offset: 0x46FC7, size: 0x8, addend: 0x0, symName: __ZNSt3__122__make_exception_guardB8ue170006INS_29_AllocatorDestroyRangeReverseINS_9allocatorI9MeshColorEENS_16reverse_iteratorIPS3_EEEEEENS_28__exception_guard_exceptionsIT_EESA_, symObjAddr: 0x28C7C, symBinAddr: 0x10002D728, symSize: 0x4C }
  - { offsetInCU: 0x46FFD, offset: 0x46FFD, size: 0x8, addend: 0x0, symName: __ZNSt3__1neB8ue170006IP9MeshColorS2_EEbRKNS_16reverse_iteratorIT_EERKNS3_IT0_EE, symObjAddr: 0x28D0C, symBinAddr: 0x10002D7B8, symSize: 0x48 }
  - { offsetInCU: 0x47049, offset: 0x47049, size: 0x8, addend: 0x0, symName: __ZNSt3__112__to_addressB8ue170006INS_16reverse_iteratorIP9MeshColorEEvEEu7__decayIDTclsr19__to_address_helperIT_EE6__callclsr3stdE7declvalIRKS5_EEEEES7_, symObjAddr: 0x28D88, symBinAddr: 0x10002D834, symSize: 0x24 }
  - { offsetInCU: 0x470AA, offset: 0x470AA, size: 0x8, addend: 0x0, symName: __ZNSt3__119__allocator_destroyB8ue170006INS_9allocatorI9MeshColorEENS_16reverse_iteratorINS4_IPS2_EEEES7_EEvRT_T0_T1_, symObjAddr: 0x290EC, symBinAddr: 0x10002DB98, symSize: 0x70 }
  - { offsetInCU: 0x4710F, offset: 0x4710F, size: 0x8, addend: 0x0, symName: __ZNSt3__1neB8ue170006INS_16reverse_iteratorIP9MeshColorEES4_EEbRKNS1_IT_EERKNS1_IT0_EE, symObjAddr: 0x29198, symBinAddr: 0x10002DC44, symSize: 0x60 }
  - { offsetInCU: 0x4715B, offset: 0x4715B, size: 0x8, addend: 0x0, symName: __ZNSt3__112__to_addressB8ue170006INS_16reverse_iteratorINS1_IP9MeshColorEEEEvEEu7__decayIDTclsr19__to_address_helperIT_EE6__callclsr3stdE7declvalIRKS6_EEEEES8_, symObjAddr: 0x29224, symBinAddr: 0x10002DCD0, symSize: 0x24 }
  - { offsetInCU: 0x471BB, offset: 0x471BB, size: 0x8, addend: 0x0, symName: __ZNSt3__112__to_addressB8ue170006I10MeshScalarEEPT_S3_, symObjAddr: 0x29904, symBinAddr: 0x10002E3B0, symSize: 0x14 }
  - { offsetInCU: 0x471F0, offset: 0x471F0, size: 0x8, addend: 0x0, symName: __ZNSt3__119__allocate_at_leastB8ue170006INS_9allocatorI10MeshScalarEEEENS_19__allocation_resultINS_16allocator_traitsIT_E7pointerEEERS6_m, symObjAddr: 0x29FAC, symBinAddr: 0x10002EA58, symSize: 0x40 }
  - { offsetInCU: 0x47233, offset: 0x47233, size: 0x8, addend: 0x0, symName: __ZNSt3__142__uninitialized_allocator_move_if_noexceptB8ue170006INS_9allocatorI10MeshScalarEENS_16reverse_iteratorIPS2_EES6_S6_EET2_RT_T0_T1_S7_, symObjAddr: 0x2A218, symBinAddr: 0x10002ECC4, symSize: 0x12C }
  - { offsetInCU: 0x472D3, offset: 0x472D3, size: 0x8, addend: 0x0, symName: __ZNSt3__14swapB8ue170006IP10MeshScalarEENS_9enable_ifIXaasr21is_move_constructibleIT_EE5valuesr18is_move_assignableIS4_EE5valueEvE4typeERS4_S7_, symObjAddr: 0x2A390, symBinAddr: 0x10002EE3C, symSize: 0x3C }
  - { offsetInCU: 0x47324, offset: 0x47324, size: 0x8, addend: 0x0, symName: __ZNSt3__122__make_exception_guardB8ue170006INS_29_AllocatorDestroyRangeReverseINS_9allocatorI10MeshScalarEENS_16reverse_iteratorIPS3_EEEEEENS_28__exception_guard_exceptionsIT_EESA_, symObjAddr: 0x2A4C0, symBinAddr: 0x10002EF6C, symSize: 0x4C }
  - { offsetInCU: 0x4735A, offset: 0x4735A, size: 0x8, addend: 0x0, symName: __ZNSt3__1neB8ue170006IP10MeshScalarS2_EEbRKNS_16reverse_iteratorIT_EERKNS3_IT0_EE, symObjAddr: 0x2A550, symBinAddr: 0x10002EFFC, symSize: 0x48 }
  - { offsetInCU: 0x473A6, offset: 0x473A6, size: 0x8, addend: 0x0, symName: __ZNSt3__112__to_addressB8ue170006INS_16reverse_iteratorIP10MeshScalarEEvEEu7__decayIDTclsr19__to_address_helperIT_EE6__callclsr3stdE7declvalIRKS5_EEEEES7_, symObjAddr: 0x2A5CC, symBinAddr: 0x10002F078, symSize: 0x24 }
  - { offsetInCU: 0x47407, offset: 0x47407, size: 0x8, addend: 0x0, symName: __ZNSt3__119__allocator_destroyB8ue170006INS_9allocatorI10MeshScalarEENS_16reverse_iteratorINS4_IPS2_EEEES7_EEvRT_T0_T1_, symObjAddr: 0x2A928, symBinAddr: 0x10002F3D4, symSize: 0x70 }
  - { offsetInCU: 0x4746C, offset: 0x4746C, size: 0x8, addend: 0x0, symName: __ZNSt3__1neB8ue170006INS_16reverse_iteratorIP10MeshScalarEES4_EEbRKNS1_IT_EERKNS1_IT0_EE, symObjAddr: 0x2A9D4, symBinAddr: 0x10002F480, symSize: 0x60 }
  - { offsetInCU: 0x474B8, offset: 0x474B8, size: 0x8, addend: 0x0, symName: __ZNSt3__112__to_addressB8ue170006INS_16reverse_iteratorINS1_IP10MeshScalarEEEEvEEu7__decayIDTclsr19__to_address_helperIT_EE6__callclsr3stdE7declvalIRKS6_EEEEES8_, symObjAddr: 0x2AA60, symBinAddr: 0x10002F50C, symSize: 0x24 }
  - { offsetInCU: 0x47518, offset: 0x47518, size: 0x8, addend: 0x0, symName: __ZNSt3__122__make_exception_guardB8ue170006INS_6vectorI10MeshVertexNS_9allocatorIS2_EEE16__destroy_vectorEEENS_28__exception_guard_exceptionsIT_EES8_, symObjAddr: 0x2B058, symBinAddr: 0x10002FB04, symSize: 0x40 }
  - { offsetInCU: 0x4754D, offset: 0x4754D, size: 0x8, addend: 0x0, symName: __ZNSt3__130__uninitialized_allocator_copyB8ue170006INS_9allocatorI10MeshVertexEEPS2_S4_S4_EET2_RT_T0_T1_S5_, symObjAddr: 0x2B2CC, symBinAddr: 0x10002FD78, symSize: 0x80 }
  - { offsetInCU: 0x475EA, offset: 0x475EA, size: 0x8, addend: 0x0, symName: __ZNSt3__114__unwrap_rangeB8ue170006IP10MeshVertexS2_EENS_4pairIT0_S4_EET_S6_, symObjAddr: 0x2B34C, symBinAddr: 0x10002FDF8, symSize: 0x60 }
  - { offsetInCU: 0x47636, offset: 0x47636, size: 0x8, addend: 0x0, symName: __ZNSt3__135__uninitialized_allocator_copy_implB8ue170006INS_9allocatorI10MeshVertexEES2_S2_S2_LPv0EEEPT2_RT_PT0_SA_S6_, symObjAddr: 0x2B3AC, symBinAddr: 0x10002FE58, symSize: 0x38 }
  - { offsetInCU: 0x476B8, offset: 0x476B8, size: 0x8, addend: 0x0, symName: __ZNSt3__113__unwrap_iterB8ue170006IP10MeshVertexNS_18__unwrap_iter_implIS2_Lb1EEELi0EEEDTclsrT0_8__unwrapclsr3stdE7declvalIT_EEEES6_, symObjAddr: 0x2B3E4, symBinAddr: 0x10002FE90, symSize: 0x24 }
  - { offsetInCU: 0x476FC, offset: 0x476FC, size: 0x8, addend: 0x0, symName: __ZNSt3__113__rewrap_iterB8ue170006IP10MeshVertexS2_NS_18__unwrap_iter_implIS2_Lb1EEEEET_S5_T0_, symObjAddr: 0x2B408, symBinAddr: 0x10002FEB4, symSize: 0x3C }
  - { offsetInCU: 0x47751, offset: 0x47751, size: 0x8, addend: 0x0, symName: __ZNSt3__19make_pairB8ue170006IP10MeshVertexS2_EENS_4pairINS_18__unwrap_ref_decayIT_E4typeENS4_IT0_E4typeEEEOS5_OS8_, symObjAddr: 0x2B444, symBinAddr: 0x10002FEF0, symSize: 0x38 }
  - { offsetInCU: 0x478A3, offset: 0x478A3, size: 0x8, addend: 0x0, symName: __ZNSt3__14copyB8ue170006IP10MeshVertexS2_EET0_T_S4_S3_, symObjAddr: 0x2B4EC, symBinAddr: 0x10002FF98, symSize: 0x40 }
  - { offsetInCU: 0x478FD, offset: 0x478FD, size: 0x8, addend: 0x0, symName: __ZNSt3__16__copyB8ue170006INS_17_ClassicAlgPolicyEP10MeshVertexS3_S3_EENS_4pairIT0_T2_EES5_T1_S6_, symObjAddr: 0x2B52C, symBinAddr: 0x10002FFD8, symSize: 0x44 }
  - { offsetInCU: 0x47969, offset: 0x47969, size: 0x8, addend: 0x0, symName: __ZNSt3__123__dispatch_copy_or_moveB8ue170006INS_17_ClassicAlgPolicyENS_11__copy_loopIS1_EENS_14__copy_trivialEP10MeshVertexS6_S6_EENS_4pairIT2_T4_EES8_T3_S9_, symObjAddr: 0x2B570, symBinAddr: 0x10003001C, symSize: 0x44 }
  - { offsetInCU: 0x479E7, offset: 0x479E7, size: 0x8, addend: 0x0, symName: __ZNSt3__121__unwrap_and_dispatchB8ue170006INS_10__overloadINS_11__copy_loopINS_17_ClassicAlgPolicyEEENS_14__copy_trivialEEEP10MeshVertexS8_S8_Li0EEENS_4pairIT0_T2_EESA_T1_SB_, symObjAddr: 0x2B5B4, symBinAddr: 0x100030060, symSize: 0xB4 }
  - { offsetInCU: 0x47A75, offset: 0x47A75, size: 0x8, addend: 0x0, symName: __ZNSt3__114__rewrap_rangeB8ue170006IP10MeshVertexS2_EET_S3_T0_, symObjAddr: 0x2B6B0, symBinAddr: 0x10003015C, symSize: 0x2C }
  - { offsetInCU: 0x47AC1, offset: 0x47AC1, size: 0x8, addend: 0x0, symName: __ZNSt3__119__copy_trivial_implB8ue170006I10MeshVertexS1_EENS_4pairIPT_PT0_EES4_S4_S6_, symObjAddr: 0x2B6DC, symBinAddr: 0x100030188, symSize: 0x88 }
  - { offsetInCU: 0x47B29, offset: 0x47B29, size: 0x8, addend: 0x0, symName: __ZNSt3__119__constexpr_memmoveB8ue170006I10MeshVertexS1_Li0EEEPT_S3_PT0_NS_15__element_countE, symObjAddr: 0x2B764, symBinAddr: 0x100030210, symSize: 0x68 }
  - { offsetInCU: 0x47B97, offset: 0x47B97, size: 0x8, addend: 0x0, symName: __ZNSt3__19make_pairB8ue170006IRP10MeshVertexS2_EENS_4pairINS_18__unwrap_ref_decayIT_E4typeENS5_IT0_E4typeEEEOS6_OS9_, symObjAddr: 0x2B7CC, symBinAddr: 0x100030278, symSize: 0x38 }
  - { offsetInCU: 0x47C39, offset: 0x47C39, size: 0x8, addend: 0x0, symName: __ZNSt3__122__make_exception_guardB8ue170006INS_6vectorIjNS_9allocatorIjEEE16__destroy_vectorEEENS_28__exception_guard_exceptionsIT_EES7_, symObjAddr: 0x2BC78, symBinAddr: 0x100030724, symSize: 0x40 }
  - { offsetInCU: 0x47C6E, offset: 0x47C6E, size: 0x8, addend: 0x0, symName: __ZNSt3__130__uninitialized_allocator_copyB8ue170006INS_9allocatorIjEEPjS3_S3_EET2_RT_T0_T1_S4_, symObjAddr: 0x2BEE4, symBinAddr: 0x100030990, symSize: 0x80 }
  - { offsetInCU: 0x47D0B, offset: 0x47D0B, size: 0x8, addend: 0x0, symName: __ZNSt3__114__unwrap_rangeB8ue170006IPjS1_EENS_4pairIT0_S3_EET_S5_, symObjAddr: 0x2BF64, symBinAddr: 0x100030A10, symSize: 0x60 }
  - { offsetInCU: 0x47D57, offset: 0x47D57, size: 0x8, addend: 0x0, symName: __ZNSt3__135__uninitialized_allocator_copy_implB8ue170006INS_9allocatorIjEEjjjLPv0EEEPT2_RT_PT0_S9_S5_, symObjAddr: 0x2BFC4, symBinAddr: 0x100030A70, symSize: 0x38 }
  - { offsetInCU: 0x47DD9, offset: 0x47DD9, size: 0x8, addend: 0x0, symName: __ZNSt3__113__unwrap_iterB8ue170006IPjNS_18__unwrap_iter_implIS1_Lb1EEELi0EEEDTclsrT0_8__unwrapclsr3stdE7declvalIT_EEEES5_, symObjAddr: 0x2BFFC, symBinAddr: 0x100030AA8, symSize: 0x24 }
  - { offsetInCU: 0x47E1D, offset: 0x47E1D, size: 0x8, addend: 0x0, symName: __ZNSt3__113__rewrap_iterB8ue170006IPjS1_NS_18__unwrap_iter_implIS1_Lb1EEEEET_S4_T0_, symObjAddr: 0x2C020, symBinAddr: 0x100030ACC, symSize: 0x3C }
  - { offsetInCU: 0x47E72, offset: 0x47E72, size: 0x8, addend: 0x0, symName: __ZNSt3__19make_pairB8ue170006IPjS1_EENS_4pairINS_18__unwrap_ref_decayIT_E4typeENS3_IT0_E4typeEEEOS4_OS7_, symObjAddr: 0x2C05C, symBinAddr: 0x100030B08, symSize: 0x38 }
  - { offsetInCU: 0x47FC4, offset: 0x47FC4, size: 0x8, addend: 0x0, symName: __ZNSt3__14copyB8ue170006IPjS1_EET0_T_S3_S2_, symObjAddr: 0x2C104, symBinAddr: 0x100030BB0, symSize: 0x40 }
  - { offsetInCU: 0x4801E, offset: 0x4801E, size: 0x8, addend: 0x0, symName: __ZNSt3__16__copyB8ue170006INS_17_ClassicAlgPolicyEPjS2_S2_EENS_4pairIT0_T2_EES4_T1_S5_, symObjAddr: 0x2C144, symBinAddr: 0x100030BF0, symSize: 0x44 }
  - { offsetInCU: 0x4808A, offset: 0x4808A, size: 0x8, addend: 0x0, symName: __ZNSt3__123__dispatch_copy_or_moveB8ue170006INS_17_ClassicAlgPolicyENS_11__copy_loopIS1_EENS_14__copy_trivialEPjS5_S5_EENS_4pairIT2_T4_EES7_T3_S8_, symObjAddr: 0x2C188, symBinAddr: 0x100030C34, symSize: 0x44 }
  - { offsetInCU: 0x48108, offset: 0x48108, size: 0x8, addend: 0x0, symName: __ZNSt3__121__unwrap_and_dispatchB8ue170006INS_10__overloadINS_11__copy_loopINS_17_ClassicAlgPolicyEEENS_14__copy_trivialEEEPjS7_S7_Li0EEENS_4pairIT0_T2_EES9_T1_SA_, symObjAddr: 0x2C1CC, symBinAddr: 0x100030C78, symSize: 0xB4 }
  - { offsetInCU: 0x48196, offset: 0x48196, size: 0x8, addend: 0x0, symName: __ZNSt3__114__rewrap_rangeB8ue170006IPjS1_EET_S2_T0_, symObjAddr: 0x2C2C8, symBinAddr: 0x100030D74, symSize: 0x2C }
  - { offsetInCU: 0x481E2, offset: 0x481E2, size: 0x8, addend: 0x0, symName: __ZNSt3__119__copy_trivial_implB8ue170006IjjEENS_4pairIPT_PT0_EES3_S3_S5_, symObjAddr: 0x2C2F4, symBinAddr: 0x100030DA0, symSize: 0x80 }
  - { offsetInCU: 0x4824A, offset: 0x4824A, size: 0x8, addend: 0x0, symName: __ZNSt3__119__constexpr_memmoveB8ue170006IjjLi0EEEPT_S2_PT0_NS_15__element_countE, symObjAddr: 0x2C374, symBinAddr: 0x100030E20, symSize: 0x64 }
  - { offsetInCU: 0x482B8, offset: 0x482B8, size: 0x8, addend: 0x0, symName: __ZNSt3__19make_pairB8ue170006IRPjS1_EENS_4pairINS_18__unwrap_ref_decayIT_E4typeENS4_IT0_E4typeEEEOS5_OS8_, symObjAddr: 0x2C3D8, symBinAddr: 0x100030E84, symSize: 0x38 }
  - { offsetInCU: 0x4835A, offset: 0x4835A, size: 0x8, addend: 0x0, symName: __ZNSt3__122__make_exception_guardB8ue170006INS_6vectorINS_10shared_ptrI3TexEENS_9allocatorIS4_EEE16__destroy_vectorEEENS_28__exception_guard_exceptionsIT_EESA_, symObjAddr: 0x2C87C, symBinAddr: 0x100031328, symSize: 0x40 }
  - { offsetInCU: 0x4838F, offset: 0x4838F, size: 0x8, addend: 0x0, symName: __ZNSt3__130__uninitialized_allocator_copyB8ue170006INS_9allocatorINS_10shared_ptrI3TexEEEEPS4_S6_S6_EET2_RT_T0_T1_S7_, symObjAddr: 0x2CAE8, symBinAddr: 0x100031594, symSize: 0x80 }
  - { offsetInCU: 0x4842C, offset: 0x4842C, size: 0x8, addend: 0x0, symName: __ZNSt3__122__make_exception_guardB8ue170006INS_6vectorI9MeshColorNS_9allocatorIS2_EEE16__destroy_vectorEEENS_28__exception_guard_exceptionsIT_EES8_, symObjAddr: 0x2CEF0, symBinAddr: 0x10003199C, symSize: 0x40 }
  - { offsetInCU: 0x48461, offset: 0x48461, size: 0x8, addend: 0x0, symName: __ZNSt3__130__uninitialized_allocator_copyB8ue170006INS_9allocatorI9MeshColorEEPS2_S4_S4_EET2_RT_T0_T1_S5_, symObjAddr: 0x2D164, symBinAddr: 0x100031C10, symSize: 0x80 }
  - { offsetInCU: 0x484FE, offset: 0x484FE, size: 0x8, addend: 0x0, symName: __ZNSt3__114__unwrap_rangeB8ue170006IP9MeshColorS2_EENS_4pairIT0_S4_EET_S6_, symObjAddr: 0x2D1E4, symBinAddr: 0x100031C90, symSize: 0x60 }
  - { offsetInCU: 0x4854A, offset: 0x4854A, size: 0x8, addend: 0x0, symName: __ZNSt3__135__uninitialized_allocator_copy_implB8ue170006INS_9allocatorI9MeshColorEEPS2_S4_S4_EET2_RT_T0_T1_S5_, symObjAddr: 0x2D244, symBinAddr: 0x100031CF0, symSize: 0xF4 }
  - { offsetInCU: 0x485E8, offset: 0x485E8, size: 0x8, addend: 0x0, symName: __ZNSt3__113__unwrap_iterB8ue170006IP9MeshColorNS_18__unwrap_iter_implIS2_Lb1EEELi0EEEDTclsrT0_8__unwrapclsr3stdE7declvalIT_EEEES6_, symObjAddr: 0x2D338, symBinAddr: 0x100031DE4, symSize: 0x24 }
  - { offsetInCU: 0x4862C, offset: 0x4862C, size: 0x8, addend: 0x0, symName: __ZNSt3__113__rewrap_iterB8ue170006IP9MeshColorS2_NS_18__unwrap_iter_implIS2_Lb1EEEEET_S5_T0_, symObjAddr: 0x2D35C, symBinAddr: 0x100031E08, symSize: 0x3C }
  - { offsetInCU: 0x48681, offset: 0x48681, size: 0x8, addend: 0x0, symName: __ZNSt3__19make_pairB8ue170006IP9MeshColorS2_EENS_4pairINS_18__unwrap_ref_decayIT_E4typeENS4_IT0_E4typeEEEOS5_OS8_, symObjAddr: 0x2D398, symBinAddr: 0x100031E44, symSize: 0x38 }
  - { offsetInCU: 0x487A4, offset: 0x487A4, size: 0x8, addend: 0x0, symName: __ZNSt3__122__make_exception_guardB8ue170006INS_29_AllocatorDestroyRangeReverseINS_9allocatorI9MeshColorEEPS3_EEEENS_28__exception_guard_exceptionsIT_EES8_, symObjAddr: 0x2D440, symBinAddr: 0x100031EEC, symSize: 0x4C }
  - { offsetInCU: 0x487DB, offset: 0x487DB, size: 0x8, addend: 0x0, symName: __ZNSt3__119__allocator_destroyB8ue170006INS_9allocatorI9MeshColorEENS_16reverse_iteratorIPS2_EES6_EEvRT_T0_T1_, symObjAddr: 0x2D6D0, symBinAddr: 0x10003217C, symSize: 0x70 }
  - { offsetInCU: 0x48891, offset: 0x48891, size: 0x8, addend: 0x0, symName: __ZNSt3__122__make_exception_guardB8ue170006INS_6vectorI10MeshScalarNS_9allocatorIS2_EEE16__destroy_vectorEEENS_28__exception_guard_exceptionsIT_EES8_, symObjAddr: 0x2DB44, symBinAddr: 0x1000325F0, symSize: 0x40 }
  - { offsetInCU: 0x488C6, offset: 0x488C6, size: 0x8, addend: 0x0, symName: __ZNSt3__130__uninitialized_allocator_copyB8ue170006INS_9allocatorI10MeshScalarEEPS2_S4_S4_EET2_RT_T0_T1_S5_, symObjAddr: 0x2DDB0, symBinAddr: 0x10003285C, symSize: 0x80 }
  - { offsetInCU: 0x48963, offset: 0x48963, size: 0x8, addend: 0x0, symName: __ZNSt3__114__unwrap_rangeB8ue170006IP10MeshScalarS2_EENS_4pairIT0_S4_EET_S6_, symObjAddr: 0x2DE30, symBinAddr: 0x1000328DC, symSize: 0x60 }
  - { offsetInCU: 0x489AF, offset: 0x489AF, size: 0x8, addend: 0x0, symName: __ZNSt3__135__uninitialized_allocator_copy_implB8ue170006INS_9allocatorI10MeshScalarEEPS2_S4_S4_EET2_RT_T0_T1_S5_, symObjAddr: 0x2DE90, symBinAddr: 0x10003293C, symSize: 0xF4 }
  - { offsetInCU: 0x48A4D, offset: 0x48A4D, size: 0x8, addend: 0x0, symName: __ZNSt3__113__unwrap_iterB8ue170006IP10MeshScalarNS_18__unwrap_iter_implIS2_Lb1EEELi0EEEDTclsrT0_8__unwrapclsr3stdE7declvalIT_EEEES6_, symObjAddr: 0x2DF84, symBinAddr: 0x100032A30, symSize: 0x24 }
  - { offsetInCU: 0x48A91, offset: 0x48A91, size: 0x8, addend: 0x0, symName: __ZNSt3__113__rewrap_iterB8ue170006IP10MeshScalarS2_NS_18__unwrap_iter_implIS2_Lb1EEEEET_S5_T0_, symObjAddr: 0x2DFA8, symBinAddr: 0x100032A54, symSize: 0x3C }
  - { offsetInCU: 0x48AE6, offset: 0x48AE6, size: 0x8, addend: 0x0, symName: __ZNSt3__19make_pairB8ue170006IP10MeshScalarS2_EENS_4pairINS_18__unwrap_ref_decayIT_E4typeENS4_IT0_E4typeEEEOS5_OS8_, symObjAddr: 0x2DFE4, symBinAddr: 0x100032A90, symSize: 0x38 }
  - { offsetInCU: 0x48C09, offset: 0x48C09, size: 0x8, addend: 0x0, symName: __ZNSt3__122__make_exception_guardB8ue170006INS_29_AllocatorDestroyRangeReverseINS_9allocatorI10MeshScalarEEPS3_EEEENS_28__exception_guard_exceptionsIT_EES8_, symObjAddr: 0x2E08C, symBinAddr: 0x100032B38, symSize: 0x4C }
  - { offsetInCU: 0x48C40, offset: 0x48C40, size: 0x8, addend: 0x0, symName: __ZNSt3__119__allocator_destroyB8ue170006INS_9allocatorI10MeshScalarEENS_16reverse_iteratorIPS2_EES6_EEvRT_T0_T1_, symObjAddr: 0x2E31C, symBinAddr: 0x100032DC8, symSize: 0x70 }
  - { offsetInCU: 0x4989C, offset: 0x4989C, size: 0x8, addend: 0x0, symName: __ZNSt3__134__libcpp_atomic_refcount_decrementB8ue170006IlEET_RS1_, symObjAddr: 0x2F8D8, symBinAddr: 0x100034384, symSize: 0x30 }
  - { offsetInCU: 0x498D1, offset: 0x498D1, size: 0x8, addend: 0x0, symName: __ZNSt3__17getlineB8ue170006IcNS_11char_traitsIcEENS_9allocatorIcEEEERNS_13basic_istreamIT_T0_EES9_RNS_12basic_stringIS6_S7_T1_EE, symObjAddr: 0x2FA74, symBinAddr: 0x100034520, symSize: 0x5C }
  - { offsetInCU: 0x4A5B0, offset: 0x4A5B0, size: 0x8, addend: 0x0, symName: __ZNSt3__1neB8ue170006ERKNS_21__tree_const_iteratorINS_12basic_stringIcNS_11char_traitsIcEENS_9allocatorIcEEEEPNS_11__tree_nodeIS6_PvEElEESD_, symObjAddr: 0x2FC7C, symBinAddr: 0x100034728, symSize: 0x34 }
  - { offsetInCU: 0x4A799, offset: 0x4A799, size: 0x8, addend: 0x0, symName: __ZNSt3__17getlineB8ue170006IcNS_11char_traitsIcEENS_9allocatorIcEEEERNS_13basic_istreamIT_T0_EES9_RNS_12basic_stringIS6_S7_T1_EES6_, symObjAddr: 0x2FFF8, symBinAddr: 0x100034AA4, symSize: 0x238 }
  - { offsetInCU: 0x4A857, offset: 0x4A857, size: 0x8, addend: 0x0, symName: __ZNSt3__110__str_findB8ue170006IcmNS_11char_traitsIcEELm18446744073709551615EEET0_PKT_S3_S6_S3_S3_, symObjAddr: 0x30430, symBinAddr: 0x100034EDC, symSize: 0xE4 }
  - { offsetInCU: 0x4A8FE, offset: 0x4A8FE, size: 0x8, addend: 0x0, symName: __ZNSt3__118__search_substringB8ue170006IcNS_11char_traitsIcEEEEPKT_S5_S5_S5_S5_, symObjAddr: 0x30514, symBinAddr: 0x100034FC0, symSize: 0x154 }
  - { offsetInCU: 0x4A998, offset: 0x4A998, size: 0x8, addend: 0x0, symName: __ZNSt3__118__constexpr_memchrB8ue170006IKccEEPT_S3_T0_m, symObjAddr: 0x3070C, symBinAddr: 0x1000351B8, symSize: 0x40 }
  - { offsetInCU: 0x4AA0F, offset: 0x4AA0F, size: 0x8, addend: 0x0, symName: __ZNSt3__1ltB8ue170006IcNS_11char_traitsIcEENS_9allocatorIcEEEEbRKNS_12basic_stringIT_T0_T1_EESB_, symObjAddr: 0x31114, symBinAddr: 0x100035BC0, symSize: 0x38 }
  - { offsetInCU: 0x4AA86, offset: 0x4AA86, size: 0x8, addend: 0x0, symName: __ZNSt3__127__tree_balance_after_insertB8ue170006IPNS_16__tree_node_baseIPvEEEEvT_S5_, symObjAddr: 0x317E0, symBinAddr: 0x10003628C, symSize: 0x27C }
  - { offsetInCU: 0x4AB05, offset: 0x4AB05, size: 0x8, addend: 0x0, symName: __ZNSt3__118__tree_left_rotateB8ue170006IPNS_16__tree_node_baseIPvEEEEvT_, symObjAddr: 0x31A84, symBinAddr: 0x100036530, symSize: 0xD8 }
  - { offsetInCU: 0x4AB48, offset: 0x4AB48, size: 0x8, addend: 0x0, symName: __ZNSt3__119__tree_right_rotateB8ue170006IPNS_16__tree_node_baseIPvEEEEvT_, symObjAddr: 0x31B5C, symBinAddr: 0x100036608, symSize: 0xCC }
  - { offsetInCU: 0x4AB8B, offset: 0x4AB8B, size: 0x8, addend: 0x0, symName: __ZNSt3__1eqB8ue170006ERKNS_21__tree_const_iteratorINS_12basic_stringIcNS_11char_traitsIcEENS_9allocatorIcEEEEPNS_11__tree_nodeIS6_PvEElEESD_, symObjAddr: 0x32014, symBinAddr: 0x100036AC0, symSize: 0x30 }
  - { offsetInCU: 0x4ABC8, offset: 0x4ABC8, size: 0x8, addend: 0x0, symName: __ZNSt3__1neB8ue170006IP9MeshColorEEbRKNS_11__wrap_iterIT_EES7_, symObjAddr: 0x33588, symBinAddr: 0x100038034, symSize: 0x34 }
  - { offsetInCU: 0x4AC0B, offset: 0x4AC0B, size: 0x8, addend: 0x0, symName: __ZNSt3__1neB8ue170006IP10MeshScalarEEbRKNS_11__wrap_iterIT_EES7_, symObjAddr: 0x33654, symBinAddr: 0x100038100, symSize: 0x34 }
  - { offsetInCU: 0x4AC4E, offset: 0x4AC4E, size: 0x8, addend: 0x0, symName: __ZNSt3__1eqB8ue170006IP9MeshColorEEbRKNS_11__wrap_iterIT_EES7_, symObjAddr: 0x33744, symBinAddr: 0x1000381F0, symSize: 0x48 }
  - { offsetInCU: 0x4AC91, offset: 0x4AC91, size: 0x8, addend: 0x0, symName: __ZNSt3__1eqB8ue170006IP10MeshScalarEEbRKNS_11__wrap_iterIT_EES7_, symObjAddr: 0x33828, symBinAddr: 0x1000382D4, symSize: 0x48 }
  - { offsetInCU: 0x4ACD4, offset: 0x4ACD4, size: 0x8, addend: 0x0, symName: __ZNSt3__1neB8ue170006INS_11__wrap_iterIPN3glm3vecILi3EfLNS2_9qualifierE0EEEEES7_EEbRKNS_16reverse_iteratorIT_EERKNS8_IT0_EE, symObjAddr: 0x34F00, symBinAddr: 0x1000399AC, symSize: 0x54 }
  - { offsetInCU: 0x4AD20, offset: 0x4AD20, size: 0x8, addend: 0x0, symName: __ZNSt3__112__to_addressB8ue170006IN3glm3vecILi3EfLNS1_9qualifierE0EEEEEPT_S6_, symObjAddr: 0x35290, symBinAddr: 0x100039D3C, symSize: 0x14 }
  - { offsetInCU: 0x4AD55, offset: 0x4AD55, size: 0x8, addend: 0x0, symName: __ZNSt3__119__allocate_at_leastB8ue170006INS_9allocatorIN3glm3vecILi3EfLNS2_9qualifierE0EEEEEEENS_19__allocation_resultINS_16allocator_traitsIT_E7pointerEEERS9_m, symObjAddr: 0x35BF4, symBinAddr: 0x10003A6A0, symSize: 0x40 }
  - { offsetInCU: 0x4AD98, offset: 0x4AD98, size: 0x8, addend: 0x0, symName: __ZNSt3__142__uninitialized_allocator_move_if_noexceptB8ue170006INS_9allocatorIN3glm3vecILi3EfLNS2_9qualifierE0EEEEENS_16reverse_iteratorIPS5_EES9_S5_vEET1_RT_T0_SD_SA_, symObjAddr: 0x35E9C, symBinAddr: 0x10003A948, symSize: 0x78 }
  - { offsetInCU: 0x4AE16, offset: 0x4AE16, size: 0x8, addend: 0x0, symName: __ZNSt3__14swapB8ue170006IPN3glm3vecILi3EfLNS1_9qualifierE0EEEEENS_9enable_ifIXaasr21is_move_constructibleIT_EE5valuesr18is_move_assignableIS7_EE5valueEvE4typeERS7_SA_, symObjAddr: 0x35F60, symBinAddr: 0x10003AA0C, symSize: 0x3C }
  - { offsetInCU: 0x4AE67, offset: 0x4AE67, size: 0x8, addend: 0x0, symName: __ZNSt3__14moveB8ue170006INS_16reverse_iteratorIPN3glm3vecILi3EfLNS2_9qualifierE0EEEEES7_EET0_T_S9_S8_, symObjAddr: 0x36064, symBinAddr: 0x10003AB10, symSize: 0x78 }
  - { offsetInCU: 0x4AEC1, offset: 0x4AEC1, size: 0x8, addend: 0x0, symName: __ZNSt3__16__moveB8ue170006INS_17_ClassicAlgPolicyENS_16reverse_iteratorIPN3glm3vecILi3EfLNS3_9qualifierE0EEEEES8_S8_EENS_4pairIT0_T2_EESA_T1_SB_, symObjAddr: 0x360DC, symBinAddr: 0x10003AB88, symSize: 0x64 }
  - { offsetInCU: 0x4AF2D, offset: 0x4AF2D, size: 0x8, addend: 0x0, symName: __ZNSt3__123__dispatch_copy_or_moveB8ue170006INS_17_ClassicAlgPolicyENS_11__move_loopIS1_EENS_14__move_trivialENS_16reverse_iteratorIPN3glm3vecILi3EfLNS6_9qualifierE0EEEEESB_SB_EENS_4pairIT2_T4_EESD_T3_SE_, symObjAddr: 0x36140, symBinAddr: 0x10003ABEC, symSize: 0x64 }
  - { offsetInCU: 0x4AFAB, offset: 0x4AFAB, size: 0x8, addend: 0x0, symName: __ZNSt3__121__unwrap_and_dispatchB8ue170006INS_10__overloadINS_11__move_loopINS_17_ClassicAlgPolicyEEENS_14__move_trivialEEENS_16reverse_iteratorIPN3glm3vecILi3EfLNS8_9qualifierE0EEEEESD_SD_Li0EEENS_4pairIT0_T2_EESF_T1_SG_, symObjAddr: 0x361A4, symBinAddr: 0x10003AC50, symSize: 0x12C }
  - { offsetInCU: 0x4B03B, offset: 0x4B03B, size: 0x8, addend: 0x0, symName: __ZNSt3__114__unwrap_rangeB8ue170006INS_16reverse_iteratorIPN3glm3vecILi3EfLNS2_9qualifierE0EEEEES7_EENS_4pairIT0_S9_EET_SB_, symObjAddr: 0x362D0, symBinAddr: 0x10003AD7C, symSize: 0x84 }
  - { offsetInCU: 0x4B15B, offset: 0x4B15B, size: 0x8, addend: 0x0, symName: __ZNSt3__113__unwrap_iterB8ue170006INS_16reverse_iteratorIPN3glm3vecILi3EfLNS2_9qualifierE0EEEEENS_18__unwrap_iter_implIS7_Lb0EEELi0EEEDTclsrT0_8__unwrapclsr3stdE7declvalIT_EEEESB_, symObjAddr: 0x363FC, symBinAddr: 0x10003AEA8, symSize: 0x44 }
  - { offsetInCU: 0x4B19F, offset: 0x4B19F, size: 0x8, addend: 0x0, symName: __ZNSt3__19make_pairB8ue170006INS_16reverse_iteratorIPN3glm3vecILi3EfLNS2_9qualifierE0EEEEES7_EENS_4pairINS_18__unwrap_ref_decayIT_E4typeENS9_IT0_E4typeEEEOSA_OSD_, symObjAddr: 0x36440, symBinAddr: 0x10003AEEC, symSize: 0x38 }
  - { offsetInCU: 0x4B1EE, offset: 0x4B1EE, size: 0x8, addend: 0x0, symName: __ZNSt3__114__rewrap_rangeB8ue170006INS_16reverse_iteratorIPN3glm3vecILi3EfLNS2_9qualifierE0EEEEES7_EET_S8_T0_, symObjAddr: 0x36478, symBinAddr: 0x10003AF24, symSize: 0x5C }
  - { offsetInCU: 0x4B23A, offset: 0x4B23A, size: 0x8, addend: 0x0, symName: __ZNSt3__113__rewrap_iterB8ue170006INS_16reverse_iteratorIPN3glm3vecILi3EfLNS2_9qualifierE0EEEEES7_NS_18__unwrap_iter_implIS7_Lb0EEEEET_SA_T0_, symObjAddr: 0x364D4, symBinAddr: 0x10003AF80, symSize: 0x74 }
  - { offsetInCU: 0x4B28F, offset: 0x4B28F, size: 0x8, addend: 0x0, symName: __ZNSt3__1neB8ue170006IPN3glm3vecILi3EfLNS1_9qualifierE0EEES5_EEbRKNS_16reverse_iteratorIT_EERKNS6_IT0_EE, symObjAddr: 0x36548, symBinAddr: 0x10003AFF4, symSize: 0x48 }
  - { offsetInCU: 0x4B347, offset: 0x4B347, size: 0x8, addend: 0x0, symName: __ZNSt3__119__allocate_at_leastB8ue170006INS_9allocatorIN3glm3vecILi2EfLNS2_9qualifierE0EEEEEEENS_19__allocation_resultINS_16allocator_traitsIT_E7pointerEEERS9_m, symObjAddr: 0x37098, symBinAddr: 0x10003BB44, symSize: 0x40 }
  - { offsetInCU: 0x4B38A, offset: 0x4B38A, size: 0x8, addend: 0x0, symName: __ZNSt3__142__uninitialized_allocator_move_if_noexceptB8ue170006INS_9allocatorIN3glm3vecILi2EfLNS2_9qualifierE0EEEEENS_16reverse_iteratorIPS5_EES9_S5_vEET1_RT_T0_SD_SA_, symObjAddr: 0x3724C, symBinAddr: 0x10003BCF8, symSize: 0x78 }
  - { offsetInCU: 0x4B408, offset: 0x4B408, size: 0x8, addend: 0x0, symName: __ZNSt3__14swapB8ue170006IPN3glm3vecILi2EfLNS1_9qualifierE0EEEEENS_9enable_ifIXaasr21is_move_constructibleIT_EE5valuesr18is_move_assignableIS7_EE5valueEvE4typeERS7_SA_, symObjAddr: 0x37310, symBinAddr: 0x10003BDBC, symSize: 0x3C }
  - { offsetInCU: 0x4B459, offset: 0x4B459, size: 0x8, addend: 0x0, symName: __ZNSt3__14moveB8ue170006INS_16reverse_iteratorIPN3glm3vecILi2EfLNS2_9qualifierE0EEEEES7_EET0_T_S9_S8_, symObjAddr: 0x373F8, symBinAddr: 0x10003BEA4, symSize: 0x78 }
  - { offsetInCU: 0x4B4B3, offset: 0x4B4B3, size: 0x8, addend: 0x0, symName: __ZNSt3__16__moveB8ue170006INS_17_ClassicAlgPolicyENS_16reverse_iteratorIPN3glm3vecILi2EfLNS3_9qualifierE0EEEEES8_S8_EENS_4pairIT0_T2_EESA_T1_SB_, symObjAddr: 0x37470, symBinAddr: 0x10003BF1C, symSize: 0x64 }
  - { offsetInCU: 0x4B51F, offset: 0x4B51F, size: 0x8, addend: 0x0, symName: __ZNSt3__123__dispatch_copy_or_moveB8ue170006INS_17_ClassicAlgPolicyENS_11__move_loopIS1_EENS_14__move_trivialENS_16reverse_iteratorIPN3glm3vecILi2EfLNS6_9qualifierE0EEEEESB_SB_EENS_4pairIT2_T4_EESD_T3_SE_, symObjAddr: 0x374D4, symBinAddr: 0x10003BF80, symSize: 0x64 }
  - { offsetInCU: 0x4B59D, offset: 0x4B59D, size: 0x8, addend: 0x0, symName: __ZNSt3__121__unwrap_and_dispatchB8ue170006INS_10__overloadINS_11__move_loopINS_17_ClassicAlgPolicyEEENS_14__move_trivialEEENS_16reverse_iteratorIPN3glm3vecILi2EfLNS8_9qualifierE0EEEEESD_SD_Li0EEENS_4pairIT0_T2_EESF_T1_SG_, symObjAddr: 0x37538, symBinAddr: 0x10003BFE4, symSize: 0x12C }
  - { offsetInCU: 0x4B62D, offset: 0x4B62D, size: 0x8, addend: 0x0, symName: __ZNSt3__114__unwrap_rangeB8ue170006INS_16reverse_iteratorIPN3glm3vecILi2EfLNS2_9qualifierE0EEEEES7_EENS_4pairIT0_S9_EET_SB_, symObjAddr: 0x37664, symBinAddr: 0x10003C110, symSize: 0x84 }
  - { offsetInCU: 0x4B74D, offset: 0x4B74D, size: 0x8, addend: 0x0, symName: __ZNSt3__113__unwrap_iterB8ue170006INS_16reverse_iteratorIPN3glm3vecILi2EfLNS2_9qualifierE0EEEEENS_18__unwrap_iter_implIS7_Lb0EEELi0EEEDTclsrT0_8__unwrapclsr3stdE7declvalIT_EEEESB_, symObjAddr: 0x37788, symBinAddr: 0x10003C234, symSize: 0x44 }
  - { offsetInCU: 0x4B791, offset: 0x4B791, size: 0x8, addend: 0x0, symName: __ZNSt3__19make_pairB8ue170006INS_16reverse_iteratorIPN3glm3vecILi2EfLNS2_9qualifierE0EEEEES7_EENS_4pairINS_18__unwrap_ref_decayIT_E4typeENS9_IT0_E4typeEEEOSA_OSD_, symObjAddr: 0x377CC, symBinAddr: 0x10003C278, symSize: 0x38 }
  - { offsetInCU: 0x4B7E0, offset: 0x4B7E0, size: 0x8, addend: 0x0, symName: __ZNSt3__114__rewrap_rangeB8ue170006INS_16reverse_iteratorIPN3glm3vecILi2EfLNS2_9qualifierE0EEEEES7_EET_S8_T0_, symObjAddr: 0x37804, symBinAddr: 0x10003C2B0, symSize: 0x5C }
  - { offsetInCU: 0x4B82C, offset: 0x4B82C, size: 0x8, addend: 0x0, symName: __ZNSt3__113__rewrap_iterB8ue170006INS_16reverse_iteratorIPN3glm3vecILi2EfLNS2_9qualifierE0EEEEES7_NS_18__unwrap_iter_implIS7_Lb0EEEEET_SA_T0_, symObjAddr: 0x37860, symBinAddr: 0x10003C30C, symSize: 0x74 }
  - { offsetInCU: 0x4B881, offset: 0x4B881, size: 0x8, addend: 0x0, symName: __ZNSt3__1neB8ue170006IPN3glm3vecILi2EfLNS1_9qualifierE0EEES5_EEbRKNS_16reverse_iteratorIT_EERKNS6_IT0_EE, symObjAddr: 0x378D4, symBinAddr: 0x10003C380, symSize: 0x48 }
  - { offsetInCU: 0x4B939, offset: 0x4B939, size: 0x8, addend: 0x0, symName: __ZNSt3__1neB8ue170006IPN3glm3vecILi3EfLNS1_9qualifierE0EEEEEbRKNS_11__wrap_iterIT_EESA_, symObjAddr: 0x37EA0, symBinAddr: 0x10003C94C, symSize: 0x34 }
  - { offsetInCU: 0x4B97C, offset: 0x4B97C, size: 0x8, addend: 0x0, symName: __ZNSt3__1eqB8ue170006IPN3glm3vecILi3EfLNS1_9qualifierE0EEEEEbRKNS_11__wrap_iterIT_EESA_, symObjAddr: 0x37EF4, symBinAddr: 0x10003C9A0, symSize: 0x48 }
  - { offsetInCU: 0x4B9BF, offset: 0x4B9BF, size: 0x8, addend: 0x0, symName: __ZNSt3__17launderB8ue170006INS_4pairIK8Tex_TypeNS_12basic_stringIcNS_11char_traitsIcEENS_9allocatorIcEEEEEEEEPT_SC_, symObjAddr: 0x391D4, symBinAddr: 0x10003DC80, symSize: 0x24 }
  - { offsetInCU: 0x4B9F7, offset: 0x4B9F7, size: 0x8, addend: 0x0, symName: __ZNSt3__19__launderB8ue170006INS_4pairIK8Tex_TypeNS_12basic_stringIcNS_11char_traitsIcEENS_9allocatorIcEEEEEEEEPT_SC_, symObjAddr: 0x391F8, symBinAddr: 0x10003DCA4, symSize: 0x14 }
  - { offsetInCU: 0x4BA2E, offset: 0x4BA2E, size: 0x8, addend: 0x0, symName: __ZNSt3__1eqB8ue170006IPNS_12basic_stringIcNS_11char_traitsIcEENS_9allocatorIcEEEEEEbRKNS_11__wrap_iterIT_EESC_, symObjAddr: 0x39528, symBinAddr: 0x10003DFD4, symSize: 0x48 }
  - { offsetInCU: 0x4BA71, offset: 0x4BA71, size: 0x8, addend: 0x0, symName: __ZNSt3__1plB8ue170006IcNS_11char_traitsIcEENS_9allocatorIcEEEENS_12basic_stringIT_T0_T1_EERKS9_OS9_, symObjAddr: 0x39C0C, symBinAddr: 0x10003E6B8, symSize: 0x44 }
  - { offsetInCU: 0x4C66F, offset: 0x4C66F, size: 0x8, addend: 0x0, symName: __ZNSt3__112__to_addressB8ue170006INS_10shared_ptrI16DirectionalLightEEEEPT_S5_, symObjAddr: 0x3A9E8, symBinAddr: 0x10003F494, symSize: 0x14 }
  - { offsetInCU: 0x4C6A4, offset: 0x4C6A4, size: 0x8, addend: 0x0, symName: __ZNSt3__119__allocate_at_leastB8ue170006INS_9allocatorINS_10shared_ptrI16DirectionalLightEEEEEENS_19__allocation_resultINS_16allocator_traitsIT_E7pointerEEERS8_m, symObjAddr: 0x3AFEC, symBinAddr: 0x10003FA98, symSize: 0x40 }
  - { offsetInCU: 0x4C6E7, offset: 0x4C6E7, size: 0x8, addend: 0x0, symName: __ZNSt3__142__uninitialized_allocator_move_if_noexceptB8ue170006INS_9allocatorINS_10shared_ptrI16DirectionalLightEEEENS_16reverse_iteratorIPS4_EES8_S8_EET2_RT_T0_T1_S9_, symObjAddr: 0x3B274, symBinAddr: 0x10003FD20, symSize: 0x12C }
  - { offsetInCU: 0x4C787, offset: 0x4C787, size: 0x8, addend: 0x0, symName: __ZNSt3__14swapB8ue170006IPNS_10shared_ptrI16DirectionalLightEEEENS_9enable_ifIXaasr21is_move_constructibleIT_EE5valuesr18is_move_assignableIS6_EE5valueEvE4typeERS6_S9_, symObjAddr: 0x3B3EC, symBinAddr: 0x10003FE98, symSize: 0x3C }
  - { offsetInCU: 0x4C7D8, offset: 0x4C7D8, size: 0x8, addend: 0x0, symName: __ZNSt3__122__make_exception_guardB8ue170006INS_29_AllocatorDestroyRangeReverseINS_9allocatorINS_10shared_ptrI16DirectionalLightEEEENS_16reverse_iteratorIPS5_EEEEEENS_28__exception_guard_exceptionsIT_EESC_, symObjAddr: 0x3B51C, symBinAddr: 0x10003FFC8, symSize: 0x4C }
  - { offsetInCU: 0x4C80E, offset: 0x4C80E, size: 0x8, addend: 0x0, symName: __ZNSt3__1neB8ue170006IPNS_10shared_ptrI16DirectionalLightEES4_EEbRKNS_16reverse_iteratorIT_EERKNS5_IT0_EE, symObjAddr: 0x3B5AC, symBinAddr: 0x100040058, symSize: 0x48 }
  - { offsetInCU: 0x4C85A, offset: 0x4C85A, size: 0x8, addend: 0x0, symName: __ZNSt3__112__to_addressB8ue170006INS_16reverse_iteratorIPNS_10shared_ptrI16DirectionalLightEEEEvEEu7__decayIDTclsr19__to_address_helperIT_EE6__callclsr3stdE7declvalIRKS7_EEEEES9_, symObjAddr: 0x3B628, symBinAddr: 0x1000400D4, symSize: 0x24 }
  - { offsetInCU: 0x4C8BB, offset: 0x4C8BB, size: 0x8, addend: 0x0, symName: __ZNSt3__119__allocator_destroyB8ue170006INS_9allocatorINS_10shared_ptrI16DirectionalLightEEEENS_16reverse_iteratorINS6_IPS4_EEEES9_EEvRT_T0_T1_, symObjAddr: 0x3B97C, symBinAddr: 0x100040428, symSize: 0x70 }
  - { offsetInCU: 0x4C920, offset: 0x4C920, size: 0x8, addend: 0x0, symName: __ZNSt3__1neB8ue170006INS_16reverse_iteratorIPNS_10shared_ptrI16DirectionalLightEEEES6_EEbRKNS1_IT_EERKNS1_IT0_EE, symObjAddr: 0x3BA28, symBinAddr: 0x1000404D4, symSize: 0x60 }
  - { offsetInCU: 0x4C96C, offset: 0x4C96C, size: 0x8, addend: 0x0, symName: __ZNSt3__112__to_addressB8ue170006INS_16reverse_iteratorINS1_IPNS_10shared_ptrI16DirectionalLightEEEEEEvEEu7__decayIDTclsr19__to_address_helperIT_EE6__callclsr3stdE7declvalIRKS8_EEEEESA_, symObjAddr: 0x3BAB4, symBinAddr: 0x100040560, symSize: 0x24 }
  - { offsetInCU: 0x4C9CC, offset: 0x4C9CC, size: 0x8, addend: 0x0, symName: __ZNSt3__112__to_addressB8ue170006IN3glm3matILi4ELi4EfLNS1_9qualifierE0EEEEEPT_S6_, symObjAddr: 0x3CE0C, symBinAddr: 0x1000418B8, symSize: 0x14 }
  - { offsetInCU: 0x4D5A7, offset: 0x4D5A7, size: 0x8, addend: 0x0, symName: __ZNSt3__112__to_addressB8ue170006INS_10shared_ptrI10PointLightEEEEPT_S5_, symObjAddr: 0x3DC78, symBinAddr: 0x100042724, symSize: 0x14 }
  - { offsetInCU: 0x4D5DC, offset: 0x4D5DC, size: 0x8, addend: 0x0, symName: __ZNSt3__119__allocate_at_leastB8ue170006INS_9allocatorINS_10shared_ptrI10PointLightEEEEEENS_19__allocation_resultINS_16allocator_traitsIT_E7pointerEEERS8_m, symObjAddr: 0x3E27C, symBinAddr: 0x100042D28, symSize: 0x40 }
  - { offsetInCU: 0x4D61F, offset: 0x4D61F, size: 0x8, addend: 0x0, symName: __ZNSt3__142__uninitialized_allocator_move_if_noexceptB8ue170006INS_9allocatorINS_10shared_ptrI10PointLightEEEENS_16reverse_iteratorIPS4_EES8_S8_EET2_RT_T0_T1_S9_, symObjAddr: 0x3E504, symBinAddr: 0x100042FB0, symSize: 0x12C }
  - { offsetInCU: 0x4D6BF, offset: 0x4D6BF, size: 0x8, addend: 0x0, symName: __ZNSt3__14swapB8ue170006IPNS_10shared_ptrI10PointLightEEEENS_9enable_ifIXaasr21is_move_constructibleIT_EE5valuesr18is_move_assignableIS6_EE5valueEvE4typeERS6_S9_, symObjAddr: 0x3E67C, symBinAddr: 0x100043128, symSize: 0x3C }
  - { offsetInCU: 0x4D710, offset: 0x4D710, size: 0x8, addend: 0x0, symName: __ZNSt3__122__make_exception_guardB8ue170006INS_29_AllocatorDestroyRangeReverseINS_9allocatorINS_10shared_ptrI10PointLightEEEENS_16reverse_iteratorIPS5_EEEEEENS_28__exception_guard_exceptionsIT_EESC_, symObjAddr: 0x3E7AC, symBinAddr: 0x100043258, symSize: 0x4C }
  - { offsetInCU: 0x4D746, offset: 0x4D746, size: 0x8, addend: 0x0, symName: __ZNSt3__1neB8ue170006IPNS_10shared_ptrI10PointLightEES4_EEbRKNS_16reverse_iteratorIT_EERKNS5_IT0_EE, symObjAddr: 0x3E83C, symBinAddr: 0x1000432E8, symSize: 0x48 }
  - { offsetInCU: 0x4D792, offset: 0x4D792, size: 0x8, addend: 0x0, symName: __ZNSt3__112__to_addressB8ue170006INS_16reverse_iteratorIPNS_10shared_ptrI10PointLightEEEEvEEu7__decayIDTclsr19__to_address_helperIT_EE6__callclsr3stdE7declvalIRKS7_EEEEES9_, symObjAddr: 0x3E8B8, symBinAddr: 0x100043364, symSize: 0x24 }
  - { offsetInCU: 0x4D7F3, offset: 0x4D7F3, size: 0x8, addend: 0x0, symName: __ZNSt3__119__allocator_destroyB8ue170006INS_9allocatorINS_10shared_ptrI10PointLightEEEENS_16reverse_iteratorINS6_IPS4_EEEES9_EEvRT_T0_T1_, symObjAddr: 0x3EC0C, symBinAddr: 0x1000436B8, symSize: 0x70 }
  - { offsetInCU: 0x4D858, offset: 0x4D858, size: 0x8, addend: 0x0, symName: __ZNSt3__1neB8ue170006INS_16reverse_iteratorIPNS_10shared_ptrI10PointLightEEEES6_EEbRKNS1_IT_EERKNS1_IT0_EE, symObjAddr: 0x3ECB8, symBinAddr: 0x100043764, symSize: 0x60 }
  - { offsetInCU: 0x4D8A4, offset: 0x4D8A4, size: 0x8, addend: 0x0, symName: __ZNSt3__112__to_addressB8ue170006INS_16reverse_iteratorINS1_IPNS_10shared_ptrI10PointLightEEEEEEvEEu7__decayIDTclsr19__to_address_helperIT_EE6__callclsr3stdE7declvalIRKS8_EEEEESA_, symObjAddr: 0x3ED44, symBinAddr: 0x1000437F0, symSize: 0x24 }
  - { offsetInCU: 0x4D904, offset: 0x4D904, size: 0x8, addend: 0x0, symName: __ZNSt3__119__allocate_at_leastB8ue170006INS_9allocatorIN3glm3matILi4ELi4EfLNS2_9qualifierE0EEEEEEENS_19__allocation_resultINS_16allocator_traitsIT_E7pointerEEERS9_m, symObjAddr: 0x4024C, symBinAddr: 0x100044CF8, symSize: 0x40 }
  - { offsetInCU: 0x4D947, offset: 0x4D947, size: 0x8, addend: 0x0, symName: __ZNSt3__142__uninitialized_allocator_move_if_noexceptB8ue170006INS_9allocatorIN3glm3matILi4ELi4EfLNS2_9qualifierE0EEEEENS_16reverse_iteratorIPS5_EES9_S5_vEET1_RT_T0_SD_SA_, symObjAddr: 0x40400, symBinAddr: 0x100044EAC, symSize: 0x78 }
  - { offsetInCU: 0x4D9C5, offset: 0x4D9C5, size: 0x8, addend: 0x0, symName: __ZNSt3__14swapB8ue170006IPN3glm3matILi4ELi4EfLNS1_9qualifierE0EEEEENS_9enable_ifIXaasr21is_move_constructibleIT_EE5valuesr18is_move_assignableIS7_EE5valueEvE4typeERS7_SA_, symObjAddr: 0x404C4, symBinAddr: 0x100044F70, symSize: 0x3C }
  - { offsetInCU: 0x4DA16, offset: 0x4DA16, size: 0x8, addend: 0x0, symName: __ZNSt3__14moveB8ue170006INS_16reverse_iteratorIPN3glm3matILi4ELi4EfLNS2_9qualifierE0EEEEES7_EET0_T_S9_S8_, symObjAddr: 0x405AC, symBinAddr: 0x100045058, symSize: 0x78 }
  - { offsetInCU: 0x4DA70, offset: 0x4DA70, size: 0x8, addend: 0x0, symName: __ZNSt3__16__moveB8ue170006INS_17_ClassicAlgPolicyENS_16reverse_iteratorIPN3glm3matILi4ELi4EfLNS3_9qualifierE0EEEEES8_S8_EENS_4pairIT0_T2_EESA_T1_SB_, symObjAddr: 0x40624, symBinAddr: 0x1000450D0, symSize: 0x64 }
  - { offsetInCU: 0x4DADC, offset: 0x4DADC, size: 0x8, addend: 0x0, symName: __ZNSt3__123__dispatch_copy_or_moveB8ue170006INS_17_ClassicAlgPolicyENS_11__move_loopIS1_EENS_14__move_trivialENS_16reverse_iteratorIPN3glm3matILi4ELi4EfLNS6_9qualifierE0EEEEESB_SB_EENS_4pairIT2_T4_EESD_T3_SE_, symObjAddr: 0x40688, symBinAddr: 0x100045134, symSize: 0x64 }
  - { offsetInCU: 0x4DB5A, offset: 0x4DB5A, size: 0x8, addend: 0x0, symName: __ZNSt3__121__unwrap_and_dispatchB8ue170006INS_10__overloadINS_11__move_loopINS_17_ClassicAlgPolicyEEENS_14__move_trivialEEENS_16reverse_iteratorIPN3glm3matILi4ELi4EfLNS8_9qualifierE0EEEEESD_SD_Li0EEENS_4pairIT0_T2_EESF_T1_SG_, symObjAddr: 0x406EC, symBinAddr: 0x100045198, symSize: 0x12C }
  - { offsetInCU: 0x4DBEA, offset: 0x4DBEA, size: 0x8, addend: 0x0, symName: __ZNSt3__114__unwrap_rangeB8ue170006INS_16reverse_iteratorIPN3glm3matILi4ELi4EfLNS2_9qualifierE0EEEEES7_EENS_4pairIT0_S9_EET_SB_, symObjAddr: 0x40818, symBinAddr: 0x1000452C4, symSize: 0x84 }
  - { offsetInCU: 0x4DD0A, offset: 0x4DD0A, size: 0x8, addend: 0x0, symName: __ZNSt3__113__unwrap_iterB8ue170006INS_16reverse_iteratorIPN3glm3matILi4ELi4EfLNS2_9qualifierE0EEEEENS_18__unwrap_iter_implIS7_Lb0EEELi0EEEDTclsrT0_8__unwrapclsr3stdE7declvalIT_EEEESB_, symObjAddr: 0x40938, symBinAddr: 0x1000453E4, symSize: 0x44 }
  - { offsetInCU: 0x4DD4E, offset: 0x4DD4E, size: 0x8, addend: 0x0, symName: __ZNSt3__19make_pairB8ue170006INS_16reverse_iteratorIPN3glm3matILi4ELi4EfLNS2_9qualifierE0EEEEES7_EENS_4pairINS_18__unwrap_ref_decayIT_E4typeENS9_IT0_E4typeEEEOSA_OSD_, symObjAddr: 0x4097C, symBinAddr: 0x100045428, symSize: 0x38 }
  - { offsetInCU: 0x4DD9D, offset: 0x4DD9D, size: 0x8, addend: 0x0, symName: __ZNSt3__114__rewrap_rangeB8ue170006INS_16reverse_iteratorIPN3glm3matILi4ELi4EfLNS2_9qualifierE0EEEEES7_EET_S8_T0_, symObjAddr: 0x409B4, symBinAddr: 0x100045460, symSize: 0x5C }
  - { offsetInCU: 0x4DDE9, offset: 0x4DDE9, size: 0x8, addend: 0x0, symName: __ZNSt3__113__rewrap_iterB8ue170006INS_16reverse_iteratorIPN3glm3matILi4ELi4EfLNS2_9qualifierE0EEEEES7_NS_18__unwrap_iter_implIS7_Lb0EEEEET_SA_T0_, symObjAddr: 0x40A10, symBinAddr: 0x1000454BC, symSize: 0x74 }
  - { offsetInCU: 0x4DE3E, offset: 0x4DE3E, size: 0x8, addend: 0x0, symName: __ZNSt3__1neB8ue170006IPN3glm3matILi4ELi4EfLNS1_9qualifierE0EEES5_EEbRKNS_16reverse_iteratorIT_EERKNS6_IT0_EE, symObjAddr: 0x40A84, symBinAddr: 0x100045530, symSize: 0x48 }
  - { offsetInCU: 0x4DEF6, offset: 0x4DEF6, size: 0x8, addend: 0x0, symName: __ZNSt3__14swapB8ue170006IP8DrawableEENS_9enable_ifIXaasr21is_move_constructibleIT_EE5valuesr18is_move_assignableIS4_EE5valueEvE4typeERS4_S7_, symObjAddr: 0x411AC, symBinAddr: 0x100045C58, symSize: 0x3C }
  - { offsetInCU: 0x4EAED, offset: 0x4EAED, size: 0x8, addend: 0x0, symName: __ZNSt3__112__to_addressB8ue170006INS_10shared_ptrI9SceneNodeEEEEPT_S5_, symObjAddr: 0x41F0C, symBinAddr: 0x1000469B8, symSize: 0x14 }
  - { offsetInCU: 0x4EB22, offset: 0x4EB22, size: 0x8, addend: 0x0, symName: __ZNSt3__119__allocate_at_leastB8ue170006INS_9allocatorINS_10shared_ptrI9SceneNodeEEEEEENS_19__allocation_resultINS_16allocator_traitsIT_E7pointerEEERS8_m, symObjAddr: 0x42538, symBinAddr: 0x100046FE4, symSize: 0x40 }
  - { offsetInCU: 0x4EB65, offset: 0x4EB65, size: 0x8, addend: 0x0, symName: __ZNSt3__142__uninitialized_allocator_move_if_noexceptB8ue170006INS_9allocatorINS_10shared_ptrI9SceneNodeEEEENS_16reverse_iteratorIPS4_EES8_S8_EET2_RT_T0_T1_S9_, symObjAddr: 0x427C0, symBinAddr: 0x10004726C, symSize: 0x12C }
  - { offsetInCU: 0x4EC05, offset: 0x4EC05, size: 0x8, addend: 0x0, symName: __ZNSt3__14swapB8ue170006IPNS_10shared_ptrI9SceneNodeEEEENS_9enable_ifIXaasr21is_move_constructibleIT_EE5valuesr18is_move_assignableIS6_EE5valueEvE4typeERS6_S9_, symObjAddr: 0x42938, symBinAddr: 0x1000473E4, symSize: 0x3C }
  - { offsetInCU: 0x4EC56, offset: 0x4EC56, size: 0x8, addend: 0x0, symName: __ZNSt3__122__make_exception_guardB8ue170006INS_29_AllocatorDestroyRangeReverseINS_9allocatorINS_10shared_ptrI9SceneNodeEEEENS_16reverse_iteratorIPS5_EEEEEENS_28__exception_guard_exceptionsIT_EESC_, symObjAddr: 0x42A68, symBinAddr: 0x100047514, symSize: 0x4C }
  - { offsetInCU: 0x4EC8C, offset: 0x4EC8C, size: 0x8, addend: 0x0, symName: __ZNSt3__1neB8ue170006IPNS_10shared_ptrI9SceneNodeEES4_EEbRKNS_16reverse_iteratorIT_EERKNS5_IT0_EE, symObjAddr: 0x42AF8, symBinAddr: 0x1000475A4, symSize: 0x48 }
  - { offsetInCU: 0x4ECD8, offset: 0x4ECD8, size: 0x8, addend: 0x0, symName: __ZNSt3__112__to_addressB8ue170006INS_16reverse_iteratorIPNS_10shared_ptrI9SceneNodeEEEEvEEu7__decayIDTclsr19__to_address_helperIT_EE6__callclsr3stdE7declvalIRKS7_EEEEES9_, symObjAddr: 0x42B74, symBinAddr: 0x100047620, symSize: 0x24 }
  - { offsetInCU: 0x4ED39, offset: 0x4ED39, size: 0x8, addend: 0x0, symName: __ZNSt3__119__allocator_destroyB8ue170006INS_9allocatorINS_10shared_ptrI9SceneNodeEEEENS_16reverse_iteratorINS6_IPS4_EEEES9_EEvRT_T0_T1_, symObjAddr: 0x42EC8, symBinAddr: 0x100047974, symSize: 0x70 }
  - { offsetInCU: 0x4ED9E, offset: 0x4ED9E, size: 0x8, addend: 0x0, symName: __ZNSt3__1neB8ue170006INS_16reverse_iteratorIPNS_10shared_ptrI9SceneNodeEEEES6_EEbRKNS1_IT_EERKNS1_IT0_EE, symObjAddr: 0x42F74, symBinAddr: 0x100047A20, symSize: 0x60 }
  - { offsetInCU: 0x4EDEA, offset: 0x4EDEA, size: 0x8, addend: 0x0, symName: __ZNSt3__112__to_addressB8ue170006INS_16reverse_iteratorINS1_IPNS_10shared_ptrI9SceneNodeEEEEEEvEEu7__decayIDTclsr19__to_address_helperIT_EE6__callclsr3stdE7declvalIRKS8_EEEEESA_, symObjAddr: 0x43000, symBinAddr: 0x100047AAC, symSize: 0x24 }
  - { offsetInCU: 0x4EE4A, offset: 0x4EE4A, size: 0x8, addend: 0x0, symName: __ZNSt3__1eqB8ue170006IPNS_10shared_ptrI16DirectionalLightEEEEbRKNS_11__wrap_iterIT_EES9_, symObjAddr: 0x43404, symBinAddr: 0x100047EB0, symSize: 0x48 }
  - { offsetInCU: 0x4EE8D, offset: 0x4EE8D, size: 0x8, addend: 0x0, symName: __ZNSt3__14findB8ue170006INS_11__wrap_iterIPNS_10shared_ptrI16DirectionalLightEEEES4_EET_S7_S7_RKT0_, symObjAddr: 0x43464, symBinAddr: 0x100047F10, symSize: 0x78 }
  - { offsetInCU: 0x4EEF5, offset: 0x4EEF5, size: 0x8, addend: 0x0, symName: __ZNSt3__113__rewrap_iterB8ue170006INS_11__wrap_iterIPNS_10shared_ptrI16DirectionalLightEEEES5_NS_18__unwrap_iter_implIS6_Lb1EEEEET_S9_T0_, symObjAddr: 0x435AC, symBinAddr: 0x100048058, symSize: 0x4C }
  - { offsetInCU: 0x4EF4A, offset: 0x4EF4A, size: 0x8, addend: 0x0, symName: __ZNSt3__111__find_implB8ue170006IPNS_10shared_ptrI16DirectionalLightEES4_S3_NS_10__identityEEET_S6_T0_RKT1_RT2_, symObjAddr: 0x435F8, symBinAddr: 0x1000480A4, symSize: 0x7C }
  - { offsetInCU: 0x4EFC4, offset: 0x4EFC4, size: 0x8, addend: 0x0, symName: __ZNSt3__113__unwrap_iterB8ue170006INS_11__wrap_iterIPNS_10shared_ptrI16DirectionalLightEEEENS_18__unwrap_iter_implIS6_Lb1EEELi0EEEDTclsrT0_8__unwrapclsr3stdE7declvalIT_EEEESA_, symObjAddr: 0x43674, symBinAddr: 0x100048120, symSize: 0x2C }
  - { offsetInCU: 0x4F05B, offset: 0x4F05B, size: 0x8, addend: 0x0, symName: __ZNSt3__112__to_addressB8ue170006INS_11__wrap_iterIPNS_10shared_ptrI16DirectionalLightEEEEvEEu7__decayIDTclsr19__to_address_helperIT_EE6__callclsr3stdE7declvalIRKS7_EEEEES9_, symObjAddr: 0x43738, symBinAddr: 0x1000481E4, symSize: 0x24 }
  - { offsetInCU: 0x4F137, offset: 0x4F137, size: 0x8, addend: 0x0, symName: __ZNSt3__1eqB8ue170006I16DirectionalLightS1_EEbRKNS_10shared_ptrIT_EERKNS2_IT0_EE, symObjAddr: 0x437E0, symBinAddr: 0x10004828C, symSize: 0x48 }
  - { offsetInCU: 0x4F186, offset: 0x4F186, size: 0x8, addend: 0x0, symName: __ZNSt3__18__invokeB8ue170006IRNS_10__identityEJRNS_10shared_ptrI16DirectionalLightEEEEEDTclclsr3stdE7declvalIT_EEspclsr3stdE7declvalIT0_EEEEOS7_DpOS8_, symObjAddr: 0x43828, symBinAddr: 0x1000482D4, symSize: 0x2C }
  - { offsetInCU: 0x4F24A, offset: 0x4F24A, size: 0x8, addend: 0x0, symName: __ZNSt3__1miB8ue170006IPKNS_10shared_ptrI16DirectionalLightEES5_EEDTmicldtfp_4baseEcldtfp0_4baseEERKNS_11__wrap_iterIT_EERKNS7_IT0_EE, symObjAddr: 0x438AC, symBinAddr: 0x100048358, symSize: 0x48 }
  - { offsetInCU: 0x4F296, offset: 0x4F296, size: 0x8, addend: 0x0, symName: __ZNSt3__14moveB8ue170006IPNS_10shared_ptrI16DirectionalLightEES4_EET0_T_S6_S5_, symObjAddr: 0x4396C, symBinAddr: 0x100048418, symSize: 0x40 }
  - { offsetInCU: 0x4F2F0, offset: 0x4F2F0, size: 0x8, addend: 0x0, symName: __ZNSt3__16__moveB8ue170006INS_17_ClassicAlgPolicyEPNS_10shared_ptrI16DirectionalLightEES5_S5_EENS_4pairIT0_T2_EES7_T1_S8_, symObjAddr: 0x43BE8, symBinAddr: 0x100048694, symSize: 0x44 }
  - { offsetInCU: 0x4F35C, offset: 0x4F35C, size: 0x8, addend: 0x0, symName: __ZNSt3__123__dispatch_copy_or_moveB8ue170006INS_17_ClassicAlgPolicyENS_11__move_loopIS1_EENS_14__move_trivialEPNS_10shared_ptrI16DirectionalLightEES8_S8_EENS_4pairIT2_T4_EESA_T3_SB_, symObjAddr: 0x43C2C, symBinAddr: 0x1000486D8, symSize: 0x44 }
  - { offsetInCU: 0x4F3DA, offset: 0x4F3DA, size: 0x8, addend: 0x0, symName: __ZNSt3__121__unwrap_and_dispatchB8ue170006INS_10__overloadINS_11__move_loopINS_17_ClassicAlgPolicyEEENS_14__move_trivialEEEPNS_10shared_ptrI16DirectionalLightEESA_SA_Li0EEENS_4pairIT0_T2_EESC_T1_SD_, symObjAddr: 0x43C70, symBinAddr: 0x10004871C, symSize: 0xB4 }
  - { offsetInCU: 0x4F468, offset: 0x4F468, size: 0x8, addend: 0x0, symName: __ZNSt3__114__unwrap_rangeB8ue170006IPNS_10shared_ptrI16DirectionalLightEES4_EENS_4pairIT0_S6_EET_S8_, symObjAddr: 0x43D24, symBinAddr: 0x1000487D0, symSize: 0x60 }
  - { offsetInCU: 0x4F588, offset: 0x4F588, size: 0x8, addend: 0x0, symName: __ZNSt3__113__unwrap_iterB8ue170006IPNS_10shared_ptrI16DirectionalLightEENS_18__unwrap_iter_implIS4_Lb1EEELi0EEEDTclsrT0_8__unwrapclsr3stdE7declvalIT_EEEES8_, symObjAddr: 0x43E14, symBinAddr: 0x1000488C0, symSize: 0x24 }
  - { offsetInCU: 0x4F5CC, offset: 0x4F5CC, size: 0x8, addend: 0x0, symName: __ZNSt3__19make_pairB8ue170006IPNS_10shared_ptrI16DirectionalLightEES4_EENS_4pairINS_18__unwrap_ref_decayIT_E4typeENS6_IT0_E4typeEEEOS7_OSA_, symObjAddr: 0x43E38, symBinAddr: 0x1000488E4, symSize: 0x38 }
  - { offsetInCU: 0x4F61B, offset: 0x4F61B, size: 0x8, addend: 0x0, symName: __ZNSt3__114__rewrap_rangeB8ue170006IPNS_10shared_ptrI16DirectionalLightEES4_EET_S5_T0_, symObjAddr: 0x43E70, symBinAddr: 0x10004891C, symSize: 0x2C }
  - { offsetInCU: 0x4F667, offset: 0x4F667, size: 0x8, addend: 0x0, symName: __ZNSt3__113__rewrap_iterB8ue170006IPNS_10shared_ptrI16DirectionalLightEES4_NS_18__unwrap_iter_implIS4_Lb1EEEEET_S7_T0_, symObjAddr: 0x43E9C, symBinAddr: 0x100048948, symSize: 0x3C }
  - { offsetInCU: 0x4F6E0, offset: 0x4F6E0, size: 0x8, addend: 0x0, symName: __ZNSt3__14swapB8ue170006IP16DirectionalLightEENS_9enable_ifIXaasr21is_move_constructibleIT_EE5valuesr18is_move_assignableIS4_EE5valueEvE4typeERS4_S7_, symObjAddr: 0x43F98, symBinAddr: 0x100048A44, symSize: 0x3C }
  - { offsetInCU: 0x4F784, offset: 0x4F784, size: 0x8, addend: 0x0, symName: __ZNSt3__1eqB8ue170006IPNS_10shared_ptrI10PointLightEEEEbRKNS_11__wrap_iterIT_EES9_, symObjAddr: 0x4416C, symBinAddr: 0x100048C18, symSize: 0x48 }
  - { offsetInCU: 0x4F7C7, offset: 0x4F7C7, size: 0x8, addend: 0x0, symName: __ZNSt3__14findB8ue170006INS_11__wrap_iterIPNS_10shared_ptrI10PointLightEEEES4_EET_S7_S7_RKT0_, symObjAddr: 0x441CC, symBinAddr: 0x100048C78, symSize: 0x78 }
  - { offsetInCU: 0x4F82F, offset: 0x4F82F, size: 0x8, addend: 0x0, symName: __ZNSt3__113__rewrap_iterB8ue170006INS_11__wrap_iterIPNS_10shared_ptrI10PointLightEEEES5_NS_18__unwrap_iter_implIS6_Lb1EEEEET_S9_T0_, symObjAddr: 0x44314, symBinAddr: 0x100048DC0, symSize: 0x4C }
  - { offsetInCU: 0x4F884, offset: 0x4F884, size: 0x8, addend: 0x0, symName: __ZNSt3__111__find_implB8ue170006IPNS_10shared_ptrI10PointLightEES4_S3_NS_10__identityEEET_S6_T0_RKT1_RT2_, symObjAddr: 0x44360, symBinAddr: 0x100048E0C, symSize: 0x7C }
  - { offsetInCU: 0x4F8FE, offset: 0x4F8FE, size: 0x8, addend: 0x0, symName: __ZNSt3__113__unwrap_iterB8ue170006INS_11__wrap_iterIPNS_10shared_ptrI10PointLightEEEENS_18__unwrap_iter_implIS6_Lb1EEELi0EEEDTclsrT0_8__unwrapclsr3stdE7declvalIT_EEEESA_, symObjAddr: 0x443DC, symBinAddr: 0x100048E88, symSize: 0x2C }
  - { offsetInCU: 0x4F995, offset: 0x4F995, size: 0x8, addend: 0x0, symName: __ZNSt3__112__to_addressB8ue170006INS_11__wrap_iterIPNS_10shared_ptrI10PointLightEEEEvEEu7__decayIDTclsr19__to_address_helperIT_EE6__callclsr3stdE7declvalIRKS7_EEEEES9_, symObjAddr: 0x444A0, symBinAddr: 0x100048F4C, symSize: 0x24 }
  - { offsetInCU: 0x4FA71, offset: 0x4FA71, size: 0x8, addend: 0x0, symName: __ZNSt3__1eqB8ue170006I10PointLightS1_EEbRKNS_10shared_ptrIT_EERKNS2_IT0_EE, symObjAddr: 0x44548, symBinAddr: 0x100048FF4, symSize: 0x48 }
  - { offsetInCU: 0x4FAC0, offset: 0x4FAC0, size: 0x8, addend: 0x0, symName: __ZNSt3__18__invokeB8ue170006IRNS_10__identityEJRNS_10shared_ptrI10PointLightEEEEEDTclclsr3stdE7declvalIT_EEspclsr3stdE7declvalIT0_EEEEOS7_DpOS8_, symObjAddr: 0x44590, symBinAddr: 0x10004903C, symSize: 0x2C }
  - { offsetInCU: 0x4FB11, offset: 0x4FB11, size: 0x8, addend: 0x0, symName: __ZNSt3__1miB8ue170006IPKNS_10shared_ptrI10PointLightEES5_EEDTmicldtfp_4baseEcldtfp0_4baseEERKNS_11__wrap_iterIT_EERKNS7_IT0_EE, symObjAddr: 0x44614, symBinAddr: 0x1000490C0, symSize: 0x48 }
  - { offsetInCU: 0x4FB5D, offset: 0x4FB5D, size: 0x8, addend: 0x0, symName: __ZNSt3__14moveB8ue170006IPNS_10shared_ptrI10PointLightEES4_EET0_T_S6_S5_, symObjAddr: 0x446D4, symBinAddr: 0x100049180, symSize: 0x40 }
  - { offsetInCU: 0x4FBB7, offset: 0x4FBB7, size: 0x8, addend: 0x0, symName: __ZNSt3__16__moveB8ue170006INS_17_ClassicAlgPolicyEPNS_10shared_ptrI10PointLightEES5_S5_EENS_4pairIT0_T2_EES7_T1_S8_, symObjAddr: 0x44950, symBinAddr: 0x1000493FC, symSize: 0x44 }
  - { offsetInCU: 0x4FC23, offset: 0x4FC23, size: 0x8, addend: 0x0, symName: __ZNSt3__123__dispatch_copy_or_moveB8ue170006INS_17_ClassicAlgPolicyENS_11__move_loopIS1_EENS_14__move_trivialEPNS_10shared_ptrI10PointLightEES8_S8_EENS_4pairIT2_T4_EESA_T3_SB_, symObjAddr: 0x44994, symBinAddr: 0x100049440, symSize: 0x44 }
  - { offsetInCU: 0x4FCA1, offset: 0x4FCA1, size: 0x8, addend: 0x0, symName: __ZNSt3__121__unwrap_and_dispatchB8ue170006INS_10__overloadINS_11__move_loopINS_17_ClassicAlgPolicyEEENS_14__move_trivialEEEPNS_10shared_ptrI10PointLightEESA_SA_Li0EEENS_4pairIT0_T2_EESC_T1_SD_, symObjAddr: 0x449D8, symBinAddr: 0x100049484, symSize: 0xB4 }
  - { offsetInCU: 0x4FD2F, offset: 0x4FD2F, size: 0x8, addend: 0x0, symName: __ZNSt3__114__unwrap_rangeB8ue170006IPNS_10shared_ptrI10PointLightEES4_EENS_4pairIT0_S6_EET_S8_, symObjAddr: 0x44A8C, symBinAddr: 0x100049538, symSize: 0x60 }
  - { offsetInCU: 0x4FE4F, offset: 0x4FE4F, size: 0x8, addend: 0x0, symName: __ZNSt3__113__unwrap_iterB8ue170006IPNS_10shared_ptrI10PointLightEENS_18__unwrap_iter_implIS4_Lb1EEELi0EEEDTclsrT0_8__unwrapclsr3stdE7declvalIT_EEEES8_, symObjAddr: 0x44B7C, symBinAddr: 0x100049628, symSize: 0x24 }
  - { offsetInCU: 0x4FE93, offset: 0x4FE93, size: 0x8, addend: 0x0, symName: __ZNSt3__19make_pairB8ue170006IPNS_10shared_ptrI10PointLightEES4_EENS_4pairINS_18__unwrap_ref_decayIT_E4typeENS6_IT0_E4typeEEEOS7_OSA_, symObjAddr: 0x44BA0, symBinAddr: 0x10004964C, symSize: 0x38 }
  - { offsetInCU: 0x4FEE2, offset: 0x4FEE2, size: 0x8, addend: 0x0, symName: __ZNSt3__114__rewrap_rangeB8ue170006IPNS_10shared_ptrI10PointLightEES4_EET_S5_T0_, symObjAddr: 0x44BD8, symBinAddr: 0x100049684, symSize: 0x2C }
  - { offsetInCU: 0x4FF2E, offset: 0x4FF2E, size: 0x8, addend: 0x0, symName: __ZNSt3__113__rewrap_iterB8ue170006IPNS_10shared_ptrI10PointLightEES4_NS_18__unwrap_iter_implIS4_Lb1EEEEET_S7_T0_, symObjAddr: 0x44C04, symBinAddr: 0x1000496B0, symSize: 0x3C }
  - { offsetInCU: 0x4FFA7, offset: 0x4FFA7, size: 0x8, addend: 0x0, symName: __ZNSt3__14swapB8ue170006IP10PointLightEENS_9enable_ifIXaasr21is_move_constructibleIT_EE5valuesr18is_move_assignableIS4_EE5valueEvE4typeERS4_S7_, symObjAddr: 0x44D00, symBinAddr: 0x1000497AC, symSize: 0x3C }
  - { offsetInCU: 0x5004B, offset: 0x5004B, size: 0x8, addend: 0x0, symName: __ZNSt3__1eqB8ue170006IPNS_10shared_ptrI9SceneNodeEEEEbRKNS_11__wrap_iterIT_EES9_, symObjAddr: 0x44ED4, symBinAddr: 0x100049980, symSize: 0x48 }
  - { offsetInCU: 0x5008E, offset: 0x5008E, size: 0x8, addend: 0x0, symName: __ZNSt3__14findB8ue170006INS_11__wrap_iterIPNS_10shared_ptrI9SceneNodeEEEES4_EET_S7_S7_RKT0_, symObjAddr: 0x44F34, symBinAddr: 0x1000499E0, symSize: 0x78 }
  - { offsetInCU: 0x500F6, offset: 0x500F6, size: 0x8, addend: 0x0, symName: __ZNSt3__113__rewrap_iterB8ue170006INS_11__wrap_iterIPNS_10shared_ptrI9SceneNodeEEEES5_NS_18__unwrap_iter_implIS6_Lb1EEEEET_S9_T0_, symObjAddr: 0x4507C, symBinAddr: 0x100049B28, symSize: 0x4C }
  - { offsetInCU: 0x5014B, offset: 0x5014B, size: 0x8, addend: 0x0, symName: __ZNSt3__111__find_implB8ue170006IPNS_10shared_ptrI9SceneNodeEES4_S3_NS_10__identityEEET_S6_T0_RKT1_RT2_, symObjAddr: 0x450C8, symBinAddr: 0x100049B74, symSize: 0x7C }
  - { offsetInCU: 0x501C5, offset: 0x501C5, size: 0x8, addend: 0x0, symName: __ZNSt3__113__unwrap_iterB8ue170006INS_11__wrap_iterIPNS_10shared_ptrI9SceneNodeEEEENS_18__unwrap_iter_implIS6_Lb1EEELi0EEEDTclsrT0_8__unwrapclsr3stdE7declvalIT_EEEESA_, symObjAddr: 0x45144, symBinAddr: 0x100049BF0, symSize: 0x2C }
  - { offsetInCU: 0x5025C, offset: 0x5025C, size: 0x8, addend: 0x0, symName: __ZNSt3__112__to_addressB8ue170006INS_11__wrap_iterIPNS_10shared_ptrI9SceneNodeEEEEvEEu7__decayIDTclsr19__to_address_helperIT_EE6__callclsr3stdE7declvalIRKS7_EEEEES9_, symObjAddr: 0x45208, symBinAddr: 0x100049CB4, symSize: 0x24 }
  - { offsetInCU: 0x50338, offset: 0x50338, size: 0x8, addend: 0x0, symName: __ZNSt3__1eqB8ue170006I9SceneNodeS1_EEbRKNS_10shared_ptrIT_EERKNS2_IT0_EE, symObjAddr: 0x452B0, symBinAddr: 0x100049D5C, symSize: 0x48 }
  - { offsetInCU: 0x50387, offset: 0x50387, size: 0x8, addend: 0x0, symName: __ZNSt3__18__invokeB8ue170006IRNS_10__identityEJRNS_10shared_ptrI9SceneNodeEEEEEDTclclsr3stdE7declvalIT_EEspclsr3stdE7declvalIT0_EEEEOS7_DpOS8_, symObjAddr: 0x452F8, symBinAddr: 0x100049DA4, symSize: 0x2C }
  - { offsetInCU: 0x503D8, offset: 0x503D8, size: 0x8, addend: 0x0, symName: __ZNSt3__1miB8ue170006IPKNS_10shared_ptrI9SceneNodeEES5_EEDTmicldtfp_4baseEcldtfp0_4baseEERKNS_11__wrap_iterIT_EERKNS7_IT0_EE, symObjAddr: 0x4537C, symBinAddr: 0x100049E28, symSize: 0x48 }
  - { offsetInCU: 0x50424, offset: 0x50424, size: 0x8, addend: 0x0, symName: __ZNSt3__14moveB8ue170006IPNS_10shared_ptrI9SceneNodeEES4_EET0_T_S6_S5_, symObjAddr: 0x4543C, symBinAddr: 0x100049EE8, symSize: 0x40 }
  - { offsetInCU: 0x5047E, offset: 0x5047E, size: 0x8, addend: 0x0, symName: __ZNSt3__16__moveB8ue170006INS_17_ClassicAlgPolicyEPNS_10shared_ptrI9SceneNodeEES5_S5_EENS_4pairIT0_T2_EES7_T1_S8_, symObjAddr: 0x456B8, symBinAddr: 0x10004A164, symSize: 0x44 }
  - { offsetInCU: 0x504EA, offset: 0x504EA, size: 0x8, addend: 0x0, symName: __ZNSt3__123__dispatch_copy_or_moveB8ue170006INS_17_ClassicAlgPolicyENS_11__move_loopIS1_EENS_14__move_trivialEPNS_10shared_ptrI9SceneNodeEES8_S8_EENS_4pairIT2_T4_EESA_T3_SB_, symObjAddr: 0x456FC, symBinAddr: 0x10004A1A8, symSize: 0x44 }
  - { offsetInCU: 0x50568, offset: 0x50568, size: 0x8, addend: 0x0, symName: __ZNSt3__121__unwrap_and_dispatchB8ue170006INS_10__overloadINS_11__move_loopINS_17_ClassicAlgPolicyEEENS_14__move_trivialEEEPNS_10shared_ptrI9SceneNodeEESA_SA_Li0EEENS_4pairIT0_T2_EESC_T1_SD_, symObjAddr: 0x45740, symBinAddr: 0x10004A1EC, symSize: 0xB4 }
  - { offsetInCU: 0x505F6, offset: 0x505F6, size: 0x8, addend: 0x0, symName: __ZNSt3__114__unwrap_rangeB8ue170006IPNS_10shared_ptrI9SceneNodeEES4_EENS_4pairIT0_S6_EET_S8_, symObjAddr: 0x457F4, symBinAddr: 0x10004A2A0, symSize: 0x60 }
  - { offsetInCU: 0x50716, offset: 0x50716, size: 0x8, addend: 0x0, symName: __ZNSt3__113__unwrap_iterB8ue170006IPNS_10shared_ptrI9SceneNodeEENS_18__unwrap_iter_implIS4_Lb1EEELi0EEEDTclsrT0_8__unwrapclsr3stdE7declvalIT_EEEES8_, symObjAddr: 0x458E4, symBinAddr: 0x10004A390, symSize: 0x24 }
  - { offsetInCU: 0x5075A, offset: 0x5075A, size: 0x8, addend: 0x0, symName: __ZNSt3__19make_pairB8ue170006IPNS_10shared_ptrI9SceneNodeEES4_EENS_4pairINS_18__unwrap_ref_decayIT_E4typeENS6_IT0_E4typeEEEOS7_OSA_, symObjAddr: 0x45908, symBinAddr: 0x10004A3B4, symSize: 0x38 }
  - { offsetInCU: 0x507A9, offset: 0x507A9, size: 0x8, addend: 0x0, symName: __ZNSt3__114__rewrap_rangeB8ue170006IPNS_10shared_ptrI9SceneNodeEES4_EET_S5_T0_, symObjAddr: 0x45940, symBinAddr: 0x10004A3EC, symSize: 0x2C }
  - { offsetInCU: 0x507F5, offset: 0x507F5, size: 0x8, addend: 0x0, symName: __ZNSt3__113__rewrap_iterB8ue170006IPNS_10shared_ptrI9SceneNodeEES4_NS_18__unwrap_iter_implIS4_Lb1EEEEET_S7_T0_, symObjAddr: 0x4596C, symBinAddr: 0x10004A418, symSize: 0x3C }
  - { offsetInCU: 0x5086E, offset: 0x5086E, size: 0x8, addend: 0x0, symName: __ZNSt3__14swapB8ue170006IP9SceneNodeEENS_9enable_ifIXaasr21is_move_constructibleIT_EE5valuesr18is_move_assignableIS4_EE5valueEvE4typeERS4_S7_, symObjAddr: 0x45A68, symBinAddr: 0x10004A514, symSize: 0x3C }
  - { offsetInCU: 0x50912, offset: 0x50912, size: 0x8, addend: 0x0, symName: __ZNSt3__112__to_addressB8ue170006INS_10shared_ptrI9SpotLightEEEEPT_S5_, symObjAddr: 0x46A9C, symBinAddr: 0x10004B548, symSize: 0x14 }
  - { offsetInCU: 0x50947, offset: 0x50947, size: 0x8, addend: 0x0, symName: __ZNSt3__18distanceB8ue170006IPjEENS_15iterator_traitsIT_E15difference_typeES3_S3_, symObjAddr: 0x4A274, symBinAddr: 0x10004ED20, symSize: 0x2C }
  - { offsetInCU: 0x5098A, offset: 0x5098A, size: 0x8, addend: 0x0, symName: __ZNSt3__14nextB8ue170006IPjEENS_9enable_ifIXsr29__has_input_iterator_categoryIT_EE5valueES3_E4typeES3_NS_15iterator_traitsIS3_E15difference_typeE, symObjAddr: 0x4A2A0, symBinAddr: 0x10004ED4C, symSize: 0x34 }
  - { offsetInCU: 0x509CE, offset: 0x509CE, size: 0x8, addend: 0x0, symName: __ZNSt3__19__advanceB8ue170006IPjEEvRT_NS_15iterator_traitsIS2_E15difference_typeENS_26random_access_iterator_tagE, symObjAddr: 0x4A3EC, symBinAddr: 0x10004EE98, symSize: 0x28 }
  - { offsetInCU: 0x50A18, offset: 0x50A18, size: 0x8, addend: 0x0, symName: __ZNSt3__110__distanceB8ue170006IPjEENS_15iterator_traitsIT_E15difference_typeES3_S3_NS_26random_access_iterator_tagE, symObjAddr: 0x4A414, symBinAddr: 0x10004EEC0, symSize: 0x28 }
  - { offsetInCU: 0x50A66, offset: 0x50A66, size: 0x8, addend: 0x0, symName: __ZNSt3__1neB8ue170006ERKNS_16__deque_iteratorIjPjRjPS1_lLl1024EEES6_, symObjAddr: 0x4A9AC, symBinAddr: 0x10004F458, symSize: 0x34 }
  - { offsetInCU: 0x50AA4, offset: 0x50AA4, size: 0x8, addend: 0x0, symName: __ZNSt3__1eqB8ue170006ERKNS_16__deque_iteratorIjPjRjPS1_lLl1024EEES6_, symObjAddr: 0x4ACCC, symBinAddr: 0x10004F778, symSize: 0x30 }
  - { offsetInCU: 0x50AE1, offset: 0x50AE1, size: 0x8, addend: 0x0, symName: __ZNSt3__112__to_addressB8ue170006IPjEEPT_S3_, symObjAddr: 0x4B698, symBinAddr: 0x100050144, symSize: 0x14 }
  - { offsetInCU: 0x50F08, offset: 0x50F08, size: 0x8, addend: 0x0, symName: __ZNSt3__122__make_exception_guardB8ue170006INS_6vectorIfNS_9allocatorIfEEE16__destroy_vectorEEENS_28__exception_guard_exceptionsIT_EES7_, symObjAddr: 0x4C238, symBinAddr: 0x100050CE4, symSize: 0x40 }
  - { offsetInCU: 0x50F3D, offset: 0x50F3D, size: 0x8, addend: 0x0, symName: __ZNSt3__119__allocate_at_leastB8ue170006INS_9allocatorIfEEEENS_19__allocation_resultINS_16allocator_traitsIT_E7pointerEEERS5_m, symObjAddr: 0x4C638, symBinAddr: 0x1000510E4, symSize: 0x40 }
  - { offsetInCU: 0x50F80, offset: 0x50F80, size: 0x8, addend: 0x0, symName: __ZNSt3__112__to_addressB8ue170006IfEEPT_S2_, symObjAddr: 0x4C95C, symBinAddr: 0x100051408, symSize: 0x14 }
  - { offsetInCU: 0x50FB5, offset: 0x50FB5, size: 0x8, addend: 0x0, symName: __ZNSt3__130__uninitialized_allocator_copyB8ue170006INS_9allocatorIfEEPKfS4_PfEET2_RT_T0_T1_S6_, symObjAddr: 0x4CA0C, symBinAddr: 0x1000514B8, symSize: 0x80 }
  - { offsetInCU: 0x51052, offset: 0x51052, size: 0x8, addend: 0x0, symName: __ZNSt3__114__unwrap_rangeB8ue170006IPKfS2_EENS_4pairIT0_S4_EET_S6_, symObjAddr: 0x4CAFC, symBinAddr: 0x1000515A8, symSize: 0x60 }
  - { offsetInCU: 0x5109E, offset: 0x5109E, size: 0x8, addend: 0x0, symName: __ZNSt3__135__uninitialized_allocator_copy_implB8ue170006INS_9allocatorIfEEKfffLPv0EEEPT2_RT_PT0_SA_S6_, symObjAddr: 0x4CB5C, symBinAddr: 0x100051608, symSize: 0x38 }
  - { offsetInCU: 0x51120, offset: 0x51120, size: 0x8, addend: 0x0, symName: __ZNSt3__113__unwrap_iterB8ue170006IPfNS_18__unwrap_iter_implIS1_Lb1EEELi0EEEDTclsrT0_8__unwrapclsr3stdE7declvalIT_EEEES5_, symObjAddr: 0x4CB94, symBinAddr: 0x100051640, symSize: 0x24 }
  - { offsetInCU: 0x51164, offset: 0x51164, size: 0x8, addend: 0x0, symName: __ZNSt3__113__rewrap_iterB8ue170006IPfS1_NS_18__unwrap_iter_implIS1_Lb1EEEEET_S4_T0_, symObjAddr: 0x4CBB8, symBinAddr: 0x100051664, symSize: 0x3C }
  - { offsetInCU: 0x511B9, offset: 0x511B9, size: 0x8, addend: 0x0, symName: __ZNSt3__19make_pairB8ue170006IPKfS2_EENS_4pairINS_18__unwrap_ref_decayIT_E4typeENS4_IT0_E4typeEEEOS5_OS8_, symObjAddr: 0x4CBF4, symBinAddr: 0x1000516A0, symSize: 0x38 }
  - { offsetInCU: 0x51208, offset: 0x51208, size: 0x8, addend: 0x0, symName: __ZNSt3__113__unwrap_iterB8ue170006IPKfNS_18__unwrap_iter_implIS2_Lb1EEELi0EEEDTclsrT0_8__unwrapclsr3stdE7declvalIT_EEEES6_, symObjAddr: 0x4CC2C, symBinAddr: 0x1000516D8, symSize: 0x24 }
  - { offsetInCU: 0x51373, offset: 0x51373, size: 0x8, addend: 0x0, symName: __ZNSt3__112__to_addressB8ue170006IKfEEPT_S3_, symObjAddr: 0x4CCE4, symBinAddr: 0x100051790, symSize: 0x14 }
  - { offsetInCU: 0x513A8, offset: 0x513A8, size: 0x8, addend: 0x0, symName: __ZNSt3__14copyB8ue170006IPKfPfEET0_T_S5_S4_, symObjAddr: 0x4CCF8, symBinAddr: 0x1000517A4, symSize: 0x40 }
  - { offsetInCU: 0x51402, offset: 0x51402, size: 0x8, addend: 0x0, symName: __ZNSt3__16__copyB8ue170006INS_17_ClassicAlgPolicyEPKfS3_PfEENS_4pairIT0_T2_EES6_T1_S7_, symObjAddr: 0x4CD38, symBinAddr: 0x1000517E4, symSize: 0x44 }
  - { offsetInCU: 0x5146E, offset: 0x5146E, size: 0x8, addend: 0x0, symName: __ZNSt3__123__dispatch_copy_or_moveB8ue170006INS_17_ClassicAlgPolicyENS_11__copy_loopIS1_EENS_14__copy_trivialEPKfS6_PfEENS_4pairIT2_T4_EES9_T3_SA_, symObjAddr: 0x4CD7C, symBinAddr: 0x100051828, symSize: 0x44 }
  - { offsetInCU: 0x514EC, offset: 0x514EC, size: 0x8, addend: 0x0, symName: __ZNSt3__121__unwrap_and_dispatchB8ue170006INS_10__overloadINS_11__copy_loopINS_17_ClassicAlgPolicyEEENS_14__copy_trivialEEEPKfS8_PfLi0EEENS_4pairIT0_T2_EESB_T1_SC_, symObjAddr: 0x4CDC0, symBinAddr: 0x10005186C, symSize: 0xB4 }
  - { offsetInCU: 0x5167D, offset: 0x5167D, size: 0x8, addend: 0x0, symName: __ZNSt3__19make_pairB8ue170006IPKfPfEENS_4pairINS_18__unwrap_ref_decayIT_E4typeENS5_IT0_E4typeEEEOS6_OS9_, symObjAddr: 0x4CEBC, symBinAddr: 0x100051968, symSize: 0x38 }
  - { offsetInCU: 0x516CC, offset: 0x516CC, size: 0x8, addend: 0x0, symName: __ZNSt3__114__rewrap_rangeB8ue170006IPKfS2_EET_S3_T0_, symObjAddr: 0x4CEF4, symBinAddr: 0x1000519A0, symSize: 0x2C }
  - { offsetInCU: 0x51718, offset: 0x51718, size: 0x8, addend: 0x0, symName: __ZNSt3__119__copy_trivial_implB8ue170006IKffEENS_4pairIPT_PT0_EES4_S4_S6_, symObjAddr: 0x4CF20, symBinAddr: 0x1000519CC, symSize: 0x80 }
  - { offsetInCU: 0x51780, offset: 0x51780, size: 0x8, addend: 0x0, symName: __ZNSt3__119__constexpr_memmoveB8ue170006IfKfLi0EEEPT_S3_PT0_NS_15__element_countE, symObjAddr: 0x4CFA0, symBinAddr: 0x100051A4C, symSize: 0x64 }
  - { offsetInCU: 0x517EE, offset: 0x517EE, size: 0x8, addend: 0x0, symName: __ZNSt3__19make_pairB8ue170006IRPKfPfEENS_4pairINS_18__unwrap_ref_decayIT_E4typeENS6_IT0_E4typeEEEOS7_OSA_, symObjAddr: 0x4D004, symBinAddr: 0x100051AB0, symSize: 0x38 }
  - { offsetInCU: 0x5183D, offset: 0x5183D, size: 0x8, addend: 0x0, symName: __ZNSt3__113__rewrap_iterB8ue170006IPKfS2_NS_18__unwrap_iter_implIS2_Lb1EEEEET_S5_T0_, symObjAddr: 0x4D11C, symBinAddr: 0x100051BC8, symSize: 0x3C }
  - { offsetInCU: 0x5191C, offset: 0x5191C, size: 0x8, addend: 0x0, symName: __ZNSt3__116forward_as_tupleB8ue170006IJRK8Tex_TypeEEENS_5tupleIJDpOT_EEES7_, symObjAddr: 0x4D7A4, symBinAddr: 0x100052250, symSize: 0x2C }
  - { offsetInCU: 0x51956, offset: 0x51956, size: 0x8, addend: 0x0, symName: __ZNSt3__116forward_as_tupleB8ue170006IJEEENS_5tupleIJDpOT_EEES4_, symObjAddr: 0x4D7D0, symBinAddr: 0x10005227C, symSize: 0x4 }
  - { offsetInCU: 0x5197A, offset: 0x5197A, size: 0x8, addend: 0x0, symName: __ZNSt3__17launderB8ue170006IKNS_4pairIK8Tex_TypeNS_10shared_ptrI3TexEEEEEEPT_SA_, symObjAddr: 0x4DDC0, symBinAddr: 0x10005286C, symSize: 0x24 }
  - { offsetInCU: 0x519B2, offset: 0x519B2, size: 0x8, addend: 0x0, symName: __ZNSt3__19__launderB8ue170006IKNS_4pairIK8Tex_TypeNS_10shared_ptrI3TexEEEEEEPT_SA_, symObjAddr: 0x4DDE4, symBinAddr: 0x100052890, symSize: 0x14 }
  - { offsetInCU: 0x51A13, offset: 0x51A13, size: 0x8, addend: 0x0, symName: __ZNSt3__13getB8ue170006ILm0EJRK8Tex_TypeEEERNS_13tuple_elementIXT_ENS_5tupleIJDpT0_EEEE4typeERS8_, symObjAddr: 0x4E234, symBinAddr: 0x100052CE0, symSize: 0x24 }
  - { offsetInCU: 0x51A7A, offset: 0x51A7A, size: 0x8, addend: 0x0, symName: __ZNSt3__118generate_canonicalB8ue170006IfLm24ENS_26linear_congruential_engineIjLj48271ELj0ELj2147483647EEEEET_RT1_, symObjAddr: 0x4EE50, symBinAddr: 0x1000538FC, symSize: 0x110 }
  - { offsetInCU: 0x5274D, offset: 0x5274D, size: 0x8, addend: 0x0, symName: __ZNSt3__17launderB8ue170006INS_4pairIKNS_12basic_stringIcNS_11char_traitsIcEENS_9allocatorIcEEEENS_10shared_ptrI5ModelEEEEEEPT_SE_, symObjAddr: 0x5012C, symBinAddr: 0x100054BD8, symSize: 0x24 }
  - { offsetInCU: 0x52785, offset: 0x52785, size: 0x8, addend: 0x0, symName: __ZNSt3__19__launderB8ue170006INS_4pairIKNS_12basic_stringIcNS_11char_traitsIcEENS_9allocatorIcEEEENS_10shared_ptrI5ModelEEEEEEPT_SE_, symObjAddr: 0x50150, symBinAddr: 0x100054BFC, symSize: 0x14 }
  - { offsetInCU: 0x527BC, offset: 0x527BC, size: 0x8, addend: 0x0, symName: __ZNSt3__17launderB8ue170006INS_4pairIKNS_12basic_stringIcNS_11char_traitsIcEENS_9allocatorIcEEEENS_10shared_ptrI5ShapeEEEEEEPT_SE_, symObjAddr: 0x507BC, symBinAddr: 0x100055268, symSize: 0x24 }
  - { offsetInCU: 0x527F4, offset: 0x527F4, size: 0x8, addend: 0x0, symName: __ZNSt3__19__launderB8ue170006INS_4pairIKNS_12basic_stringIcNS_11char_traitsIcEENS_9allocatorIcEEEENS_10shared_ptrI5ShapeEEEEEEPT_SE_, symObjAddr: 0x507E0, symBinAddr: 0x10005528C, symSize: 0x14 }
  - { offsetInCU: 0x5282B, offset: 0x5282B, size: 0x8, addend: 0x0, symName: __ZNSt3__17launderB8ue170006INS_4pairIKNS_12basic_stringIcNS_11char_traitsIcEENS_9allocatorIcEEEENS_10shared_ptrI3TexEEEEEEPT_SE_, symObjAddr: 0x50E4C, symBinAddr: 0x1000558F8, symSize: 0x24 }
  - { offsetInCU: 0x52863, offset: 0x52863, size: 0x8, addend: 0x0, symName: __ZNSt3__19__launderB8ue170006INS_4pairIKNS_12basic_stringIcNS_11char_traitsIcEENS_9allocatorIcEEEENS_10shared_ptrI3TexEEEEEEPT_SE_, symObjAddr: 0x50E70, symBinAddr: 0x10005591C, symSize: 0x14 }
  - { offsetInCU: 0x5289A, offset: 0x5289A, size: 0x8, addend: 0x0, symName: __ZNSt3__17launderB8ue170006INS_4pairIKNS_12basic_stringIcNS_11char_traitsIcEENS_9allocatorIcEEEENS_10shared_ptrI6ShaderEEEEEEPT_SE_, symObjAddr: 0x514DC, symBinAddr: 0x100055F88, symSize: 0x24 }
  - { offsetInCU: 0x528D2, offset: 0x528D2, size: 0x8, addend: 0x0, symName: __ZNSt3__19__launderB8ue170006INS_4pairIKNS_12basic_stringIcNS_11char_traitsIcEENS_9allocatorIcEEEENS_10shared_ptrI6ShaderEEEEEEPT_SE_, symObjAddr: 0x51500, symBinAddr: 0x100055FAC, symSize: 0x14 }
  - { offsetInCU: 0x52912, offset: 0x52912, size: 0x8, addend: 0x0, symName: __ZNSt3__17launderB8ue170006IKNS_4pairIKNS_12basic_stringIcNS_11char_traitsIcEENS_9allocatorIcEEEENS_10shared_ptrI3TexEEEEEEPT_SF_, symObjAddr: 0x51D9C, symBinAddr: 0x100056848, symSize: 0x24 }
  - { offsetInCU: 0x5294A, offset: 0x5294A, size: 0x8, addend: 0x0, symName: __ZNSt3__19__launderB8ue170006IKNS_4pairIKNS_12basic_stringIcNS_11char_traitsIcEENS_9allocatorIcEEEENS_10shared_ptrI3TexEEEEEEPT_SF_, symObjAddr: 0x51DC0, symBinAddr: 0x10005686C, symSize: 0x14 }
  - { offsetInCU: 0x53545, offset: 0x53545, size: 0x8, addend: 0x0, symName: __ZNSt3__17launderB8ue170006IKNS_4pairIKNS_12basic_stringIcNS_11char_traitsIcEENS_9allocatorIcEEEENS_10shared_ptrI6ShaderEEEEEEPT_SF_, symObjAddr: 0x536F0, symBinAddr: 0x10005819C, symSize: 0x24 }
  - { offsetInCU: 0x5357D, offset: 0x5357D, size: 0x8, addend: 0x0, symName: __ZNSt3__19__launderB8ue170006IKNS_4pairIKNS_12basic_stringIcNS_11char_traitsIcEENS_9allocatorIcEEEENS_10shared_ptrI6ShaderEEEEEEPT_SF_, symObjAddr: 0x53714, symBinAddr: 0x1000581C0, symSize: 0x14 }
  - { offsetInCU: 0x54178, offset: 0x54178, size: 0x8, addend: 0x0, symName: __ZNSt3__17launderB8ue170006IKNS_4pairIKNS_12basic_stringIcNS_11char_traitsIcEENS_9allocatorIcEEEENS_10shared_ptrI5ModelEEEEEEPT_SF_, symObjAddr: 0x55130, symBinAddr: 0x100059BDC, symSize: 0x24 }
  - { offsetInCU: 0x541B0, offset: 0x541B0, size: 0x8, addend: 0x0, symName: __ZNSt3__19__launderB8ue170006IKNS_4pairIKNS_12basic_stringIcNS_11char_traitsIcEENS_9allocatorIcEEEENS_10shared_ptrI5ModelEEEEEEPT_SF_, symObjAddr: 0x55154, symBinAddr: 0x100059C00, symSize: 0x14 }
  - { offsetInCU: 0x54DAB, offset: 0x54DAB, size: 0x8, addend: 0x0, symName: __ZNSt3__17launderB8ue170006IKNS_4pairIKNS_12basic_stringIcNS_11char_traitsIcEENS_9allocatorIcEEEENS_10shared_ptrI5ShapeEEEEEEPT_SF_, symObjAddr: 0x56B54, symBinAddr: 0x10005B600, symSize: 0x24 }
  - { offsetInCU: 0x54DE3, offset: 0x54DE3, size: 0x8, addend: 0x0, symName: __ZNSt3__19__launderB8ue170006IKNS_4pairIKNS_12basic_stringIcNS_11char_traitsIcEENS_9allocatorIcEEEENS_10shared_ptrI5ShapeEEEEEEPT_SF_, symObjAddr: 0x56B78, symBinAddr: 0x10005B624, symSize: 0x14 }
  - { offsetInCU: 0x56585, offset: 0x56585, size: 0x8, addend: 0x0, symName: __ZNSt3__1eqB8ue170006ERKNS_15__tree_iteratorINS_12__value_typeINS_12basic_stringIcNS_11char_traitsIcEENS_9allocatorIcEEEENS_10shared_ptrI5ModelEEEEPNS_11__tree_nodeISB_PvEElEESI_, symObjAddr: 0x589E0, symBinAddr: 0x10005D48C, symSize: 0x30 }
  - { offsetInCU: 0x565C2, offset: 0x565C2, size: 0x8, addend: 0x0, symName: __ZNSt3__1neB8ue170006ERKNS_15__tree_iteratorINS_12__value_typeINS_12basic_stringIcNS_11char_traitsIcEENS_9allocatorIcEEEENS_10shared_ptrI5ModelEEEEPNS_11__tree_nodeISB_PvEElEESI_, symObjAddr: 0x58BB4, symBinAddr: 0x10005D660, symSize: 0x34 }
  - { offsetInCU: 0x56600, offset: 0x56600, size: 0x8, addend: 0x0, symName: __ZNSt3__113__tree_removeB8ue170006IPNS_16__tree_node_baseIPvEEEEvT_S5_, symObjAddr: 0x58DA8, symBinAddr: 0x10005D854, symSize: 0x6E0 }
  - { offsetInCU: 0x5667E, offset: 0x5667E, size: 0x8, addend: 0x0, symName: __ZNSt3__111__tree_nextB8ue170006IPNS_16__tree_node_baseIPvEEEET_S5_, symObjAddr: 0x59488, symBinAddr: 0x10005DF34, symSize: 0x80 }
  - { offsetInCU: 0x566B4, offset: 0x566B4, size: 0x8, addend: 0x0, symName: __ZNSt3__1eqB8ue170006ERKNS_15__tree_iteratorINS_12__value_typeINS_12basic_stringIcNS_11char_traitsIcEENS_9allocatorIcEEEENS_10shared_ptrI5ShapeEEEEPNS_11__tree_nodeISB_PvEElEESI_, symObjAddr: 0x596C0, symBinAddr: 0x10005E16C, symSize: 0x30 }
  - { offsetInCU: 0x566F1, offset: 0x566F1, size: 0x8, addend: 0x0, symName: __ZNSt3__1neB8ue170006ERKNS_15__tree_iteratorINS_12__value_typeINS_12basic_stringIcNS_11char_traitsIcEENS_9allocatorIcEEEENS_10shared_ptrI5ShapeEEEEPNS_11__tree_nodeISB_PvEElEESI_, symObjAddr: 0x59894, symBinAddr: 0x10005E340, symSize: 0x34 }
  - { offsetInCU: 0x5672F, offset: 0x5672F, size: 0x8, addend: 0x0, symName: __ZNSt3__1eqB8ue170006ERKNS_15__tree_iteratorINS_12__value_typeINS_12basic_stringIcNS_11char_traitsIcEENS_9allocatorIcEEEENS_10shared_ptrI3TexEEEEPNS_11__tree_nodeISB_PvEElEESI_, symObjAddr: 0x59C40, symBinAddr: 0x10005E6EC, symSize: 0x30 }
  - { offsetInCU: 0x5676C, offset: 0x5676C, size: 0x8, addend: 0x0, symName: __ZNSt3__1neB8ue170006ERKNS_15__tree_iteratorINS_12__value_typeINS_12basic_stringIcNS_11char_traitsIcEENS_9allocatorIcEEEENS_10shared_ptrI3TexEEEEPNS_11__tree_nodeISB_PvEElEESI_, symObjAddr: 0x59E14, symBinAddr: 0x10005E8C0, symSize: 0x34 }
  - { offsetInCU: 0x56875, offset: 0x56875, size: 0x8, addend: 0x0, symName: __ZNSt3__17launderB8ue170006IKNS_4pairIK8Tex_TypeNS_12basic_stringIcNS_11char_traitsIcEENS_9allocatorIcEEEEEEEEPT_SD_, symObjAddr: 0x5A5B0, symBinAddr: 0x10005F05C, symSize: 0x24 }
  - { offsetInCU: 0x568AD, offset: 0x568AD, size: 0x8, addend: 0x0, symName: __ZNSt3__19__launderB8ue170006IKNS_4pairIK8Tex_TypeNS_12basic_stringIcNS_11char_traitsIcEENS_9allocatorIcEEEEEEEEPT_SD_, symObjAddr: 0x5A5D4, symBinAddr: 0x10005F080, symSize: 0x14 }
  - { offsetInCU: 0x56935, offset: 0x56935, size: 0x8, addend: 0x0, symName: __ZNSt3__1neB8ue170006ERKNS_15__tree_iteratorINS_12__value_typeI8Tex_TypeNS_12basic_stringIcNS_11char_traitsIcEENS_9allocatorIcEEEEEEPNS_11__tree_nodeIS9_PvEElEESG_, symObjAddr: 0x5B3B8, symBinAddr: 0x10005FE64, symSize: 0x34 }
  - { offsetInCU: 0x56973, offset: 0x56973, size: 0x8, addend: 0x0, symName: __ZNSt3__1eqB8ue170006ERKNS_15__tree_iteratorINS_12__value_typeI8Tex_TypeNS_12basic_stringIcNS_11char_traitsIcEENS_9allocatorIcEEEEEEPNS_11__tree_nodeIS9_PvEElEESG_, symObjAddr: 0x5B3EC, symBinAddr: 0x10005FE98, symSize: 0x30 }
  - { offsetInCU: 0x569B0, offset: 0x569B0, size: 0x8, addend: 0x0, symName: __ZNSt3__116forward_as_tupleB8ue170006IJRKNS_12basic_stringIcNS_11char_traitsIcEENS_9allocatorIcEEEEEEENS_5tupleIJDpOT_EEESC_, symObjAddr: 0x5B554, symBinAddr: 0x100060000, symSize: 0x2C }
  - { offsetInCU: 0x569E9, offset: 0x569E9, size: 0x8, addend: 0x0, symName: __ZNSt3__13getB8ue170006ILm0EJRKNS_12basic_stringIcNS_11char_traitsIcEENS_9allocatorIcEEEEEEERNS_13tuple_elementIXT_ENS_5tupleIJDpT0_EEEE4typeERSD_, symObjAddr: 0x5B7F0, symBinAddr: 0x10006029C, symSize: 0x24 }
  - { offsetInCU: 0x56AA7, offset: 0x56AA7, size: 0x8, addend: 0x0, symName: __ZNSt3__18distanceB8ue170006INS_11__wrap_iterIPfEEEENS_15iterator_traitsIT_E15difference_typeES5_S5_, symObjAddr: 0x5C338, symBinAddr: 0x100060DE4, symSize: 0x3C }
  - { offsetInCU: 0x56AEA, offset: 0x56AEA, size: 0x8, addend: 0x0, symName: __ZNSt3__110__distanceB8ue170006INS_11__wrap_iterIPfEEEENS_15iterator_traitsIT_E15difference_typeES5_S5_NS_26random_access_iterator_tagE, symObjAddr: 0x5C43C, symBinAddr: 0x100060EE8, symSize: 0x30 }
  - { offsetInCU: 0x56B38, offset: 0x56B38, size: 0x8, addend: 0x0, symName: __ZNSt3__1miB8ue170006IPfS1_EEDTmicldtfp_4baseEcldtfp0_4baseEERKNS_11__wrap_iterIT_EERKNS3_IT0_EE, symObjAddr: 0x5C46C, symBinAddr: 0x100060F18, symSize: 0x48 }
  - { offsetInCU: 0x56B84, offset: 0x56B84, size: 0x8, addend: 0x0, symName: __ZNSt3__130__uninitialized_allocator_copyB8ue170006INS_9allocatorIfEENS_11__wrap_iterIPfEES5_S4_EET2_RT_T0_T1_S6_, symObjAddr: 0x5C568, symBinAddr: 0x100061014, symSize: 0x90 }
  - { offsetInCU: 0x56C21, offset: 0x56C21, size: 0x8, addend: 0x0, symName: __ZNSt3__114__unwrap_rangeB8ue170006INS_11__wrap_iterIPfEES2_EENS_4pairIT0_S5_EET_S7_, symObjAddr: 0x5C5F8, symBinAddr: 0x1000610A4, symSize: 0x70 }
  - { offsetInCU: 0x56C6D, offset: 0x56C6D, size: 0x8, addend: 0x0, symName: __ZNSt3__135__uninitialized_allocator_copy_implB8ue170006INS_9allocatorIfEEfffLPv0EEEPT2_RT_PT0_S9_S5_, symObjAddr: 0x5C668, symBinAddr: 0x100061114, symSize: 0x38 }
  - { offsetInCU: 0x56CEF, offset: 0x56CEF, size: 0x8, addend: 0x0, symName: __ZNSt3__19make_pairB8ue170006IPfS1_EENS_4pairINS_18__unwrap_ref_decayIT_E4typeENS3_IT0_E4typeEEEOS4_OS7_, symObjAddr: 0x5C6A0, symBinAddr: 0x10006114C, symSize: 0x38 }
  - { offsetInCU: 0x56D3E, offset: 0x56D3E, size: 0x8, addend: 0x0, symName: __ZNSt3__113__unwrap_iterB8ue170006INS_11__wrap_iterIPfEENS_18__unwrap_iter_implIS3_Lb1EEELi0EEEDTclsrT0_8__unwrapclsr3stdE7declvalIT_EEEES7_, symObjAddr: 0x5C6D8, symBinAddr: 0x100061184, symSize: 0x2C }
  - { offsetInCU: 0x56ED8, offset: 0x56ED8, size: 0x8, addend: 0x0, symName: __ZNSt3__112__to_addressB8ue170006INS_11__wrap_iterIPfEEvEEu7__decayIDTclsr19__to_address_helperIT_EE6__callclsr3stdE7declvalIRKS4_EEEEES6_, symObjAddr: 0x5C79C, symBinAddr: 0x100061248, symSize: 0x24 }
  - { offsetInCU: 0x56FB4, offset: 0x56FB4, size: 0x8, addend: 0x0, symName: __ZNSt3__14copyB8ue170006IPfS1_EET0_T_S3_S2_, symObjAddr: 0x5C81C, symBinAddr: 0x1000612C8, symSize: 0x40 }
  - { offsetInCU: 0x5700E, offset: 0x5700E, size: 0x8, addend: 0x0, symName: __ZNSt3__16__copyB8ue170006INS_17_ClassicAlgPolicyEPfS2_S2_EENS_4pairIT0_T2_EES4_T1_S5_, symObjAddr: 0x5C85C, symBinAddr: 0x100061308, symSize: 0x44 }
  - { offsetInCU: 0x5707A, offset: 0x5707A, size: 0x8, addend: 0x0, symName: __ZNSt3__123__dispatch_copy_or_moveB8ue170006INS_17_ClassicAlgPolicyENS_11__copy_loopIS1_EENS_14__copy_trivialEPfS5_S5_EENS_4pairIT2_T4_EES7_T3_S8_, symObjAddr: 0x5C8A0, symBinAddr: 0x10006134C, symSize: 0x44 }
  - { offsetInCU: 0x570F8, offset: 0x570F8, size: 0x8, addend: 0x0, symName: __ZNSt3__121__unwrap_and_dispatchB8ue170006INS_10__overloadINS_11__copy_loopINS_17_ClassicAlgPolicyEEENS_14__copy_trivialEEEPfS7_S7_Li0EEENS_4pairIT0_T2_EES9_T1_SA_, symObjAddr: 0x5C8E4, symBinAddr: 0x100061390, symSize: 0xB4 }
  - { offsetInCU: 0x57186, offset: 0x57186, size: 0x8, addend: 0x0, symName: __ZNSt3__114__unwrap_rangeB8ue170006IPfS1_EENS_4pairIT0_S3_EET_S5_, symObjAddr: 0x5C998, symBinAddr: 0x100061444, symSize: 0x60 }
  - { offsetInCU: 0x571D2, offset: 0x571D2, size: 0x8, addend: 0x0, symName: __ZNSt3__114__rewrap_rangeB8ue170006IPfS1_EET_S2_T0_, symObjAddr: 0x5CA40, symBinAddr: 0x1000614EC, symSize: 0x2C }
  - { offsetInCU: 0x5721E, offset: 0x5721E, size: 0x8, addend: 0x0, symName: __ZNSt3__119__copy_trivial_implB8ue170006IffEENS_4pairIPT_PT0_EES3_S3_S5_, symObjAddr: 0x5CA6C, symBinAddr: 0x100061518, symSize: 0x80 }
  - { offsetInCU: 0x57286, offset: 0x57286, size: 0x8, addend: 0x0, symName: __ZNSt3__119__constexpr_memmoveB8ue170006IffLi0EEEPT_S2_PT0_NS_15__element_countE, symObjAddr: 0x5CAEC, symBinAddr: 0x100061598, symSize: 0x64 }
  - { offsetInCU: 0x572F4, offset: 0x572F4, size: 0x8, addend: 0x0, symName: __ZNSt3__19make_pairB8ue170006IRPfS1_EENS_4pairINS_18__unwrap_ref_decayIT_E4typeENS4_IT0_E4typeEEEOS5_OS8_, symObjAddr: 0x5CB50, symBinAddr: 0x1000615FC, symSize: 0x38 }
  - { offsetInCU: 0x57343, offset: 0x57343, size: 0x8, addend: 0x0, symName: __ZNSt3__142__uninitialized_allocator_move_if_noexceptB8ue170006INS_9allocatorIfEENS_16reverse_iteratorIPfEES5_fvEET1_RT_T0_S9_S6_, symObjAddr: 0x5D4A0, symBinAddr: 0x100061F4C, symSize: 0x78 }
  - { offsetInCU: 0x573C1, offset: 0x573C1, size: 0x8, addend: 0x0, symName: __ZNSt3__14swapB8ue170006IPfEENS_9enable_ifIXaasr21is_move_constructibleIT_EE5valuesr18is_move_assignableIS3_EE5valueEvE4typeERS3_S6_, symObjAddr: 0x5D564, symBinAddr: 0x100062010, symSize: 0x3C }
  - { offsetInCU: 0x57412, offset: 0x57412, size: 0x8, addend: 0x0, symName: __ZNSt3__14moveB8ue170006INS_16reverse_iteratorIPfEES3_EET0_T_S5_S4_, symObjAddr: 0x5D5A0, symBinAddr: 0x10006204C, symSize: 0x78 }
  - { offsetInCU: 0x5746C, offset: 0x5746C, size: 0x8, addend: 0x0, symName: __ZNSt3__16__moveB8ue170006INS_17_ClassicAlgPolicyENS_16reverse_iteratorIPfEES4_S4_EENS_4pairIT0_T2_EES6_T1_S7_, symObjAddr: 0x5D618, symBinAddr: 0x1000620C4, symSize: 0x64 }
  - { offsetInCU: 0x574D8, offset: 0x574D8, size: 0x8, addend: 0x0, symName: __ZNSt3__123__dispatch_copy_or_moveB8ue170006INS_17_ClassicAlgPolicyENS_11__move_loopIS1_EENS_14__move_trivialENS_16reverse_iteratorIPfEES7_S7_EENS_4pairIT2_T4_EES9_T3_SA_, symObjAddr: 0x5D67C, symBinAddr: 0x100062128, symSize: 0x64 }
  - { offsetInCU: 0x57556, offset: 0x57556, size: 0x8, addend: 0x0, symName: __ZNSt3__121__unwrap_and_dispatchB8ue170006INS_10__overloadINS_11__move_loopINS_17_ClassicAlgPolicyEEENS_14__move_trivialEEENS_16reverse_iteratorIPfEES9_S9_Li0EEENS_4pairIT0_T2_EESB_T1_SC_, symObjAddr: 0x5D6E0, symBinAddr: 0x10006218C, symSize: 0x12C }
  - { offsetInCU: 0x575E6, offset: 0x575E6, size: 0x8, addend: 0x0, symName: __ZNSt3__114__unwrap_rangeB8ue170006INS_16reverse_iteratorIPfEES3_EENS_4pairIT0_S5_EET_S7_, symObjAddr: 0x5D80C, symBinAddr: 0x1000622B8, symSize: 0x84 }
  - { offsetInCU: 0x57706, offset: 0x57706, size: 0x8, addend: 0x0, symName: __ZNSt3__113__unwrap_iterB8ue170006INS_16reverse_iteratorIPfEENS_18__unwrap_iter_implIS3_Lb0EEELi0EEEDTclsrT0_8__unwrapclsr3stdE7declvalIT_EEEES7_, symObjAddr: 0x5D930, symBinAddr: 0x1000623DC, symSize: 0x44 }
  - { offsetInCU: 0x5774A, offset: 0x5774A, size: 0x8, addend: 0x0, symName: __ZNSt3__19make_pairB8ue170006INS_16reverse_iteratorIPfEES3_EENS_4pairINS_18__unwrap_ref_decayIT_E4typeENS5_IT0_E4typeEEEOS6_OS9_, symObjAddr: 0x5D974, symBinAddr: 0x100062420, symSize: 0x38 }
  - { offsetInCU: 0x57799, offset: 0x57799, size: 0x8, addend: 0x0, symName: __ZNSt3__114__rewrap_rangeB8ue170006INS_16reverse_iteratorIPfEES3_EET_S4_T0_, symObjAddr: 0x5D9AC, symBinAddr: 0x100062458, symSize: 0x5C }
  - { offsetInCU: 0x577E5, offset: 0x577E5, size: 0x8, addend: 0x0, symName: __ZNSt3__113__rewrap_iterB8ue170006INS_16reverse_iteratorIPfEES3_NS_18__unwrap_iter_implIS3_Lb0EEEEET_S6_T0_, symObjAddr: 0x5DA08, symBinAddr: 0x1000624B4, symSize: 0x74 }
  - { offsetInCU: 0x5783A, offset: 0x5783A, size: 0x8, addend: 0x0, symName: __ZNSt3__1neB8ue170006IPfS1_EEbRKNS_16reverse_iteratorIT_EERKNS2_IT0_EE, symObjAddr: 0x5DA7C, symBinAddr: 0x100062528, symSize: 0x48 }
  - { offsetInCU: 0x57C97, offset: 0x57C97, size: 0x8, addend: 0x0, symName: __ZNSt3__14swapB8ue170006IPPjEENS_9enable_ifIXaasr21is_move_constructibleIT_EE5valuesr18is_move_assignableIS4_EE5valueEvE4typeERS4_S7_, symObjAddr: 0x5F368, symBinAddr: 0x100063E14, symSize: 0x3C }
  - { offsetInCU: 0x57CE8, offset: 0x57CE8, size: 0x8, addend: 0x0, symName: __ZNSt3__14moveB8ue170006IPPjS2_EET0_T_S4_S3_, symObjAddr: 0x5F44C, symBinAddr: 0x100063EF8, symSize: 0x40 }
  - { offsetInCU: 0x57D42, offset: 0x57D42, size: 0x8, addend: 0x0, symName: __ZNSt3__16__moveB8ue170006INS_17_ClassicAlgPolicyEPPjS3_S3_EENS_4pairIT0_T2_EES5_T1_S6_, symObjAddr: 0x5F554, symBinAddr: 0x100064000, symSize: 0x44 }
  - { offsetInCU: 0x57DAE, offset: 0x57DAE, size: 0x8, addend: 0x0, symName: __ZNSt3__123__dispatch_copy_or_moveB8ue170006INS_17_ClassicAlgPolicyENS_11__move_loopIS1_EENS_14__move_trivialEPPjS6_S6_EENS_4pairIT2_T4_EES8_T3_S9_, symObjAddr: 0x5F598, symBinAddr: 0x100064044, symSize: 0x44 }
  - { offsetInCU: 0x57E2C, offset: 0x57E2C, size: 0x8, addend: 0x0, symName: __ZNSt3__121__unwrap_and_dispatchB8ue170006INS_10__overloadINS_11__move_loopINS_17_ClassicAlgPolicyEEENS_14__move_trivialEEEPPjS8_S8_Li0EEENS_4pairIT0_T2_EESA_T1_SB_, symObjAddr: 0x5F5DC, symBinAddr: 0x100064088, symSize: 0xB4 }
  - { offsetInCU: 0x57EBA, offset: 0x57EBA, size: 0x8, addend: 0x0, symName: __ZNSt3__114__unwrap_rangeB8ue170006IPPjS2_EENS_4pairIT0_S4_EET_S6_, symObjAddr: 0x5F690, symBinAddr: 0x10006413C, symSize: 0x60 }
  - { offsetInCU: 0x5807E, offset: 0x5807E, size: 0x8, addend: 0x0, symName: __ZNSt3__113__unwrap_iterB8ue170006IPPjNS_18__unwrap_iter_implIS2_Lb1EEELi0EEEDTclsrT0_8__unwrapclsr3stdE7declvalIT_EEEES6_, symObjAddr: 0x5F738, symBinAddr: 0x1000641E4, symSize: 0x24 }
  - { offsetInCU: 0x580C2, offset: 0x580C2, size: 0x8, addend: 0x0, symName: __ZNSt3__19make_pairB8ue170006IPPjS2_EENS_4pairINS_18__unwrap_ref_decayIT_E4typeENS4_IT0_E4typeEEEOS5_OS8_, symObjAddr: 0x5F75C, symBinAddr: 0x100064208, symSize: 0x38 }
  - { offsetInCU: 0x58111, offset: 0x58111, size: 0x8, addend: 0x0, symName: __ZNSt3__114__rewrap_rangeB8ue170006IPPjS2_EET_S3_T0_, symObjAddr: 0x5F794, symBinAddr: 0x100064240, symSize: 0x2C }
  - { offsetInCU: 0x5815D, offset: 0x5815D, size: 0x8, addend: 0x0, symName: __ZNSt3__113__rewrap_iterB8ue170006IPPjS2_NS_18__unwrap_iter_implIS2_Lb1EEEEET_S5_T0_, symObjAddr: 0x5F7C0, symBinAddr: 0x10006426C, symSize: 0x3C }
  - { offsetInCU: 0x581B2, offset: 0x581B2, size: 0x8, addend: 0x0, symName: __ZNSt3__119__copy_trivial_implB8ue170006IPjS1_EENS_4pairIPT_PT0_EES4_S4_S6_, symObjAddr: 0x5F7FC, symBinAddr: 0x1000642A8, symSize: 0x80 }
  - { offsetInCU: 0x5821A, offset: 0x5821A, size: 0x8, addend: 0x0, symName: __ZNSt3__119__constexpr_memmoveB8ue170006IPjS1_Li0EEEPT_S3_PT0_NS_15__element_countE, symObjAddr: 0x5F87C, symBinAddr: 0x100064328, symSize: 0x64 }
  - { offsetInCU: 0x58288, offset: 0x58288, size: 0x8, addend: 0x0, symName: __ZNSt3__19make_pairB8ue170006IRPPjS2_EENS_4pairINS_18__unwrap_ref_decayIT_E4typeENS5_IT0_E4typeEEEOS6_OS9_, symObjAddr: 0x5F8E0, symBinAddr: 0x10006438C, symSize: 0x38 }
  - { offsetInCU: 0x5832A, offset: 0x5832A, size: 0x8, addend: 0x0, symName: __ZNSt3__18distanceB8ue170006INS_13move_iteratorIPPjEEEENS_15iterator_traitsIT_E15difference_typeES6_S6_, symObjAddr: 0x5FB48, symBinAddr: 0x1000645F4, symSize: 0x3C }
  - { offsetInCU: 0x5836D, offset: 0x5836D, size: 0x8, addend: 0x0, symName: __ZNSt3__110__distanceB8ue170006INS_13move_iteratorIPPjEEEENS_15iterator_traitsIT_E15difference_typeES6_S6_NS_26random_access_iterator_tagE, symObjAddr: 0x5FD4C, symBinAddr: 0x1000647F8, symSize: 0x30 }
  - { offsetInCU: 0x583BB, offset: 0x583BB, size: 0x8, addend: 0x0, symName: __ZNSt3__1miB8ue170006IPPjS2_EEDTmicldtfp_4baseEcldtfp0_4baseEERKNS_13move_iteratorIT_EERKNS4_IT0_EE, symObjAddr: 0x5FD7C, symBinAddr: 0x100064828, symSize: 0x48 }
  - { offsetInCU: 0x5840A, offset: 0x5840A, size: 0x8, addend: 0x0, symName: __ZNSt3__113move_backwardB8ue170006IPPjS2_EET0_T_S4_S3_, symObjAddr: 0x5FE24, symBinAddr: 0x1000648D0, symSize: 0x40 }
  - { offsetInCU: 0x58464, offset: 0x58464, size: 0x8, addend: 0x0, symName: __ZNSt3__115__move_backwardB8ue170006INS_17_ClassicAlgPolicyEPPjS3_S3_EENS_4pairIT0_T2_EES5_T1_S6_, symObjAddr: 0x5FE64, symBinAddr: 0x100064910, symSize: 0x44 }
  - { offsetInCU: 0x584D0, offset: 0x584D0, size: 0x8, addend: 0x0, symName: __ZNSt3__123__dispatch_copy_or_moveB8ue170006INS_17_ClassicAlgPolicyENS_20__move_backward_loopIS1_EENS_23__move_backward_trivialEPPjS6_S6_EENS_4pairIT2_T4_EES8_T3_S9_, symObjAddr: 0x5FEA8, symBinAddr: 0x100064954, symSize: 0x44 }
  - { offsetInCU: 0x5854E, offset: 0x5854E, size: 0x8, addend: 0x0, symName: __ZNSt3__121__unwrap_and_dispatchB8ue170006INS_10__overloadINS_20__move_backward_loopINS_17_ClassicAlgPolicyEEENS_23__move_backward_trivialEEEPPjS8_S8_Li0EEENS_4pairIT0_T2_EESA_T1_SB_, symObjAddr: 0x5FEEC, symBinAddr: 0x100064998, symSize: 0xB4 }
  - { offsetInCU: 0x58622, offset: 0x58622, size: 0x8, addend: 0x0, symName: __ZNSt3__128__copy_backward_trivial_implB8ue170006IPjS1_EENS_4pairIPT_PT0_EES4_S4_S6_, symObjAddr: 0x5FFE8, symBinAddr: 0x100064A94, symSize: 0x90 }
  - { offsetInCU: 0x5868A, offset: 0x5868A, size: 0x8, addend: 0x0, symName: __ZNSt3__19make_pairB8ue170006IRPPjS3_EENS_4pairINS_18__unwrap_ref_decayIT_E4typeENS5_IT0_E4typeEEEOS6_OS9_, symObjAddr: 0x60078, symBinAddr: 0x100064B24, symSize: 0x38 }
  - { offsetInCU: 0x586D9, offset: 0x586D9, size: 0x8, addend: 0x0, symName: __ZNSt3__119__allocate_at_leastB8ue170006INS_9allocatorIPjEEEENS_19__allocation_resultINS_16allocator_traitsIT_E7pointerEEERS6_m, symObjAddr: 0x60230, symBinAddr: 0x100064CDC, symSize: 0x40 }
  - { offsetInCU: 0x598F5, offset: 0x598F5, size: 0x8, addend: 0x0, symName: __ZSt28__throw_bad_array_new_lengthB8ue170006v, symObjAddr: 0x16D58, symBinAddr: 0x10001B804, symSize: 0x34 }
  - { offsetInCU: 0x59B6A, offset: 0x59B6A, size: 0x8, addend: 0x0, symName: _cubeData, symObjAddr: 0x2E3E78, symBinAddr: 0x1001F6C90, symSize: 0x0 }
  - { offsetInCU: 0x59CFF, offset: 0x59CFF, size: 0x8, addend: 0x0, symName: __ZN5Shape22DefaultShaderColorOnlyE, symObjAddr: 0x2E3E90, symBinAddr: 0x1001F6CA8, symSize: 0x0 }
  - { offsetInCU: 0x5AC4E, offset: 0x5AC4E, size: 0x8, addend: 0x0, symName: __ZN5Shape24DefaultShaderTextureOnlyE, symObjAddr: 0x2E3E98, symBinAddr: 0x1001F6CB0, symSize: 0x0 }
  - { offsetInCU: 0x5AC62, offset: 0x5AC62, size: 0x8, addend: 0x0, symName: __ZN5Shape19DefaultShaderHybridE, symObjAddr: 0x2E3EA0, symBinAddr: 0x1001F6CB8, symSize: 0x0 }
  - { offsetInCU: 0x5AC80, offset: 0x5AC80, size: 0x8, addend: 0x0, symName: __ZN6Engine11ScreenWidthE, symObjAddr: 0x63CE8, symBinAddr: 0x1001F18D8, symSize: 0x0 }
  - { offsetInCU: 0x5AC99, offset: 0x5AC99, size: 0x8, addend: 0x0, symName: __ZN6Engine12ScreenHeightE, symObjAddr: 0x63CEC, symBinAddr: 0x1001F18DC, symSize: 0x0 }
  - { offsetInCU: 0x5ACB2, offset: 0x5ACB2, size: 0x8, addend: 0x0, symName: __ZN6Engine13ShadowWidth2DE, symObjAddr: 0x63CF0, symBinAddr: 0x1001F18E0, symSize: 0x0 }
  - { offsetInCU: 0x5ACCB, offset: 0x5ACCB, size: 0x8, addend: 0x0, symName: __ZN6Engine14ShadowHeight2DE, symObjAddr: 0x63CF4, symBinAddr: 0x1001F18E4, symSize: 0x0 }
  - { offsetInCU: 0x5ACE4, offset: 0x5ACE4, size: 0x8, addend: 0x0, symName: __ZN6Engine15ShadowWidthCubeE, symObjAddr: 0x63CF8, symBinAddr: 0x1001F18E8, symSize: 0x0 }
  - { offsetInCU: 0x5ACFD, offset: 0x5ACFD, size: 0x8, addend: 0x0, symName: __ZN6Engine16ShadowHeightCubeE, symObjAddr: 0x63CFC, symBinAddr: 0x1001F18EC, symSize: 0x0 }
  - { offsetInCU: 0x5AD16, offset: 0x5AD16, size: 0x8, addend: 0x0, symName: __ZN6Engine14EquirectShaderE, symObjAddr: 0x2E3EA8, symBinAddr: 0x1001F6CC0, symSize: 0x0 }
  - { offsetInCU: 0x5AD2F, offset: 0x5AD2F, size: 0x8, addend: 0x0, symName: __ZN6Engine16IrradianceShaderE, symObjAddr: 0x2E3EB0, symBinAddr: 0x1001F6CC8, symSize: 0x0 }
  - { offsetInCU: 0x5AD48, offset: 0x5AD48, size: 0x8, addend: 0x0, symName: __ZN6Engine15PrefilterShaderE, symObjAddr: 0x2E3EB8, symBinAddr: 0x1001F6CD0, symSize: 0x0 }
  - { offsetInCU: 0x5AD61, offset: 0x5AD61, size: 0x8, addend: 0x0, symName: __ZN6Engine7GbufferE, symObjAddr: 0x2E3EC0, symBinAddr: 0x1001F6CD8, symSize: 0x0 }
  - { offsetInCU: 0x5ADD7, offset: 0x5ADD7, size: 0x8, addend: 0x0, symName: __ZN6Engine4SsaoE, symObjAddr: 0x2E3EE8, symBinAddr: 0x1001F6D00, symSize: 0x0 }
  - { offsetInCU: 0x5ADF0, offset: 0x5ADF0, size: 0x8, addend: 0x0, symName: __ZN6Engine8SsaoBlurE, symObjAddr: 0x2E3F10, symBinAddr: 0x1001F6D28, symSize: 0x0 }
  - { offsetInCU: 0x5AE09, offset: 0x5AE09, size: 0x8, addend: 0x0, symName: __ZN6Engine10SsaoKernelE, symObjAddr: 0x2E3F38, symBinAddr: 0x1001F6D50, symSize: 0x0 }
  - { offsetInCU: 0x5AE22, offset: 0x5AE22, size: 0x8, addend: 0x0, symName: __ZN6Engine16SsaoNoiseTextureE, symObjAddr: 0x2E3F50, symBinAddr: 0x1001F6D68, symSize: 0x0 }
  - { offsetInCU: 0x5AE3B, offset: 0x5AE3B, size: 0x8, addend: 0x0, symName: __ZN6Engine3HdrE, symObjAddr: 0x2E3F58, symBinAddr: 0x1001F6D70, symSize: 0x0 }
  - { offsetInCU: 0x5AE54, offset: 0x5AE54, size: 0x8, addend: 0x0, symName: __ZN6Engine6Bloom1E, symObjAddr: 0x2E3F80, symBinAddr: 0x1001F6D98, symSize: 0x0 }
  - { offsetInCU: 0x5AE6D, offset: 0x5AE6D, size: 0x8, addend: 0x0, symName: __ZN6Engine6Bloom2E, symObjAddr: 0x2E3FA8, symBinAddr: 0x1001F6DC0, symSize: 0x0 }
  - { offsetInCU: 0x5AE86, offset: 0x5AE86, size: 0x8, addend: 0x0, symName: __ZN6Engine4FxaaE, symObjAddr: 0x2E3FD0, symBinAddr: 0x1001F6DE8, symSize: 0x0 }
  - { offsetInCU: 0x5AE9F, offset: 0x5AE9F, size: 0x8, addend: 0x0, symName: __ZN6Engine18CurrentEnvironmentE, symObjAddr: 0x2E3FF8, symBinAddr: 0x1001F6E10, symSize: 0x0 }
  - { offsetInCU: 0x5AEFE, offset: 0x5AEFE, size: 0x8, addend: 0x0, symName: __ZN6Engine10RenderQuadEv, symObjAddr: 0x21C, symBinAddr: 0x100004CC8, symSize: 0x1F4 }
  - { offsetInCU: 0x5AF24, offset: 0x5AF24, size: 0x8, addend: 0x0, symName: __ZZN6Engine10RenderQuadEvE7quadVAO, symObjAddr: 0x2E41A0, symBinAddr: 0x1001FBB58, symSize: 0x0 }
  - { offsetInCU: 0x5AF3A, offset: 0x5AF3A, size: 0x8, addend: 0x0, symName: __ZZN6Engine10RenderQuadEvE14quadInitiaized, symObjAddr: 0x2E41A4, symBinAddr: 0x1001FBB5C, symSize: 0x0 }
  - { offsetInCU: 0x5AF72, offset: 0x5AF72, size: 0x8, addend: 0x0, symName: __ZN6Engine19SetScreenDimensionsEjj, symObjAddr: 0x1F0, symBinAddr: 0x100004C9C, symSize: 0x2C }
  - { offsetInCU: 0x5AFA8, offset: 0x5AFA8, size: 0x8, addend: 0x0, symName: __ZN6Engine18_equirectToCubemapER3TexR6Shader, symObjAddr: 0x410, symBinAddr: 0x100004EBC, symSize: 0x8AC }
  - { offsetInCU: 0x5B080, offset: 0x5B080, size: 0x8, addend: 0x0, symName: __ZN6Engine16_envToIrradianceEjR6Shader, symObjAddr: 0x10E8, symBinAddr: 0x100005B94, symSize: 0x85C }
  - { offsetInCU: 0x5B158, offset: 0x5B158, size: 0x8, addend: 0x0, symName: __ZN6Engine15_envToPrefilterEjR6Shader, symObjAddr: 0x1944, symBinAddr: 0x1000063F0, symSize: 0x9D0 }
  - { offsetInCU: 0x5B292, offset: 0x5B292, size: 0x8, addend: 0x0, symName: __ZN6Engine15InitEnvironmentENSt3__110shared_ptrI3TexEE, symObjAddr: 0x23C8, symBinAddr: 0x100006E74, symSize: 0x10C }
  - { offsetInCU: 0x5B2BD, offset: 0x5B2BD, size: 0x8, addend: 0x0, symName: __ZN6Engine15GenerateBrdfLutER6Shader, symObjAddr: 0x2504, symBinAddr: 0x100006FB0, symSize: 0x2DC }
  - { offsetInCU: 0x5B327, offset: 0x5B327, size: 0x8, addend: 0x0, symName: __ZN6Engine22GenerateShadowMapArrayEj, symObjAddr: 0x27E0, symBinAddr: 0x10000728C, symSize: 0x41C }
  - { offsetInCU: 0x5B393, offset: 0x5B393, size: 0x8, addend: 0x0, symName: __ZN6Engine11InitGbufferEv, symObjAddr: 0x2BFC, symBinAddr: 0x1000076A8, symSize: 0x5F0 }
  - { offsetInCU: 0x5B41D, offset: 0x5B41D, size: 0x8, addend: 0x0, symName: __ZN6Engine8InitSsaoEv, symObjAddr: 0x32A4, symBinAddr: 0x100007D50, symSize: 0x7C4 }
  - { offsetInCU: 0x5B4EE, offset: 0x5B4EE, size: 0x8, addend: 0x0, symName: __ZN6Engine7InitHdrEv, symObjAddr: 0x3D08, symBinAddr: 0x1000087B4, symSize: 0x330 }
  - { offsetInCU: 0x5B528, offset: 0x5B528, size: 0x8, addend: 0x0, symName: __ZN6Engine9InitBloomEv, symObjAddr: 0x4038, symBinAddr: 0x100008AE4, symSize: 0x698 }
  - { offsetInCU: 0x5B5A0, offset: 0x5B5A0, size: 0x8, addend: 0x0, symName: __ZN6Engine8InitFxaaEv, symObjAddr: 0x46D0, symBinAddr: 0x10000917C, symSize: 0x318 }
  - { offsetInCU: 0x5B784, offset: 0x5B784, size: 0x8, addend: 0x0, symName: __ZN9Resources6ModelsE, symObjAddr: 0x2E4008, symBinAddr: 0x1001F6E20, symSize: 0x0 }
  - { offsetInCU: 0x5B79D, offset: 0x5B79D, size: 0x8, addend: 0x0, symName: __ZN9Resources6ShapesE, symObjAddr: 0x2E4020, symBinAddr: 0x1001F6E38, symSize: 0x0 }
  - { offsetInCU: 0x5B7B6, offset: 0x5B7B6, size: 0x8, addend: 0x0, symName: __ZN9Resources8TexturesE, symObjAddr: 0x2E4038, symBinAddr: 0x1001F6E50, symSize: 0x0 }
  - { offsetInCU: 0x5B7CF, offset: 0x5B7CF, size: 0x8, addend: 0x0, symName: __ZN9Resources7ShadersE, symObjAddr: 0x2E4050, symBinAddr: 0x1001F6E68, symSize: 0x0 }
  - { offsetInCU: 0x5B7DC, offset: 0x5B7DC, size: 0x8, addend: 0x0, symName: __ZN9Resources13LoadTexture2DENSt3__112basic_stringIcNS0_11char_traitsIcEENS0_9allocatorIcEEEES6_jii8Tex_Typeb, symObjAddr: 0x4B48, symBinAddr: 0x1000095F4, symSize: 0x20C }
  - { offsetInCU: 0x5B86D, offset: 0x5B86D, size: 0x8, addend: 0x0, symName: __ZN9Resources15LoadTextureCubeENSt3__112basic_stringIcNS0_11char_traitsIcEENS0_9allocatorIcEEEERNS0_6vectorIS6_NS4_IS6_EEEEjiib, symObjAddr: 0x4ED8, symBinAddr: 0x100009984, symSize: 0x1C4 }
  - { offsetInCU: 0x5B8EF, offset: 0x5B8EF, size: 0x8, addend: 0x0, symName: __ZN9Resources10LoadShaderENSt3__112basic_stringIcNS0_11char_traitsIcEENS0_9allocatorIcEEEES6_S6_S6_, symObjAddr: 0x5104, symBinAddr: 0x100009BB0, symSize: 0x224 }
  - { offsetInCU: 0x5B958, offset: 0x5B958, size: 0x8, addend: 0x0, symName: __ZN9Resources9LoadModelENSt3__112basic_stringIcNS0_11char_traitsIcEENS0_9allocatorIcEEEER6ShaderS6_fb, symObjAddr: 0x5480, symBinAddr: 0x100009F2C, symSize: 0x1F4 }
  - { offsetInCU: 0x5B9CD, offset: 0x5B9CD, size: 0x8, addend: 0x0, symName: __ZN9Resources8LoadCubeENSt3__112basic_stringIcNS0_11char_traitsIcEENS0_9allocatorIcEEEER6Shader, symObjAddr: 0x57DC, symBinAddr: 0x10000A288, symSize: 0x19C }
  - { offsetInCU: 0x5BA17, offset: 0x5BA17, size: 0x8, addend: 0x0, symName: __ZN9Resources10LoadSphereENSt3__112basic_stringIcNS0_11char_traitsIcEENS0_9allocatorIcEEEER6Shaderjj, symObjAddr: 0x5A8C, symBinAddr: 0x10000A538, symSize: 0x1AC }
  - { offsetInCU: 0x5BA7D, offset: 0x5BA7D, size: 0x8, addend: 0x0, symName: __ZN9Resources13LoadRectangleENSt3__112basic_stringIcNS0_11char_traitsIcEENS0_9allocatorIcEEEER6Shaderjj, symObjAddr: 0x5D20, symBinAddr: 0x10000A7CC, symSize: 0x1AC }
  - { offsetInCU: 0x5BAE3, offset: 0x5BAE3, size: 0x8, addend: 0x0, symName: __ZN9Resources11DeleteModelENSt3__112basic_stringIcNS0_11char_traitsIcEENS0_9allocatorIcEEEE, symObjAddr: 0x5FB4, symBinAddr: 0x10000AA60, symSize: 0x30 }
  - { offsetInCU: 0x5BB0C, offset: 0x5BB0C, size: 0x8, addend: 0x0, symName: __ZN9Resources11DeleteShapeENSt3__112basic_stringIcNS0_11char_traitsIcEENS0_9allocatorIcEEEE, symObjAddr: 0x6010, symBinAddr: 0x10000AABC, symSize: 0x30 }
  - { offsetInCU: 0x5BB35, offset: 0x5BB35, size: 0x8, addend: 0x0, symName: __ZN9Resources13DeleteTextureENSt3__112basic_stringIcNS0_11char_traitsIcEENS0_9allocatorIcEEEE, symObjAddr: 0x606C, symBinAddr: 0x10000AB18, symSize: 0x30 }
  - { offsetInCU: 0x6097A, offset: 0x6097A, size: 0x8, addend: 0x0, symName: __ZN9Interface14NodeProperties5countE, symObjAddr: 0x2E4068, symBinAddr: 0x1001F6E80, symSize: 0x0 }
  - { offsetInCU: 0x60A1A, offset: 0x60A1A, size: 0x8, addend: 0x0, symName: __ZN9Interface15ShapeProperties5countE, symObjAddr: 0x2E406C, symBinAddr: 0x1001F6E84, symSize: 0x0 }
  - { offsetInCU: 0x60AEA, offset: 0x60AEA, size: 0x8, addend: 0x0, symName: __ZN9Interface15LightProperties5countE, symObjAddr: 0x2E4070, symBinAddr: 0x1001F6E88, symSize: 0x0 }
  - { offsetInCU: 0x60B83, offset: 0x60B83, size: 0x8, addend: 0x0, symName: __ZN9Interface9MainSceneE, symObjAddr: 0x2E4078, symBinAddr: 0x1001F6E90, symSize: 0x0 }
  - { offsetInCU: 0x60B9C, offset: 0x60B9C, size: 0x8, addend: 0x0, symName: __ZN9Interface13FramerateDataE, symObjAddr: 0x2E4080, symBinAddr: 0x1001F6E98, symSize: 0x0 }
  - { offsetInCU: 0x60BB5, offset: 0x60BB5, size: 0x8, addend: 0x0, symName: __ZN9Interface3IblE, symObjAddr: 0x63D00, symBinAddr: 0x1001F18F0, symSize: 0x0 }
  - { offsetInCU: 0x60BCE, offset: 0x60BCE, size: 0x8, addend: 0x0, symName: __ZN9Interface4SsaoE, symObjAddr: 0x63D04, symBinAddr: 0x1001F18F4, symSize: 0x0 }
  - { offsetInCU: 0x60BE7, offset: 0x60BE7, size: 0x8, addend: 0x0, symName: __ZN9Interface5BloomE, symObjAddr: 0x63D05, symBinAddr: 0x1001F18F5, symSize: 0x0 }
  - { offsetInCU: 0x60C00, offset: 0x60C00, size: 0x8, addend: 0x0, symName: __ZN9Interface3HdrE, symObjAddr: 0x63D06, symBinAddr: 0x1001F18F6, symSize: 0x0 }
  - { offsetInCU: 0x60C19, offset: 0x60C19, size: 0x8, addend: 0x0, symName: __ZN9Interface11HdrExposureE, symObjAddr: 0x63D08, symBinAddr: 0x1001F18F8, symSize: 0x0 }
  - { offsetInCU: 0x60C32, offset: 0x60C32, size: 0x8, addend: 0x0, symName: __ZN9Interface4FxaaE, symObjAddr: 0x63D0C, symBinAddr: 0x1001F18FC, symSize: 0x0 }
  - { offsetInCU: 0x60C3F, offset: 0x60C3F, size: 0x8, addend: 0x0, symName: __ZN9Interface13ShowInterfaceEv, symObjAddr: 0x60F4, symBinAddr: 0x10000ABA0, symSize: 0x4744 }
  - { offsetInCU: 0x60C65, offset: 0x60C65, size: 0x8, addend: 0x0, symName: __ZZN9Interface13ShowInterfaceEvE18_showNewShapeChild, symObjAddr: 0x2E41A5, symBinAddr: 0x1001FBB5D, symSize: 0x0 }
  - { offsetInCU: 0x60C7B, offset: 0x60C7B, size: 0x8, addend: 0x0, symName: __ZZN9Interface13ShowInterfaceEvE18_showNewLightChild, symObjAddr: 0x2E41A6, symBinAddr: 0x1001FBB5E, symSize: 0x0 }
  - { offsetInCU: 0x60C91, offset: 0x60C91, size: 0x8, addend: 0x0, symName: __ZZN9Interface13ShowInterfaceEvE17_showNewNodeChild, symObjAddr: 0x2E41A7, symBinAddr: 0x1001FBB5F, symSize: 0x0 }
  - { offsetInCU: 0x60CA7, offset: 0x60CA7, size: 0x8, addend: 0x0, symName: __ZZN9Interface13ShowInterfaceEvE11_shapeProps, symObjAddr: 0x2E41A8, symBinAddr: 0x1001FBB60, symSize: 0x0 }
  - { offsetInCU: 0x60CBD, offset: 0x60CBD, size: 0x8, addend: 0x0, symName: __ZZN9Interface13ShowInterfaceEvE11_lightProps, symObjAddr: 0x2E4210, symBinAddr: 0x1001FBBC8, symSize: 0x0 }
  - { offsetInCU: 0x60CD3, offset: 0x60CD3, size: 0x8, addend: 0x0, symName: __ZZN9Interface13ShowInterfaceEvE10_nodeProps, symObjAddr: 0x2E4258, symBinAddr: 0x1001FBC10, symSize: 0x0 }
  - { offsetInCU: 0x60CE9, offset: 0x60CE9, size: 0x8, addend: 0x0, symName: __ZZN9Interface13ShowInterfaceEvE15_shapeSelection, symObjAddr: 0x2E42A8, symBinAddr: 0x1001FBC60, symSize: 0x0 }
  - { offsetInCU: 0x60CFF, offset: 0x60CFF, size: 0x8, addend: 0x0, symName: __ZZN9Interface13ShowInterfaceEvE20_textureSelectionStr, symObjAddr: 0x2E42B0, symBinAddr: 0x1001FBC68, symSize: 0x0 }
  - { offsetInCU: 0x60D15, offset: 0x60D15, size: 0x8, addend: 0x0, symName: __ZZN9Interface13ShowInterfaceEvE13_lightOptions, symObjAddr: 0x63D10, symBinAddr: 0x1001F1900, symSize: 0x0 }
  - { offsetInCU: 0x60D2B, offset: 0x60D2B, size: 0x8, addend: 0x0, symName: __ZZN9Interface13ShowInterfaceEvE15_lightSelection, symObjAddr: 0x2E42D0, symBinAddr: 0x1001FBC88, symSize: 0x0 }
  - { offsetInCU: 0x60D41, offset: 0x60D41, size: 0x8, addend: 0x0, symName: __ZZN9Interface13ShowInterfaceEvE26_nodeTemplateTypeSelection, symObjAddr: 0x2E42D4, symBinAddr: 0x1001FBC8C, symSize: 0x0 }
  - { offsetInCU: 0x60D57, offset: 0x60D57, size: 0x8, addend: 0x0, symName: __ZZN9Interface13ShowInterfaceEvE25_nodeTemplateSelectionStr, symObjAddr: 0x2E42D8, symBinAddr: 0x1001FBC90, symSize: 0x0 }
  - { offsetInCU: 0x60D6D, offset: 0x60D6D, size: 0x8, addend: 0x0, symName: __ZZN9Interface13ShowInterfaceEvE13_nodeTemplate, symObjAddr: 0x2E42F8, symBinAddr: 0x1001FBCB0, symSize: 0x0 }
  - { offsetInCU: 0x60D83, offset: 0x60D83, size: 0x8, addend: 0x0, symName: __ZZN9Interface13ShowInterfaceEvE19_skyboxSelectionStr, symObjAddr: 0x2E4310, symBinAddr: 0x1001FBCC8, symSize: 0x0 }
  - { offsetInCU: 0x612F2, offset: 0x612F2, size: 0x8, addend: 0x0, symName: __ZN9Interface8SetStyleER10ImGuiStyle, symObjAddr: 0xC4D8, symBinAddr: 0x100010F84, symSize: 0x4B0 }
  - { offsetInCU: 0x6286D, offset: 0x6286D, size: 0x8, addend: 0x0, symName: _scene, symObjAddr: 0x2E4098, symBinAddr: 0x1001F6EB0, symSize: 0x0 }
  - { offsetInCU: 0x62882, offset: 0x62882, size: 0x8, addend: 0x0, symName: _lastX, symObjAddr: 0x63D18, symBinAddr: 0x1001F1908, symSize: 0x0 }
  - { offsetInCU: 0x62897, offset: 0x62897, size: 0x8, addend: 0x0, symName: _lastY, symObjAddr: 0x63D1C, symBinAddr: 0x1001F190C, symSize: 0x0 }
  - { offsetInCU: 0x628AC, offset: 0x628AC, size: 0x8, addend: 0x0, symName: _firstMouse, symObjAddr: 0x63D20, symBinAddr: 0x1001F1910, symSize: 0x0 }
  - { offsetInCU: 0x628C1, offset: 0x628C1, size: 0x8, addend: 0x0, symName: _deltaTime, symObjAddr: 0x2E4198, symBinAddr: 0x1001F6FB0, symSize: 0x0 }
  - { offsetInCU: 0x62900, offset: 0x62900, size: 0x8, addend: 0x0, symName: __ZN5Light5countE, symObjAddr: 0x63D24, symBinAddr: 0x1001F1914, symSize: 0x0 }
  - { offsetInCU: 0x62914, offset: 0x62914, size: 0x8, addend: 0x0, symName: __ZN9SceneNode5countE, symObjAddr: 0x63D28, symBinAddr: 0x1001F1918, symSize: 0x0 }
  - { offsetInCU: 0x6292E, offset: 0x6292E, size: 0x8, addend: 0x0, symName: __ZL7worldUp, symObjAddr: 0x65B34, symBinAddr: 0x1001A8E34, symSize: 0x0 }
  - { offsetInCU: 0x63958, offset: 0x63958, size: 0x8, addend: 0x0, symName: __ZNSt3__16vectorINS_10shared_ptrI4MeshEENS_9allocatorIS3_EEE26__swap_out_circular_bufferERNS_14__split_bufferIS3_RS5_EE, symObjAddr: 0x1E22C, symBinAddr: 0x100022CD8, symSize: 0x110 }
  - { offsetInCU: 0x639EC, offset: 0x639EC, size: 0x8, addend: 0x0, symName: __ZNSt3__16vectorI10MeshVertexNS_9allocatorIS1_EEE26__swap_out_circular_bufferERNS_14__split_bufferIS1_RS3_EE, symObjAddr: 0x20B10, symBinAddr: 0x1000255BC, symSize: 0x110 }
  - { offsetInCU: 0x63A43, offset: 0x63A43, size: 0x8, addend: 0x0, symName: __ZNSt3__16vectorIjNS_9allocatorIjEEE26__swap_out_circular_bufferERNS_14__split_bufferIjRS2_EE, symObjAddr: 0x222A4, symBinAddr: 0x100026D50, symSize: 0x110 }
  - { offsetInCU: 0x63A9A, offset: 0x63A9A, size: 0x8, addend: 0x0, symName: __ZNSt3__16vectorINS_10shared_ptrI3TexEENS_9allocatorIS3_EEE26__swap_out_circular_bufferERNS_14__split_bufferIS3_RS5_EE, symObjAddr: 0x24D84, symBinAddr: 0x100029830, symSize: 0x110 }
  - { offsetInCU: 0x63B57, offset: 0x63B57, size: 0x8, addend: 0x0, symName: __ZNSt3__16vectorINS_10shared_ptrI3TexEENS_9allocatorIS3_EEE26__swap_out_circular_bufferERNS_14__split_bufferIS3_RS5_EEPS3_, symObjAddr: 0x268D8, symBinAddr: 0x10002B384, symSize: 0x14C }
  - { offsetInCU: 0x63BB8, offset: 0x63BB8, size: 0x8, addend: 0x0, symName: __ZNSt3__16vectorI9MeshColorNS_9allocatorIS1_EEE26__swap_out_circular_bufferERNS_14__split_bufferIS1_RS3_EE, symObjAddr: 0x2831C, symBinAddr: 0x10002CDC8, symSize: 0x110 }
  - { offsetInCU: 0x63C4C, offset: 0x63C4C, size: 0x8, addend: 0x0, symName: __ZNSt3__16vectorI10MeshScalarNS_9allocatorIS1_EEE26__swap_out_circular_bufferERNS_14__split_bufferIS1_RS3_EE, symObjAddr: 0x29BAC, symBinAddr: 0x10002E658, symSize: 0x110 }
  - { offsetInCU: 0x6403F, offset: 0x6403F, size: 0x8, addend: 0x0, symName: __ZNSt3__16vectorIN3glm3vecILi3EfLNS1_9qualifierE0EEENS_9allocatorIS4_EEE26__swap_out_circular_bufferERNS_14__split_bufferIS4_RS6_EE, symObjAddr: 0x35884, symBinAddr: 0x10003A330, symSize: 0x110 }
  - { offsetInCU: 0x64096, offset: 0x64096, size: 0x8, addend: 0x0, symName: __ZNSt3__16vectorIN3glm3vecILi2EfLNS1_9qualifierE0EEENS_9allocatorIS4_EEE26__swap_out_circular_bufferERNS_14__split_bufferIS4_RS6_EE, symObjAddr: 0x36D38, symBinAddr: 0x10003B7E4, symSize: 0x110 }
  - { offsetInCU: 0x640ED, offset: 0x640ED, size: 0x8, addend: 0x0, symName: __ZNSt3__16vectorINS_10shared_ptrI16DirectionalLightEENS_9allocatorIS3_EEE26__swap_out_circular_bufferERNS_14__split_bufferIS3_RS5_EE, symObjAddr: 0x3ABEC, symBinAddr: 0x10003F698, symSize: 0x110 }
  - { offsetInCU: 0x64186, offset: 0x64186, size: 0x8, addend: 0x0, symName: __ZNSt3__16vectorINS_10shared_ptrI10PointLightEENS_9allocatorIS3_EEE26__swap_out_circular_bufferERNS_14__split_bufferIS3_RS5_EE, symObjAddr: 0x3DE7C, symBinAddr: 0x100042928, symSize: 0x110 }
  - { offsetInCU: 0x6421A, offset: 0x6421A, size: 0x8, addend: 0x0, symName: __ZNSt3__16vectorIN3glm3matILi4ELi4EfLNS1_9qualifierE0EEENS_9allocatorIS4_EEE26__swap_out_circular_bufferERNS_14__split_bufferIS4_RS6_EE, symObjAddr: 0x3FEEC, symBinAddr: 0x100044998, symSize: 0x110 }
  - { offsetInCU: 0x64271, offset: 0x64271, size: 0x8, addend: 0x0, symName: __ZNSt3__16vectorINS_10shared_ptrI9SceneNodeEENS_9allocatorIS3_EEE26__swap_out_circular_bufferERNS_14__split_bufferIS3_RS5_EE, symObjAddr: 0x42138, symBinAddr: 0x100046BE4, symSize: 0x110 }
  - { offsetInCU: 0x64394, offset: 0x64394, size: 0x8, addend: 0x0, symName: __Z3powB8ue170006IdiENSt3__19enable_ifIXaasr3std13is_arithmeticIT_EE5valuesr3std13is_arithmeticIT0_EE5valueENS0_9__promoteIS2_S3_vEEE4type4typeES2_S3_, symObjAddr: 0x2314, symBinAddr: 0x100006DC0, symSize: 0x38 }
  - { offsetInCU: 0x64452, offset: 0x64452, size: 0x8, addend: 0x0, symName: __ZNSt3__16vectorIfNS_9allocatorIfEEE26__swap_out_circular_bufferERNS_14__split_bufferIfRS2_EE, symObjAddr: 0x5D138, symBinAddr: 0x100061BE4, symSize: 0x110 }
  - { offsetInCU: 0x6665B, offset: 0x6665B, size: 0x8, addend: 0x0, symName: __ZNSt3__112basic_stringIcNS_11char_traitsIcEENS_9allocatorIcEEEC1B8ue170006ILi0EEEPKc, symObjAddr: 0x0, symBinAddr: 0x100004AAC, symSize: 0x34 }
  - { offsetInCU: 0x66699, offset: 0x66699, size: 0x8, addend: 0x0, symName: __Z15TexTypeToString8Tex_Type, symObjAddr: 0x34, symBinAddr: 0x100004AE0, symSize: 0x4C }
  - { offsetInCU: 0x666C6, offset: 0x666C6, size: 0x8, addend: 0x0, symName: __ZNSt3__16vectorIfNS_9allocatorIfEEEC1B8ue170006ESt16initializer_listIfE, symObjAddr: 0x80, symBinAddr: 0x100004B2C, symSize: 0x3C }
  - { offsetInCU: 0x66701, offset: 0x66701, size: 0x8, addend: 0x0, symName: __ZNSt3__16vectorIfNS_9allocatorIfEEED1B8ue170006Ev, symObjAddr: 0xBC, symBinAddr: 0x100004B68, symSize: 0x2C }
  - { offsetInCU: 0x66730, offset: 0x66730, size: 0x8, addend: 0x0, symName: __ZN6Engine11FramebufferC1Ev, symObjAddr: 0xE8, symBinAddr: 0x100004B94, symSize: 0x2C }
  - { offsetInCU: 0x6675C, offset: 0x6675C, size: 0x8, addend: 0x0, symName: __ZN6Engine11FramebufferD1Ev, symObjAddr: 0x114, symBinAddr: 0x100004BC0, symSize: 0x2C }
  - { offsetInCU: 0x66788, offset: 0x66788, size: 0x8, addend: 0x0, symName: __ZNSt3__16vectorIN3glm3vecILi3EfLNS1_9qualifierE0EEENS_9allocatorIS4_EEEC1B8ue170006Ev, symObjAddr: 0x140, symBinAddr: 0x100004BEC, symSize: 0x2C }
  - { offsetInCU: 0x667B2, offset: 0x667B2, size: 0x8, addend: 0x0, symName: __ZNSt3__16vectorIN3glm3vecILi3EfLNS1_9qualifierE0EEENS_9allocatorIS4_EEED1B8ue170006Ev, symObjAddr: 0x16C, symBinAddr: 0x100004C18, symSize: 0x2C }
  - { offsetInCU: 0x667DC, offset: 0x667DC, size: 0x8, addend: 0x0, symName: __ZN6Engine11EnvironmentC1Ev, symObjAddr: 0x198, symBinAddr: 0x100004C44, symSize: 0x2C }
  - { offsetInCU: 0x66808, offset: 0x66808, size: 0x8, addend: 0x0, symName: __ZN6Engine11EnvironmentD1Ev, symObjAddr: 0x1C4, symBinAddr: 0x100004C70, symSize: 0x2C }
  - { offsetInCU: 0x66832, offset: 0x66832, size: 0x8, addend: 0x0, symName: __ZN3glm3vecILi3EfLNS_9qualifierE0EEC1Ef, symObjAddr: 0xD3C, symBinAddr: 0x1000057E8, symSize: 0x34 }
  - { offsetInCU: 0x6686C, offset: 0x6686C, size: 0x8, addend: 0x0, symName: __ZN3glm3vecILi3EfLNS_9qualifierE0EEC1Efff, symObjAddr: 0xD70, symBinAddr: 0x10000581C, symSize: 0x44 }
  - { offsetInCU: 0x668C2, offset: 0x668C2, size: 0x8, addend: 0x0, symName: __ZN6Shader6setIntENSt3__112basic_stringIcNS0_11char_traitsIcEENS0_9allocatorIcEEEEi, symObjAddr: 0xDB4, symBinAddr: 0x100005860, symSize: 0x7C }
  - { offsetInCU: 0x66913, offset: 0x66913, size: 0x8, addend: 0x0, symName: __ZN6Shader7setMat4ENSt3__112basic_stringIcNS0_11char_traitsIcEENS0_9allocatorIcEEEEN3glm3matILi4ELi4EfLNS7_9qualifierE0EEE, symObjAddr: 0xE30, symBinAddr: 0x1000058DC, symSize: 0xA4 }
  - { offsetInCU: 0x66A00, offset: 0x66A00, size: 0x8, addend: 0x0, symName: __ZN4CubeC1ENSt3__112basic_stringIcNS0_11char_traitsIcEENS0_9allocatorIcEEEEP6Shader, symObjAddr: 0xED4, symBinAddr: 0x100005980, symSize: 0x3C }
  - { offsetInCU: 0x66A47, offset: 0x66A47, size: 0x8, addend: 0x0, symName: __ZNSt3__113basic_ostreamIcNS_11char_traitsIcEEElsB8ue170006EPFRS3_S4_E, symObjAddr: 0xF58, symBinAddr: 0x100005A04, symSize: 0x2C }
  - { offsetInCU: 0x66A7B, offset: 0x66A7B, size: 0x8, addend: 0x0, symName: __ZN4Cube4DrawER6ShaderN3glm3matILi4ELi4EfLNS2_9qualifierE0EEE, symObjAddr: 0xFDC, symBinAddr: 0x100005A88, symSize: 0xCC }
  - { offsetInCU: 0x66AC0, offset: 0x66AC0, size: 0x8, addend: 0x0, symName: __ZN4CubeD1Ev, symObjAddr: 0x10BC, symBinAddr: 0x100005B68, symSize: 0x2C }
  - { offsetInCU: 0x66AEC, offset: 0x66AEC, size: 0x8, addend: 0x0, symName: __ZN6Shader8setFloatENSt3__112basic_stringIcNS0_11char_traitsIcEENS0_9allocatorIcEEEEf, symObjAddr: 0x234C, symBinAddr: 0x100006DF8, symSize: 0x7C }
  - { offsetInCU: 0x66B3D, offset: 0x66B3D, size: 0x8, addend: 0x0, symName: __ZNKSt3__110shared_ptrI3TexEptB8ue170006Ev, symObjAddr: 0x24D4, symBinAddr: 0x100006F80, symSize: 0x18 }
  - { offsetInCU: 0x66B63, offset: 0x66B63, size: 0x8, addend: 0x0, symName: __ZNKSt3__110shared_ptrI3TexEdeB8ue170006Ev, symObjAddr: 0x24EC, symBinAddr: 0x100006F98, symSize: 0x18 }
  - { offsetInCU: 0x66B89, offset: 0x66B89, size: 0x8, addend: 0x0, symName: __ZNSt3__16vectorIjNS_9allocatorIjEEEC1Em, symObjAddr: 0x31EC, symBinAddr: 0x100007C98, symSize: 0x34 }
  - { offsetInCU: 0x66BC4, offset: 0x66BC4, size: 0x8, addend: 0x0, symName: __ZNSt3__16vectorIjNS_9allocatorIjEEEaSB8ue170006EOS3_, symObjAddr: 0x3220, symBinAddr: 0x100007CCC, symSize: 0x34 }
  - { offsetInCU: 0x66BFB, offset: 0x66BFB, size: 0x8, addend: 0x0, symName: __ZNSt3__16vectorIjNS_9allocatorIjEEED1B8ue170006Ev, symObjAddr: 0x3254, symBinAddr: 0x100007D00, symSize: 0x2C }
  - { offsetInCU: 0x66C25, offset: 0x66C25, size: 0x8, addend: 0x0, symName: __ZNSt3__16vectorIjNS_9allocatorIjEEEixB8ue170006Em, symObjAddr: 0x3280, symBinAddr: 0x100007D2C, symSize: 0x24 }
  - { offsetInCU: 0x66C7F, offset: 0x66C7F, size: 0x8, addend: 0x0, symName: __ZNSt3__125uniform_real_distributionIfEC1B8ue170006Eff, symObjAddr: 0x3A68, symBinAddr: 0x100008514, symSize: 0x3C }
  - { offsetInCU: 0x66CC5, offset: 0x66CC5, size: 0x8, addend: 0x0, symName: __ZNSt3__126linear_congruential_engineIjLj48271ELj0ELj2147483647EEC1B8ue170006Ev, symObjAddr: 0x3AA4, symBinAddr: 0x100008550, symSize: 0x30 }
  - { offsetInCU: 0x66CF4, offset: 0x66CF4, size: 0x8, addend: 0x0, symName: __ZNSt3__125uniform_real_distributionIfEclB8ue170006INS_26linear_congruential_engineIjLj48271ELj0ELj2147483647EEEEEfRT_, symObjAddr: 0x3AD4, symBinAddr: 0x100008580, symSize: 0x30 }
  - { offsetInCU: 0x66D31, offset: 0x66D31, size: 0x8, addend: 0x0, symName: __ZN3glm3vecILi3EfLNS_9qualifierE0EEC1IddfEET_T0_T1_, symObjAddr: 0x3B04, symBinAddr: 0x1000085B0, symSize: 0x44 }
  - { offsetInCU: 0x66DA2, offset: 0x66DA2, size: 0x8, addend: 0x0, symName: __ZN3glm3vecILi3EfLNS_9qualifierE0EEmLIfEERS2_T_, symObjAddr: 0x3BE8, symBinAddr: 0x100008694, symSize: 0x48 }
  - { offsetInCU: 0x66DE2, offset: 0x66DE2, size: 0x8, addend: 0x0, symName: __ZNSt3__16vectorIN3glm3vecILi3EfLNS1_9qualifierE0EEENS_9allocatorIS4_EEE9push_backB8ue170006ERKS4_, symObjAddr: 0x3C30, symBinAddr: 0x1000086DC, symSize: 0x6C }
  - { offsetInCU: 0x66E19, offset: 0x66E19, size: 0x8, addend: 0x0, symName: __ZN3glm3vecILi3EfLNS_9qualifierE0EEC1IdddEET_T0_T1_, symObjAddr: 0x3C9C, symBinAddr: 0x100008748, symSize: 0x44 }
  - { offsetInCU: 0x66E8A, offset: 0x66E8A, size: 0x8, addend: 0x0, symName: __ZNSt3__16vectorIN3glm3vecILi3EfLNS1_9qualifierE0EEENS_9allocatorIS4_EEE4dataB8ue170006Ev, symObjAddr: 0x3CE0, symBinAddr: 0x10000878C, symSize: 0x28 }
  - { offsetInCU: 0x66EB0, offset: 0x66EB0, size: 0x8, addend: 0x0, symName: __ZNSt3__13mapINS_12basic_stringIcNS_11char_traitsIcEENS_9allocatorIcEEEENS_10shared_ptrI5ModelEENS_4lessIS6_EENS4_INS_4pairIKS6_S9_EEEEEC1B8ue170006Ev, symObjAddr: 0x49E8, symBinAddr: 0x100009494, symSize: 0x2C }
  - { offsetInCU: 0x66EDA, offset: 0x66EDA, size: 0x8, addend: 0x0, symName: __ZNSt3__13mapINS_12basic_stringIcNS_11char_traitsIcEENS_9allocatorIcEEEENS_10shared_ptrI5ModelEENS_4lessIS6_EENS4_INS_4pairIKS6_S9_EEEEED1B8ue170006Ev, symObjAddr: 0x4A14, symBinAddr: 0x1000094C0, symSize: 0x2C }
  - { offsetInCU: 0x66F04, offset: 0x66F04, size: 0x8, addend: 0x0, symName: __ZNSt3__13mapINS_12basic_stringIcNS_11char_traitsIcEENS_9allocatorIcEEEENS_10shared_ptrI5ShapeEENS_4lessIS6_EENS4_INS_4pairIKS6_S9_EEEEEC1B8ue170006Ev, symObjAddr: 0x4A40, symBinAddr: 0x1000094EC, symSize: 0x2C }
  - { offsetInCU: 0x66F2E, offset: 0x66F2E, size: 0x8, addend: 0x0, symName: __ZNSt3__13mapINS_12basic_stringIcNS_11char_traitsIcEENS_9allocatorIcEEEENS_10shared_ptrI5ShapeEENS_4lessIS6_EENS4_INS_4pairIKS6_S9_EEEEED1B8ue170006Ev, symObjAddr: 0x4A6C, symBinAddr: 0x100009518, symSize: 0x2C }
  - { offsetInCU: 0x66F58, offset: 0x66F58, size: 0x8, addend: 0x0, symName: __ZNSt3__13mapINS_12basic_stringIcNS_11char_traitsIcEENS_9allocatorIcEEEENS_10shared_ptrI3TexEENS_4lessIS6_EENS4_INS_4pairIKS6_S9_EEEEEC1B8ue170006Ev, symObjAddr: 0x4A98, symBinAddr: 0x100009544, symSize: 0x2C }
  - { offsetInCU: 0x66F82, offset: 0x66F82, size: 0x8, addend: 0x0, symName: __ZNSt3__13mapINS_12basic_stringIcNS_11char_traitsIcEENS_9allocatorIcEEEENS_10shared_ptrI3TexEENS_4lessIS6_EENS4_INS_4pairIKS6_S9_EEEEED1B8ue170006Ev, symObjAddr: 0x4AC4, symBinAddr: 0x100009570, symSize: 0x2C }
  - { offsetInCU: 0x66FAC, offset: 0x66FAC, size: 0x8, addend: 0x0, symName: __ZNSt3__13mapINS_12basic_stringIcNS_11char_traitsIcEENS_9allocatorIcEEEENS_10shared_ptrI6ShaderEENS_4lessIS6_EENS4_INS_4pairIKS6_S9_EEEEEC1B8ue170006Ev, symObjAddr: 0x4AF0, symBinAddr: 0x10000959C, symSize: 0x2C }
  - { offsetInCU: 0x66FD6, offset: 0x66FD6, size: 0x8, addend: 0x0, symName: __ZNSt3__13mapINS_12basic_stringIcNS_11char_traitsIcEENS_9allocatorIcEEEENS_10shared_ptrI6ShaderEENS_4lessIS6_EENS4_INS_4pairIKS6_S9_EEEEED1B8ue170006Ev, symObjAddr: 0x4B1C, symBinAddr: 0x1000095C8, symSize: 0x2C }
  - { offsetInCU: 0x67000, offset: 0x67000, size: 0x8, addend: 0x0, symName: __ZN3TexC1ENSt3__112basic_stringIcNS0_11char_traitsIcEENS0_9allocatorIcEEEES6_jii8Tex_Typeb, symObjAddr: 0x4D54, symBinAddr: 0x100009800, symSize: 0x70 }
  - { offsetInCU: 0x67093, offset: 0x67093, size: 0x8, addend: 0x0, symName: __ZNSt3__110shared_ptrI3TexEC1B8ue170006IS1_vEEPT_, symObjAddr: 0x4DC4, symBinAddr: 0x100009870, symSize: 0x34 }
  - { offsetInCU: 0x670F0, offset: 0x670F0, size: 0x8, addend: 0x0, symName: __ZNSt3__13mapINS_12basic_stringIcNS_11char_traitsIcEENS_9allocatorIcEEEENS_10shared_ptrI3TexEENS_4lessIS6_EENS4_INS_4pairIKS6_S9_EEEEE6insertB8ue170006INSC_IS6_S9_EEvEENSC_INS_14__map_iteratorINS_15__tree_iteratorINS_12__value_typeIS6_S9_EEPNS_11__tree_nodeISM_PvEElEEEEbEEOT_, symObjAddr: 0x4DF8, symBinAddr: 0x1000098A4, symSize: 0x4C }
  - { offsetInCU: 0x6712F, offset: 0x6712F, size: 0x8, addend: 0x0, symName: __ZNSt3__14pairINS_12basic_stringIcNS_11char_traitsIcEENS_9allocatorIcEEEENS_10shared_ptrI3TexEEEC1B8ue170006IRS6_RS9_LPv0EEEOT_OT0_, symObjAddr: 0x4E44, symBinAddr: 0x1000098F0, symSize: 0x3C }
  - { offsetInCU: 0x6718D, offset: 0x6718D, size: 0x8, addend: 0x0, symName: __ZNSt3__14pairINS_12basic_stringIcNS_11char_traitsIcEENS_9allocatorIcEEEENS_10shared_ptrI3TexEEED1Ev, symObjAddr: 0x4E80, symBinAddr: 0x10000992C, symSize: 0x2C }
  - { offsetInCU: 0x671B9, offset: 0x671B9, size: 0x8, addend: 0x0, symName: __ZNSt3__110shared_ptrI3TexED1B8ue170006Ev, symObjAddr: 0x4EAC, symBinAddr: 0x100009958, symSize: 0x2C }
  - { offsetInCU: 0x671E3, offset: 0x671E3, size: 0x8, addend: 0x0, symName: __ZN3TexC1ENSt3__112basic_stringIcNS0_11char_traitsIcEENS0_9allocatorIcEEEERNS0_6vectorIS6_NS4_IS6_EEEEjiib, symObjAddr: 0x509C, symBinAddr: 0x100009B48, symSize: 0x68 }
  - { offsetInCU: 0x67262, offset: 0x67262, size: 0x8, addend: 0x0, symName: __ZN6ShaderC1ENSt3__112basic_stringIcNS0_11char_traitsIcEENS0_9allocatorIcEEEES6_S6_, symObjAddr: 0x5328, symBinAddr: 0x100009DD4, symSize: 0x44 }
  - { offsetInCU: 0x672B9, offset: 0x672B9, size: 0x8, addend: 0x0, symName: __ZNSt3__110shared_ptrI6ShaderEC1B8ue170006IS1_vEEPT_, symObjAddr: 0x536C, symBinAddr: 0x100009E18, symSize: 0x34 }
  - { offsetInCU: 0x67316, offset: 0x67316, size: 0x8, addend: 0x0, symName: __ZNSt3__13mapINS_12basic_stringIcNS_11char_traitsIcEENS_9allocatorIcEEEENS_10shared_ptrI6ShaderEENS_4lessIS6_EENS4_INS_4pairIKS6_S9_EEEEE6insertB8ue170006INSC_IS6_S9_EEvEENSC_INS_14__map_iteratorINS_15__tree_iteratorINS_12__value_typeIS6_S9_EEPNS_11__tree_nodeISM_PvEElEEEEbEEOT_, symObjAddr: 0x53A0, symBinAddr: 0x100009E4C, symSize: 0x4C }
  - { offsetInCU: 0x67355, offset: 0x67355, size: 0x8, addend: 0x0, symName: __ZNSt3__14pairINS_12basic_stringIcNS_11char_traitsIcEENS_9allocatorIcEEEENS_10shared_ptrI6ShaderEEEC1B8ue170006IRS6_RS9_LPv0EEEOT_OT0_, symObjAddr: 0x53EC, symBinAddr: 0x100009E98, symSize: 0x3C }
  - { offsetInCU: 0x673B3, offset: 0x673B3, size: 0x8, addend: 0x0, symName: __ZNSt3__14pairINS_12basic_stringIcNS_11char_traitsIcEENS_9allocatorIcEEEENS_10shared_ptrI6ShaderEEED1Ev, symObjAddr: 0x5428, symBinAddr: 0x100009ED4, symSize: 0x2C }
  - { offsetInCU: 0x673DF, offset: 0x673DF, size: 0x8, addend: 0x0, symName: __ZNSt3__110shared_ptrI6ShaderED1B8ue170006Ev, symObjAddr: 0x5454, symBinAddr: 0x100009F00, symSize: 0x2C }
  - { offsetInCU: 0x67409, offset: 0x67409, size: 0x8, addend: 0x0, symName: __ZN5ModelC1ENSt3__112basic_stringIcNS0_11char_traitsIcEENS0_9allocatorIcEEEES6_P6Shaderfj, symObjAddr: 0x5674, symBinAddr: 0x10000A120, symSize: 0x54 }
  - { offsetInCU: 0x67480, offset: 0x67480, size: 0x8, addend: 0x0, symName: __ZNSt3__110shared_ptrI5ModelEC1B8ue170006IS1_vEEPT_, symObjAddr: 0x56C8, symBinAddr: 0x10000A174, symSize: 0x34 }
  - { offsetInCU: 0x674DD, offset: 0x674DD, size: 0x8, addend: 0x0, symName: __ZNSt3__13mapINS_12basic_stringIcNS_11char_traitsIcEENS_9allocatorIcEEEENS_10shared_ptrI5ModelEENS_4lessIS6_EENS4_INS_4pairIKS6_S9_EEEEE6insertB8ue170006INSC_IS6_S9_EEvEENSC_INS_14__map_iteratorINS_15__tree_iteratorINS_12__value_typeIS6_S9_EEPNS_11__tree_nodeISM_PvEElEEEEbEEOT_, symObjAddr: 0x56FC, symBinAddr: 0x10000A1A8, symSize: 0x4C }
  - { offsetInCU: 0x6751C, offset: 0x6751C, size: 0x8, addend: 0x0, symName: __ZNSt3__14pairINS_12basic_stringIcNS_11char_traitsIcEENS_9allocatorIcEEEENS_10shared_ptrI5ModelEEEC1B8ue170006IRS6_RS9_LPv0EEEOT_OT0_, symObjAddr: 0x5748, symBinAddr: 0x10000A1F4, symSize: 0x3C }
  - { offsetInCU: 0x6757A, offset: 0x6757A, size: 0x8, addend: 0x0, symName: __ZNSt3__14pairINS_12basic_stringIcNS_11char_traitsIcEENS_9allocatorIcEEEENS_10shared_ptrI5ModelEEED1Ev, symObjAddr: 0x5784, symBinAddr: 0x10000A230, symSize: 0x2C }
  - { offsetInCU: 0x675A6, offset: 0x675A6, size: 0x8, addend: 0x0, symName: __ZNSt3__110shared_ptrI5ModelED1B8ue170006Ev, symObjAddr: 0x57B0, symBinAddr: 0x10000A25C, symSize: 0x2C }
  - { offsetInCU: 0x675FE, offset: 0x675FE, size: 0x8, addend: 0x0, symName: __ZNSt3__110shared_ptrI4CubeEC1B8ue170006IS1_vEEPT_, symObjAddr: 0x5978, symBinAddr: 0x10000A424, symSize: 0x34 }
  - { offsetInCU: 0x6765B, offset: 0x6765B, size: 0x8, addend: 0x0, symName: __ZNSt3__13mapINS_12basic_stringIcNS_11char_traitsIcEENS_9allocatorIcEEEENS_10shared_ptrI5ShapeEENS_4lessIS6_EENS4_INS_4pairIKS6_S9_EEEEE6insertB8ue170006INSC_IS6_S9_EEvEENSC_INS_14__map_iteratorINS_15__tree_iteratorINS_12__value_typeIS6_S9_EEPNS_11__tree_nodeISM_PvEElEEEEbEEOT_, symObjAddr: 0x59AC, symBinAddr: 0x10000A458, symSize: 0x4C }
  - { offsetInCU: 0x6769A, offset: 0x6769A, size: 0x8, addend: 0x0, symName: __ZNSt3__14pairINS_12basic_stringIcNS_11char_traitsIcEENS_9allocatorIcEEEENS_10shared_ptrI5ShapeEEEC1B8ue170006IRS6_RNS7_I4CubeEELPv0EEEOT_OT0_, symObjAddr: 0x59F8, symBinAddr: 0x10000A4A4, symSize: 0x3C }
  - { offsetInCU: 0x676F8, offset: 0x676F8, size: 0x8, addend: 0x0, symName: __ZNSt3__14pairINS_12basic_stringIcNS_11char_traitsIcEENS_9allocatorIcEEEENS_10shared_ptrI5ShapeEEED1Ev, symObjAddr: 0x5A34, symBinAddr: 0x10000A4E0, symSize: 0x2C }
  - { offsetInCU: 0x67724, offset: 0x67724, size: 0x8, addend: 0x0, symName: __ZNSt3__110shared_ptrI4CubeED1B8ue170006Ev, symObjAddr: 0x5A60, symBinAddr: 0x10000A50C, symSize: 0x2C }
  - { offsetInCU: 0x67856, offset: 0x67856, size: 0x8, addend: 0x0, symName: __ZN6SphereC1ENSt3__112basic_stringIcNS0_11char_traitsIcEENS0_9allocatorIcEEEEP6Shaderii, symObjAddr: 0x5C38, symBinAddr: 0x10000A6E4, symSize: 0x4C }
  - { offsetInCU: 0x678EB, offset: 0x678EB, size: 0x8, addend: 0x0, symName: __ZNSt3__110shared_ptrI6SphereEC1B8ue170006IS1_vEEPT_, symObjAddr: 0x5C84, symBinAddr: 0x10000A730, symSize: 0x34 }
  - { offsetInCU: 0x6792E, offset: 0x6792E, size: 0x8, addend: 0x0, symName: __ZNSt3__14pairINS_12basic_stringIcNS_11char_traitsIcEENS_9allocatorIcEEEENS_10shared_ptrI5ShapeEEEC1B8ue170006IRS6_RNS7_I6SphereEELPv0EEEOT_OT0_, symObjAddr: 0x5CB8, symBinAddr: 0x10000A764, symSize: 0x3C }
  - { offsetInCU: 0x6798C, offset: 0x6798C, size: 0x8, addend: 0x0, symName: __ZNSt3__110shared_ptrI6SphereED1B8ue170006Ev, symObjAddr: 0x5CF4, symBinAddr: 0x10000A7A0, symSize: 0x2C }
  - { offsetInCU: 0x67A65, offset: 0x67A65, size: 0x8, addend: 0x0, symName: __ZN9RectangleC1ENSt3__112basic_stringIcNS0_11char_traitsIcEENS0_9allocatorIcEEEEP6Shaderjj, symObjAddr: 0x5ECC, symBinAddr: 0x10000A978, symSize: 0x4C }
  - { offsetInCU: 0x67AFA, offset: 0x67AFA, size: 0x8, addend: 0x0, symName: __ZNSt3__110shared_ptrI9RectangleEC1B8ue170006IS1_vEEPT_, symObjAddr: 0x5F18, symBinAddr: 0x10000A9C4, symSize: 0x34 }
  - { offsetInCU: 0x67B3D, offset: 0x67B3D, size: 0x8, addend: 0x0, symName: __ZNSt3__14pairINS_12basic_stringIcNS_11char_traitsIcEENS_9allocatorIcEEEENS_10shared_ptrI5ShapeEEEC1B8ue170006IRS6_RNS7_I9RectangleEELPv0EEEOT_OT0_, symObjAddr: 0x5F4C, symBinAddr: 0x10000A9F8, symSize: 0x3C }
  - { offsetInCU: 0x67B9B, offset: 0x67B9B, size: 0x8, addend: 0x0, symName: __ZNSt3__110shared_ptrI9RectangleED1B8ue170006Ev, symObjAddr: 0x5F88, symBinAddr: 0x10000AA34, symSize: 0x2C }
  - { offsetInCU: 0x67BC5, offset: 0x67BC5, size: 0x8, addend: 0x0, symName: __ZNSt3__13mapINS_12basic_stringIcNS_11char_traitsIcEENS_9allocatorIcEEEENS_10shared_ptrI5ModelEENS_4lessIS6_EENS4_INS_4pairIKS6_S9_EEEEE5eraseB8ue170006ERSD_, symObjAddr: 0x5FE4, symBinAddr: 0x10000AA90, symSize: 0x2C }
  - { offsetInCU: 0x67BFA, offset: 0x67BFA, size: 0x8, addend: 0x0, symName: __ZNSt3__13mapINS_12basic_stringIcNS_11char_traitsIcEENS_9allocatorIcEEEENS_10shared_ptrI5ShapeEENS_4lessIS6_EENS4_INS_4pairIKS6_S9_EEEEE5eraseB8ue170006ERSD_, symObjAddr: 0x6040, symBinAddr: 0x10000AAEC, symSize: 0x2C }
  - { offsetInCU: 0x67C2F, offset: 0x67C2F, size: 0x8, addend: 0x0, symName: __ZNSt3__13mapINS_12basic_stringIcNS_11char_traitsIcEENS_9allocatorIcEEEENS_10shared_ptrI3TexEENS_4lessIS6_EENS4_INS_4pairIKS6_S9_EEEEE5eraseB8ue170006ERSD_, symObjAddr: 0x609C, symBinAddr: 0x10000AB48, symSize: 0x2C }
  - { offsetInCU: 0x67C64, offset: 0x67C64, size: 0x8, addend: 0x0, symName: __ZNSt3__16vectorIfNS_9allocatorIfEEEC1B8ue170006Ev, symObjAddr: 0x60C8, symBinAddr: 0x10000AB74, symSize: 0x2C }
  - { offsetInCU: 0x67C93, offset: 0x67C93, size: 0x8, addend: 0x0, symName: __ZN9Interface15ShapePropertiesC1Ev, symObjAddr: 0xA838, symBinAddr: 0x10000F2E4, symSize: 0x2C }
  - { offsetInCU: 0x67CBF, offset: 0x67CBF, size: 0x8, addend: 0x0, symName: __ZN9Interface15ShapePropertiesD1Ev, symObjAddr: 0xA864, symBinAddr: 0x10000F310, symSize: 0x2C }
  - { offsetInCU: 0x67CF0, offset: 0x67CF0, size: 0x8, addend: 0x0, symName: __ZN9Interface15LightPropertiesC1Ev, symObjAddr: 0xA890, symBinAddr: 0x10000F33C, symSize: 0x2C }
  - { offsetInCU: 0x67D1C, offset: 0x67D1C, size: 0x8, addend: 0x0, symName: __ZN9Interface15LightPropertiesD1Ev, symObjAddr: 0xA8BC, symBinAddr: 0x10000F368, symSize: 0x2C }
  - { offsetInCU: 0x67D4D, offset: 0x67D4D, size: 0x8, addend: 0x0, symName: __ZN9Interface14NodePropertiesC1Ev, symObjAddr: 0xA8E8, symBinAddr: 0x10000F394, symSize: 0x2C }
  - { offsetInCU: 0x67D79, offset: 0x67D79, size: 0x8, addend: 0x0, symName: __ZN9Interface14NodePropertiesD1Ev, symObjAddr: 0xA914, symBinAddr: 0x10000F3C0, symSize: 0x2C }
  - { offsetInCU: 0x67DA5, offset: 0x67DA5, size: 0x8, addend: 0x0, symName: __ZNSt3__110shared_ptrI8DrawableED1B8ue170006Ev, symObjAddr: 0xA940, symBinAddr: 0x10000F3EC, symSize: 0x2C }
  - { offsetInCU: 0x67E5F, offset: 0x67E5F, size: 0x8, addend: 0x0, symName: __ZN6ImVec2C1Eff, symObjAddr: 0xA96C, symBinAddr: 0x10000F418, symSize: 0x3C }
  - { offsetInCU: 0x67F1B, offset: 0x67F1B, size: 0x8, addend: 0x0, symName: __ZN6ImVec4C1Effff, symObjAddr: 0xA9A8, symBinAddr: 0x10000F454, symSize: 0x4C }
  - { offsetInCU: 0x67F81, offset: 0x67F81, size: 0x8, addend: 0x0, symName: __ZNKSt3__16vectorIfNS_9allocatorIfEEE5emptyB8ue170006Ev, symObjAddr: 0xA9F4, symBinAddr: 0x10000F4A0, symSize: 0x28 }
  - { offsetInCU: 0x67FA7, offset: 0x67FA7, size: 0x8, addend: 0x0, symName: __ZNSt3__16vectorIfNS_9allocatorIfEEE4backB8ue170006Ev, symObjAddr: 0xAA1C, symBinAddr: 0x10000F4C8, symSize: 0x1C }
  - { offsetInCU: 0x67FCD, offset: 0x67FCD, size: 0x8, addend: 0x0, symName: __ZNSt3__16vectorIfNS_9allocatorIfEEE4dataB8ue170006Ev, symObjAddr: 0xAA38, symBinAddr: 0x10000F4E4, symSize: 0x28 }
  - { offsetInCU: 0x67FF3, offset: 0x67FF3, size: 0x8, addend: 0x0, symName: __ZNKSt3__16vectorIfNS_9allocatorIfEEE4sizeB8ue170006Ev, symObjAddr: 0xAA60, symBinAddr: 0x10000F50C, symSize: 0x28 }
  - { offsetInCU: 0x68019, offset: 0x68019, size: 0x8, addend: 0x0, symName: __ZNSt3__13mapINS_12basic_stringIcNS_11char_traitsIcEENS_9allocatorIcEEEENS_10shared_ptrI3TexEENS_4lessIS6_EENS4_INS_4pairIKS6_S9_EEEEE5beginB8ue170006Ev, symObjAddr: 0xAA88, symBinAddr: 0x10000F534, symSize: 0x38 }
  - { offsetInCU: 0x6803F, offset: 0x6803F, size: 0x8, addend: 0x0, symName: __ZNSt3__13mapINS_12basic_stringIcNS_11char_traitsIcEENS_9allocatorIcEEEENS_10shared_ptrI3TexEENS_4lessIS6_EENS4_INS_4pairIKS6_S9_EEEEE3endB8ue170006Ev, symObjAddr: 0xAAF0, symBinAddr: 0x10000F59C, symSize: 0x38 }
  - { offsetInCU: 0x68065, offset: 0x68065, size: 0x8, addend: 0x0, symName: __ZNKSt3__114__map_iteratorINS_15__tree_iteratorINS_12__value_typeINS_12basic_stringIcNS_11char_traitsIcEENS_9allocatorIcEEEENS_10shared_ptrI3TexEEEEPNS_11__tree_nodeISC_PvEElEEEptB8ue170006Ev, symObjAddr: 0xAB28, symBinAddr: 0x10000F5D4, symSize: 0x2C }
  - { offsetInCU: 0x6808B, offset: 0x6808B, size: 0x8, addend: 0x0, symName: __ZNSt3__110shared_ptrI3TexEC1B8ue170006ERKS2_, symObjAddr: 0xAB54, symBinAddr: 0x10000F600, symSize: 0x34 }
  - { offsetInCU: 0x680C4, offset: 0x680C4, size: 0x8, addend: 0x0, symName: __ZNKSt3__112basic_stringIcNS_11char_traitsIcEENS_9allocatorIcEEE5c_strB8ue170006Ev, symObjAddr: 0xAB88, symBinAddr: 0x10000F634, symSize: 0x24 }
  - { offsetInCU: 0x680EA, offset: 0x680EA, size: 0x8, addend: 0x0, symName: __ZNSt3__112basic_stringIcNS_11char_traitsIcEENS_9allocatorIcEEEC1B8ue170006Ev, symObjAddr: 0xABF0, symBinAddr: 0x10000F69C, symSize: 0x2C }
  - { offsetInCU: 0x68114, offset: 0x68114, size: 0x8, addend: 0x0, symName: __ZNSt3__16vectorINS_12basic_stringIcNS_11char_traitsIcEENS_9allocatorIcEEEENS4_IS6_EEEixB8ue170006Em, symObjAddr: 0xAC1C, symBinAddr: 0x10000F6C8, symSize: 0x2C }
  - { offsetInCU: 0x6814B, offset: 0x6814B, size: 0x8, addend: 0x0, symName: __ZNSt3__16vectorINS_12basic_stringIcNS_11char_traitsIcEENS_9allocatorIcEEEENS4_IS6_EEE5beginB8ue170006Ev, symObjAddr: 0xAC48, symBinAddr: 0x10000F6F4, symSize: 0x30 }
  - { offsetInCU: 0x68173, offset: 0x68173, size: 0x8, addend: 0x0, symName: __ZNSt3__16vectorINS_12basic_stringIcNS_11char_traitsIcEENS_9allocatorIcEEEENS4_IS6_EEE3endB8ue170006Ev, symObjAddr: 0xAC78, symBinAddr: 0x10000F724, symSize: 0x30 }
  - { offsetInCU: 0x6819B, offset: 0x6819B, size: 0x8, addend: 0x0, symName: __ZNKSt3__111__wrap_iterIPNS_12basic_stringIcNS_11char_traitsIcEENS_9allocatorIcEEEEEdeB8ue170006Ev, symObjAddr: 0xACDC, symBinAddr: 0x10000F788, symSize: 0x18 }
  - { offsetInCU: 0x681C1, offset: 0x681C1, size: 0x8, addend: 0x0, symName: __ZNSt3__111__wrap_iterIPNS_12basic_stringIcNS_11char_traitsIcEENS_9allocatorIcEEEEEppB8ue170006Ev, symObjAddr: 0xACF4, symBinAddr: 0x10000F7A0, symSize: 0x20 }
  - { offsetInCU: 0x681E7, offset: 0x681E7, size: 0x8, addend: 0x0, symName: __ZNSt3__114__map_iteratorINS_15__tree_iteratorINS_12__value_typeINS_12basic_stringIcNS_11char_traitsIcEENS_9allocatorIcEEEENS_10shared_ptrI3TexEEEEPNS_11__tree_nodeISC_PvEElEEEppB8ue170006Ei, symObjAddr: 0xAD14, symBinAddr: 0x10000F7C0, symSize: 0x34 }
  - { offsetInCU: 0x68228, offset: 0x68228, size: 0x8, addend: 0x0, symName: __ZNSt3__13mapINS_12basic_stringIcNS_11char_traitsIcEENS_9allocatorIcEEEENS_10shared_ptrI5ModelEENS_4lessIS6_EENS4_INS_4pairIKS6_S9_EEEEE5beginB8ue170006Ev, symObjAddr: 0xAD48, symBinAddr: 0x10000F7F4, symSize: 0x38 }
  - { offsetInCU: 0x6824E, offset: 0x6824E, size: 0x8, addend: 0x0, symName: __ZNSt3__13mapINS_12basic_stringIcNS_11char_traitsIcEENS_9allocatorIcEEEENS_10shared_ptrI5ModelEENS_4lessIS6_EENS4_INS_4pairIKS6_S9_EEEEE3endB8ue170006Ev, symObjAddr: 0xADB0, symBinAddr: 0x10000F85C, symSize: 0x38 }
  - { offsetInCU: 0x68274, offset: 0x68274, size: 0x8, addend: 0x0, symName: __ZNKSt3__114__map_iteratorINS_15__tree_iteratorINS_12__value_typeINS_12basic_stringIcNS_11char_traitsIcEENS_9allocatorIcEEEENS_10shared_ptrI5ModelEEEEPNS_11__tree_nodeISC_PvEElEEEptB8ue170006Ev, symObjAddr: 0xADE8, symBinAddr: 0x10000F894, symSize: 0x2C }
  - { offsetInCU: 0x6829A, offset: 0x6829A, size: 0x8, addend: 0x0, symName: __ZNSt3__110shared_ptrI5ModelEC1B8ue170006ERKS2_, symObjAddr: 0xAE14, symBinAddr: 0x10000F8C0, symSize: 0x34 }
  - { offsetInCU: 0x682D3, offset: 0x682D3, size: 0x8, addend: 0x0, symName: __ZNKSt3__110shared_ptrI5ModelEptB8ue170006Ev, symObjAddr: 0xAE48, symBinAddr: 0x10000F8F4, symSize: 0x18 }
  - { offsetInCU: 0x682F9, offset: 0x682F9, size: 0x8, addend: 0x0, symName: __ZNSt3__114__map_iteratorINS_15__tree_iteratorINS_12__value_typeINS_12basic_stringIcNS_11char_traitsIcEENS_9allocatorIcEEEENS_10shared_ptrI5ModelEEEEPNS_11__tree_nodeISC_PvEElEEEppB8ue170006Ei, symObjAddr: 0xAE60, symBinAddr: 0x10000F90C, symSize: 0x34 }
  - { offsetInCU: 0x68345, offset: 0x68345, size: 0x8, addend: 0x0, symName: __ZN9Interface15ShapePropertiesaSEOS0_, symObjAddr: 0xAE94, symBinAddr: 0x10000F940, symSize: 0x7C }
  - { offsetInCU: 0x68376, offset: 0x68376, size: 0x8, addend: 0x0, symName: __ZNKSt3__13mapI8Tex_TypeNS_12basic_stringIcNS_11char_traitsIcEENS_9allocatorIcEEEENS_4lessIS1_EENS5_INS_4pairIKS1_S7_EEEEE5countB8ue170006ERSB_, symObjAddr: 0xAF64, symBinAddr: 0x10000FA10, symSize: 0x2C }
  - { offsetInCU: 0x683AB, offset: 0x683AB, size: 0x8, addend: 0x0, symName: __ZNSt3__13mapI8Tex_TypeNS_12basic_stringIcNS_11char_traitsIcEENS_9allocatorIcEEEENS_4lessIS1_EENS5_INS_4pairIKS1_S7_EEEEEixERSB_, symObjAddr: 0xAF90, symBinAddr: 0x10000FA3C, symSize: 0x80 }
  - { offsetInCU: 0x683E2, offset: 0x683E2, size: 0x8, addend: 0x0, symName: __ZNSt3__112basic_stringIcNS_11char_traitsIcEENS_9allocatorIcEEEaSB8ue170006EPKc, symObjAddr: 0xB0BC, symBinAddr: 0x10000FB68, symSize: 0x2C }
  - { offsetInCU: 0x68417, offset: 0x68417, size: 0x8, addend: 0x0, symName: __ZNKSt3__110shared_ptrI6SphereEptB8ue170006Ev, symObjAddr: 0xB230, symBinAddr: 0x10000FCDC, symSize: 0x18 }
  - { offsetInCU: 0x6843D, offset: 0x6843D, size: 0x8, addend: 0x0, symName: __ZN5Shape14SetSurfaceTypeE13Shape_Surface, symObjAddr: 0xB248, symBinAddr: 0x10000FCF4, symSize: 0xA0 }
  - { offsetInCU: 0x68471, offset: 0x68471, size: 0x8, addend: 0x0, symName: __ZN5Shape8SetColorEN3glm3vecILi3EfLNS0_9qualifierE0EEE, symObjAddr: 0xB2E8, symBinAddr: 0x10000FD94, symSize: 0x34 }
  - { offsetInCU: 0x684A5, offset: 0x684A5, size: 0x8, addend: 0x0, symName: __ZN5Shape11SetMetallicEf, symObjAddr: 0xB31C, symBinAddr: 0x10000FDC8, symSize: 0x20 }
  - { offsetInCU: 0x684D9, offset: 0x684D9, size: 0x8, addend: 0x0, symName: __ZN5Shape12SetRoughnessEf, symObjAddr: 0xB33C, symBinAddr: 0x10000FDE8, symSize: 0x20 }
  - { offsetInCU: 0x6850D, offset: 0x6850D, size: 0x8, addend: 0x0, symName: __ZNSt3__13mapI8Tex_TypeNS_12basic_stringIcNS_11char_traitsIcEENS_9allocatorIcEEEENS_4lessIS1_EENS5_INS_4pairIKS1_S7_EEEEE5beginB8ue170006Ev, symObjAddr: 0xB35C, symBinAddr: 0x10000FE08, symSize: 0x38 }
  - { offsetInCU: 0x68533, offset: 0x68533, size: 0x8, addend: 0x0, symName: __ZNSt3__13mapI8Tex_TypeNS_12basic_stringIcNS_11char_traitsIcEENS_9allocatorIcEEEENS_4lessIS1_EENS5_INS_4pairIKS1_S7_EEEEE3endB8ue170006Ev, symObjAddr: 0xB394, symBinAddr: 0x10000FE40, symSize: 0x38 }
  - { offsetInCU: 0x68559, offset: 0x68559, size: 0x8, addend: 0x0, symName: __ZNKSt3__114__map_iteratorINS_15__tree_iteratorINS_12__value_typeI8Tex_TypeNS_12basic_stringIcNS_11char_traitsIcEENS_9allocatorIcEEEEEEPNS_11__tree_nodeISA_PvEElEEEdeB8ue170006Ev, symObjAddr: 0xB3FC, symBinAddr: 0x10000FEA8, symSize: 0x28 }
  - { offsetInCU: 0x6857F, offset: 0x6857F, size: 0x8, addend: 0x0, symName: __ZN5Shape10SetTextureE8Tex_TypeNSt3__110shared_ptrI3TexEE, symObjAddr: 0xB424, symBinAddr: 0x10000FED0, symSize: 0x54 }
  - { offsetInCU: 0x685C2, offset: 0x685C2, size: 0x8, addend: 0x0, symName: __ZNSt3__13mapINS_12basic_stringIcNS_11char_traitsIcEENS_9allocatorIcEEEENS_10shared_ptrI3TexEENS_4lessIS6_EENS4_INS_4pairIKS6_S9_EEEEEixERSD_, symObjAddr: 0xB478, symBinAddr: 0x10000FF24, symSize: 0x80 }
  - { offsetInCU: 0x685F9, offset: 0x685F9, size: 0x8, addend: 0x0, symName: __ZNSt3__114__map_iteratorINS_15__tree_iteratorINS_12__value_typeI8Tex_TypeNS_12basic_stringIcNS_11char_traitsIcEENS_9allocatorIcEEEEEEPNS_11__tree_nodeISA_PvEElEEEppB8ue170006Ev, symObjAddr: 0xB4F8, symBinAddr: 0x10000FFA4, symSize: 0x2C }
  - { offsetInCU: 0x6861F, offset: 0x6861F, size: 0x8, addend: 0x0, symName: __ZNKSt3__110shared_ptrI4CubeEptB8ue170006Ev, symObjAddr: 0xB524, symBinAddr: 0x10000FFD0, symSize: 0x18 }
  - { offsetInCU: 0x68645, offset: 0x68645, size: 0x8, addend: 0x0, symName: __ZNKSt3__110shared_ptrI9RectangleEptB8ue170006Ev, symObjAddr: 0xB53C, symBinAddr: 0x10000FFE8, symSize: 0x18 }
  - { offsetInCU: 0x6866B, offset: 0x6866B, size: 0x8, addend: 0x0, symName: __ZNSt3__13mapINS_12basic_stringIcNS_11char_traitsIcEENS_9allocatorIcEEEENS_10shared_ptrI5ShapeEENS_4lessIS6_EENS4_INS_4pairIKS6_S9_EEEEE5beginB8ue170006Ev, symObjAddr: 0xB554, symBinAddr: 0x100010000, symSize: 0x38 }
  - { offsetInCU: 0x68691, offset: 0x68691, size: 0x8, addend: 0x0, symName: __ZNSt3__13mapINS_12basic_stringIcNS_11char_traitsIcEENS_9allocatorIcEEEENS_10shared_ptrI5ShapeEENS_4lessIS6_EENS4_INS_4pairIKS6_S9_EEEEE3endB8ue170006Ev, symObjAddr: 0xB5BC, symBinAddr: 0x100010068, symSize: 0x38 }
  - { offsetInCU: 0x686B7, offset: 0x686B7, size: 0x8, addend: 0x0, symName: __ZNKSt3__114__map_iteratorINS_15__tree_iteratorINS_12__value_typeINS_12basic_stringIcNS_11char_traitsIcEENS_9allocatorIcEEEENS_10shared_ptrI5ShapeEEEEPNS_11__tree_nodeISC_PvEElEEEptB8ue170006Ev, symObjAddr: 0xB5F4, symBinAddr: 0x1000100A0, symSize: 0x2C }
  - { offsetInCU: 0x686DD, offset: 0x686DD, size: 0x8, addend: 0x0, symName: __ZNSt3__110shared_ptrI5ShapeEC1B8ue170006ERKS2_, symObjAddr: 0xB620, symBinAddr: 0x1000100CC, symSize: 0x34 }
  - { offsetInCU: 0x68716, offset: 0x68716, size: 0x8, addend: 0x0, symName: __ZNKSt3__110shared_ptrI5ShapeEptB8ue170006Ev, symObjAddr: 0xB654, symBinAddr: 0x100010100, symSize: 0x18 }
  - { offsetInCU: 0x6873C, offset: 0x6873C, size: 0x8, addend: 0x0, symName: __ZN5Shape14GetSurfaceTypeEv, symObjAddr: 0xB66C, symBinAddr: 0x100010118, symSize: 0x18 }
  - { offsetInCU: 0x68762, offset: 0x68762, size: 0x8, addend: 0x0, symName: __ZN5Shape11GetColorPtrEv, symObjAddr: 0xB684, symBinAddr: 0x100010130, symSize: 0x18 }
  - { offsetInCU: 0x68788, offset: 0x68788, size: 0x8, addend: 0x0, symName: __ZN5Shape14GetMetallicPtrEv, symObjAddr: 0xB69C, symBinAddr: 0x100010148, symSize: 0x18 }
  - { offsetInCU: 0x687AE, offset: 0x687AE, size: 0x8, addend: 0x0, symName: __ZN5Shape15GetRoughnessPtrEv, symObjAddr: 0xB6B4, symBinAddr: 0x100010160, symSize: 0x18 }
  - { offsetInCU: 0x687D4, offset: 0x687D4, size: 0x8, addend: 0x0, symName: __ZNKSt3__13mapI8Tex_TypeNS_10shared_ptrI3TexEENS_4lessIS1_EENS_9allocatorINS_4pairIKS1_S4_EEEEE5countB8ue170006ERS9_, symObjAddr: 0xB6CC, symBinAddr: 0x100010178, symSize: 0x2C }
  - { offsetInCU: 0x68809, offset: 0x68809, size: 0x8, addend: 0x0, symName: __ZNSt3__13mapI8Tex_TypeNS_10shared_ptrI3TexEENS_4lessIS1_EENS_9allocatorINS_4pairIKS1_S4_EEEEEixERS9_, symObjAddr: 0xB6F8, symBinAddr: 0x1000101A4, symSize: 0x80 }
  - { offsetInCU: 0x68840, offset: 0x68840, size: 0x8, addend: 0x0, symName: __ZNSt3__13mapI8Tex_TypeNS_10shared_ptrI3TexEENS_4lessIS1_EENS_9allocatorINS_4pairIKS1_S4_EEEEE5eraseB8ue170006ERS9_, symObjAddr: 0xB778, symBinAddr: 0x100010224, symSize: 0x2C }
  - { offsetInCU: 0x68875, offset: 0x68875, size: 0x8, addend: 0x0, symName: __ZNSt3__110shared_ptrI5ShapeED1B8ue170006Ev, symObjAddr: 0xB7A4, symBinAddr: 0x100010250, symSize: 0x2C }
  - { offsetInCU: 0x6889F, offset: 0x6889F, size: 0x8, addend: 0x0, symName: __ZNSt3__114__map_iteratorINS_15__tree_iteratorINS_12__value_typeINS_12basic_stringIcNS_11char_traitsIcEENS_9allocatorIcEEEENS_10shared_ptrI5ShapeEEEEPNS_11__tree_nodeISC_PvEElEEEppB8ue170006Ei, symObjAddr: 0xB7D0, symBinAddr: 0x10001027C, symSize: 0x34 }
  - { offsetInCU: 0x688EB, offset: 0x688EB, size: 0x8, addend: 0x0, symName: __ZN9Interface14NodePropertiesaSEOS0_, symObjAddr: 0xB804, symBinAddr: 0x1000102B0, symSize: 0x84 }
  - { offsetInCU: 0x68927, offset: 0x68927, size: 0x8, addend: 0x0, symName: __ZN9Interface15LightPropertiesaSEOS0_, symObjAddr: 0xB888, symBinAddr: 0x100010334, symSize: 0x80 }
  - { offsetInCU: 0x68958, offset: 0x68958, size: 0x8, addend: 0x0, symName: __ZN5Scene22CreateDirectionalLightEv, symObjAddr: 0xB908, symBinAddr: 0x1000103B4, symSize: 0xD4 }
  - { offsetInCU: 0x6898D, offset: 0x6898D, size: 0x8, addend: 0x0, symName: __ZNKSt3__110shared_ptrI16DirectionalLightEptB8ue170006Ev, symObjAddr: 0xB9DC, symBinAddr: 0x100010488, symSize: 0x18 }
  - { offsetInCU: 0x689B3, offset: 0x689B3, size: 0x8, addend: 0x0, symName: __ZN5Light7SetNameENSt3__112basic_stringIcNS0_11char_traitsIcEENS0_9allocatorIcEEEE, symObjAddr: 0xB9F4, symBinAddr: 0x1000104A0, symSize: 0x48 }
  - { offsetInCU: 0x689E8, offset: 0x689E8, size: 0x8, addend: 0x0, symName: __ZN16DirectionalLight13EnableShadowsEfffff, symObjAddr: 0xBA3C, symBinAddr: 0x1000104E8, symSize: 0x68 }
  - { offsetInCU: 0x68A54, offset: 0x68A54, size: 0x8, addend: 0x0, symName: __ZNSt3__110shared_ptrI16DirectionalLightED1B8ue170006Ev, symObjAddr: 0xBAA4, symBinAddr: 0x100010550, symSize: 0x2C }
  - { offsetInCU: 0x68A7E, offset: 0x68A7E, size: 0x8, addend: 0x0, symName: __ZN5Scene16CreatePointLightEv, symObjAddr: 0xBAD0, symBinAddr: 0x10001057C, symSize: 0xD8 }
  - { offsetInCU: 0x68AB3, offset: 0x68AB3, size: 0x8, addend: 0x0, symName: __ZNKSt3__110shared_ptrI10PointLightEptB8ue170006Ev, symObjAddr: 0xBBA8, symBinAddr: 0x100010654, symSize: 0x18 }
  - { offsetInCU: 0x68AD9, offset: 0x68AD9, size: 0x8, addend: 0x0, symName: __ZN10PointLight13EnableShadowsEfff, symObjAddr: 0xBBC0, symBinAddr: 0x10001066C, symSize: 0x50 }
  - { offsetInCU: 0x68B29, offset: 0x68B29, size: 0x8, addend: 0x0, symName: __ZNSt3__110shared_ptrI10PointLightED1B8ue170006Ev, symObjAddr: 0xBC10, symBinAddr: 0x1000106BC, symSize: 0x2C }
  - { offsetInCU: 0x68B53, offset: 0x68B53, size: 0x8, addend: 0x0, symName: __ZNSt3__110shared_ptrI8DrawableEaSB8ue170006I5ModelvEERS2_RKNS0_IT_EE, symObjAddr: 0xBC3C, symBinAddr: 0x1000106E8, symSize: 0x50 }
  - { offsetInCU: 0x68B92, offset: 0x68B92, size: 0x8, addend: 0x0, symName: __ZNSt3__110shared_ptrI8DrawableEaSB8ue170006I5ShapevEERS2_RKNS0_IT_EE, symObjAddr: 0xBC8C, symBinAddr: 0x100010738, symSize: 0x50 }
  - { offsetInCU: 0x68BD1, offset: 0x68BD1, size: 0x8, addend: 0x0, symName: __ZNKSt3__110shared_ptrI8DrawableEcvbB8ue170006Ev, symObjAddr: 0xBCDC, symBinAddr: 0x100010788, symSize: 0x30 }
  - { offsetInCU: 0x68BF7, offset: 0x68BF7, size: 0x8, addend: 0x0, symName: __ZN5Scene10CreateNodeENSt3__110shared_ptrI8DrawableEE, symObjAddr: 0xBD0C, symBinAddr: 0x1000107B8, symSize: 0x140 }
  - { offsetInCU: 0x68C3B, offset: 0x68C3B, size: 0x8, addend: 0x0, symName: __ZNSt3__110shared_ptrI8DrawableEC1B8ue170006ERKS2_, symObjAddr: 0xBE4C, symBinAddr: 0x1000108F8, symSize: 0x34 }
  - { offsetInCU: 0x68C74, offset: 0x68C74, size: 0x8, addend: 0x0, symName: __ZNKSt3__110shared_ptrI9SceneNodeEptB8ue170006Ev, symObjAddr: 0xBE80, symBinAddr: 0x10001092C, symSize: 0x18 }
  - { offsetInCU: 0x68C9A, offset: 0x68C9A, size: 0x8, addend: 0x0, symName: __ZN9SceneNode7SetNameENSt3__112basic_stringIcNS0_11char_traitsIcEENS0_9allocatorIcEEEE, symObjAddr: 0xBE98, symBinAddr: 0x100010944, symSize: 0x40 }
  - { offsetInCU: 0x68CCF, offset: 0x68CCF, size: 0x8, addend: 0x0, symName: __ZN9SceneNode12SetPlacementEN3glm3vecILi3EfLNS0_9qualifierE0EEES3_S3_f, symObjAddr: 0xBED8, symBinAddr: 0x100010984, symSize: 0x84 }
  - { offsetInCU: 0x68D2D, offset: 0x68D2D, size: 0x8, addend: 0x0, symName: __ZNSt3__110shared_ptrI9SceneNodeED1B8ue170006Ev, symObjAddr: 0xBF5C, symBinAddr: 0x100010A08, symSize: 0x2C }
  - { offsetInCU: 0x68D57, offset: 0x68D57, size: 0x8, addend: 0x0, symName: __ZNSt3__110shared_ptrI3TexEaSB8ue170006ERKS2_, symObjAddr: 0xBF88, symBinAddr: 0x100010A34, symSize: 0x50 }
  - { offsetInCU: 0x68D8C, offset: 0x68D8C, size: 0x8, addend: 0x0, symName: __ZNSt3__16vectorINS_10shared_ptrI16DirectionalLightEENS_9allocatorIS3_EEE5beginB8ue170006Ev, symObjAddr: 0xBFD8, symBinAddr: 0x100010A84, symSize: 0x30 }
  - { offsetInCU: 0x68DB4, offset: 0x68DB4, size: 0x8, addend: 0x0, symName: __ZNSt3__16vectorINS_10shared_ptrI16DirectionalLightEENS_9allocatorIS3_EEE3endB8ue170006Ev, symObjAddr: 0xC03C, symBinAddr: 0x100010AE8, symSize: 0x30 }
  - { offsetInCU: 0x68DDC, offset: 0x68DDC, size: 0x8, addend: 0x0, symName: __ZNKSt3__111__wrap_iterIPNS_10shared_ptrI16DirectionalLightEEEdeB8ue170006Ev, symObjAddr: 0xC06C, symBinAddr: 0x100010B18, symSize: 0x18 }
  - { offsetInCU: 0x68E02, offset: 0x68E02, size: 0x8, addend: 0x0, symName: __ZNSt3__110shared_ptrI16DirectionalLightEC1B8ue170006ERKS2_, symObjAddr: 0xC084, symBinAddr: 0x100010B30, symSize: 0x34 }
  - { offsetInCU: 0x68E3B, offset: 0x68E3B, size: 0x8, addend: 0x0, symName: __ZNK5Light10HasShadowsEv, symObjAddr: 0xC0B8, symBinAddr: 0x100010B64, symSize: 0x1C }
  - { offsetInCU: 0x68E61, offset: 0x68E61, size: 0x8, addend: 0x0, symName: __ZN5Light14DisableShadowsEv, symObjAddr: 0xC0D4, symBinAddr: 0x100010B80, symSize: 0x18 }
  - { offsetInCU: 0x68E87, offset: 0x68E87, size: 0x8, addend: 0x0, symName: __ZN5Scene6DeleteENSt3__110shared_ptrI16DirectionalLightEE, symObjAddr: 0xC0EC, symBinAddr: 0x100010B98, symSize: 0x78 }
  - { offsetInCU: 0x68ECA, offset: 0x68ECA, size: 0x8, addend: 0x0, symName: __ZNSt3__111__wrap_iterIPNS_10shared_ptrI16DirectionalLightEEEppB8ue170006Ei, symObjAddr: 0xC164, symBinAddr: 0x100010C10, symSize: 0x34 }
  - { offsetInCU: 0x68F09, offset: 0x68F09, size: 0x8, addend: 0x0, symName: __ZNSt3__16vectorINS_10shared_ptrI10PointLightEENS_9allocatorIS3_EEE5beginB8ue170006Ev, symObjAddr: 0xC198, symBinAddr: 0x100010C44, symSize: 0x30 }
  - { offsetInCU: 0x68F31, offset: 0x68F31, size: 0x8, addend: 0x0, symName: __ZNSt3__16vectorINS_10shared_ptrI10PointLightEENS_9allocatorIS3_EEE3endB8ue170006Ev, symObjAddr: 0xC1FC, symBinAddr: 0x100010CA8, symSize: 0x30 }
  - { offsetInCU: 0x68F59, offset: 0x68F59, size: 0x8, addend: 0x0, symName: __ZNKSt3__111__wrap_iterIPNS_10shared_ptrI10PointLightEEEdeB8ue170006Ev, symObjAddr: 0xC22C, symBinAddr: 0x100010CD8, symSize: 0x18 }
  - { offsetInCU: 0x68F7F, offset: 0x68F7F, size: 0x8, addend: 0x0, symName: __ZNSt3__110shared_ptrI10PointLightEC1B8ue170006ERKS2_, symObjAddr: 0xC244, symBinAddr: 0x100010CF0, symSize: 0x34 }
  - { offsetInCU: 0x68FB8, offset: 0x68FB8, size: 0x8, addend: 0x0, symName: __ZN5Scene6DeleteENSt3__110shared_ptrI10PointLightEE, symObjAddr: 0xC278, symBinAddr: 0x100010D24, symSize: 0x80 }
  - { offsetInCU: 0x68FFB, offset: 0x68FFB, size: 0x8, addend: 0x0, symName: __ZNSt3__111__wrap_iterIPNS_10shared_ptrI10PointLightEEEppB8ue170006Ei, symObjAddr: 0xC2F8, symBinAddr: 0x100010DA4, symSize: 0x34 }
  - { offsetInCU: 0x6903A, offset: 0x6903A, size: 0x8, addend: 0x0, symName: __ZNSt3__16vectorINS_10shared_ptrI9SceneNodeEENS_9allocatorIS3_EEE5beginB8ue170006Ev, symObjAddr: 0xC32C, symBinAddr: 0x100010DD8, symSize: 0x30 }
  - { offsetInCU: 0x69062, offset: 0x69062, size: 0x8, addend: 0x0, symName: __ZNSt3__16vectorINS_10shared_ptrI9SceneNodeEENS_9allocatorIS3_EEE3endB8ue170006Ev, symObjAddr: 0xC390, symBinAddr: 0x100010E3C, symSize: 0x30 }
  - { offsetInCU: 0x6908A, offset: 0x6908A, size: 0x8, addend: 0x0, symName: __ZNKSt3__111__wrap_iterIPNS_10shared_ptrI9SceneNodeEEEdeB8ue170006Ev, symObjAddr: 0xC3C0, symBinAddr: 0x100010E6C, symSize: 0x18 }
  - { offsetInCU: 0x690B0, offset: 0x690B0, size: 0x8, addend: 0x0, symName: __ZNSt3__110shared_ptrI9SceneNodeEC1B8ue170006ERKS2_, symObjAddr: 0xC3D8, symBinAddr: 0x100010E84, symSize: 0x34 }
  - { offsetInCU: 0x690E9, offset: 0x690E9, size: 0x8, addend: 0x0, symName: __ZNKSt3__110shared_ptrI8DrawableEptB8ue170006Ev, symObjAddr: 0xC40C, symBinAddr: 0x100010EB8, symSize: 0x18 }
  - { offsetInCU: 0x6910F, offset: 0x6910F, size: 0x8, addend: 0x0, symName: __ZN5Scene6DeleteENSt3__110shared_ptrI9SceneNodeEE, symObjAddr: 0xC424, symBinAddr: 0x100010ED0, symSize: 0x80 }
  - { offsetInCU: 0x69152, offset: 0x69152, size: 0x8, addend: 0x0, symName: __ZNSt3__111__wrap_iterIPNS_10shared_ptrI9SceneNodeEEEppB8ue170006Ei, symObjAddr: 0xC4A4, symBinAddr: 0x100010F50, symSize: 0x34 }
  - { offsetInCU: 0x69191, offset: 0x69191, size: 0x8, addend: 0x0, symName: __ZN5SceneC1Ev, symObjAddr: 0xC988, symBinAddr: 0x100011434, symSize: 0x2C }
  - { offsetInCU: 0x691BB, offset: 0x691BB, size: 0x8, addend: 0x0, symName: __ZN5SceneD1Ev, symObjAddr: 0xC9B4, symBinAddr: 0x100011460, symSize: 0x2C }
  - { offsetInCU: 0x691E7, offset: 0x691E7, size: 0x8, addend: 0x0, symName: _main, symObjAddr: 0xC9E0, symBinAddr: 0x10001148C, symSize: 0x484C }
  - { offsetInCU: 0x69789, offset: 0x69789, size: 0x8, addend: 0x0, symName: __Z25framebuffer_size_callbackP10GLFWwindowii, symObjAddr: 0x1122C, symBinAddr: 0x100015CD8, symSize: 0x44 }
  - { offsetInCU: 0x697D2, offset: 0x697D2, size: 0x8, addend: 0x0, symName: __Z14mouse_callbackP10GLFWwindowdd, symObjAddr: 0x11270, symBinAddr: 0x100015D1C, symSize: 0x11C }
  - { offsetInCU: 0x69848, offset: 0x69848, size: 0x8, addend: 0x0, symName: __Z12key_callbackP10GLFWwindowiiii, symObjAddr: 0x1138C, symBinAddr: 0x100015E38, symSize: 0x118 }
  - { offsetInCU: 0x698CD, offset: 0x698CD, size: 0x8, addend: 0x0, symName: __ZN6Shader22setUniformBlockBindingE11Shader_Enum, symObjAddr: 0x114A4, symBinAddr: 0x100015F50, symSize: 0x1CC }
  - { offsetInCU: 0x69901, offset: 0x69901, size: 0x8, addend: 0x0, symName: __ZN5Scene23InitializeUniformBlocksEv, symObjAddr: 0x11670, symBinAddr: 0x10001611C, symSize: 0x2CC }
  - { offsetInCU: 0x69927, offset: 0x69927, size: 0x8, addend: 0x0, symName: __ZNSt3__110shared_ptrI8DrawableEC1B8ue170006I5ModelvEERKNS0_IT_EE, symObjAddr: 0x1193C, symBinAddr: 0x1000163E8, symSize: 0x34 }
  - { offsetInCU: 0x6996A, offset: 0x6996A, size: 0x8, addend: 0x0, symName: __ZN6Camera19SetProjectionMatrixEN3glm3matILi4ELi4EfLNS0_9qualifierE0EEE, symObjAddr: 0x11994, symBinAddr: 0x100016440, symSize: 0x30 }
  - { offsetInCU: 0x6999F, offset: 0x6999F, size: 0x8, addend: 0x0, symName: __ZNSt3__16vectorIfNS_9allocatorIfEEE5beginB8ue170006Ev, symObjAddr: 0x119C4, symBinAddr: 0x100016470, symSize: 0x30 }
  - { offsetInCU: 0x699C7, offset: 0x699C7, size: 0x8, addend: 0x0, symName: __ZNKSt3__111__wrap_iterIPfEplB8ue170006El, symObjAddr: 0x119F4, symBinAddr: 0x1000164A0, symSize: 0x3C }
  - { offsetInCU: 0x69A09, offset: 0x69A09, size: 0x8, addend: 0x0, symName: __ZNSt3__16vectorIfNS_9allocatorIfEEE3endB8ue170006Ev, symObjAddr: 0x11A30, symBinAddr: 0x1000164DC, symSize: 0x30 }
  - { offsetInCU: 0x69A31, offset: 0x69A31, size: 0x8, addend: 0x0, symName: __ZNSt3__16vectorIfNS_9allocatorIfEEEC1INS_11__wrap_iterIPfEELi0EEET_S8_, symObjAddr: 0x11A60, symBinAddr: 0x10001650C, symSize: 0x3C }
  - { offsetInCU: 0x69A8A, offset: 0x69A8A, size: 0x8, addend: 0x0, symName: __ZNSt3__16vectorIfNS_9allocatorIfEEEaSB8ue170006EOS3_, symObjAddr: 0x11A9C, symBinAddr: 0x100016548, symSize: 0x34 }
  - { offsetInCU: 0x69AC1, offset: 0x69AC1, size: 0x8, addend: 0x0, symName: __ZNSt3__16vectorIfNS_9allocatorIfEEE9push_backB8ue170006ERKf, symObjAddr: 0x11AD0, symBinAddr: 0x10001657C, symSize: 0x6C }
  - { offsetInCU: 0x69AF8, offset: 0x69AF8, size: 0x8, addend: 0x0, symName: __Z12processInputP10GLFWwindow, symObjAddr: 0x11B3C, symBinAddr: 0x1000165E8, symSize: 0x198 }
  - { offsetInCU: 0x69B32, offset: 0x69B32, size: 0x8, addend: 0x0, symName: __ZN5Scene29SetVertexMatricesUniformBlockEv, symObjAddr: 0x11CD4, symBinAddr: 0x100016780, symSize: 0xC4 }
  - { offsetInCU: 0x69B75, offset: 0x69B75, size: 0x8, addend: 0x0, symName: __ZN5Scene31SetFragmentMatricesUniformBlockEv, symObjAddr: 0x11D98, symBinAddr: 0x100016844, symSize: 0x9C }
  - { offsetInCU: 0x69BAA, offset: 0x69BAA, size: 0x8, addend: 0x0, symName: __ZN5Scene31SetDirectionalLightUniformBlockEv, symObjAddr: 0x11E34, symBinAddr: 0x1000168E0, symSize: 0x2C0 }
  - { offsetInCU: 0x69C61, offset: 0x69C61, size: 0x8, addend: 0x0, symName: __ZN5Scene25SetPointLightUniformBlockEv, symObjAddr: 0x120F4, symBinAddr: 0x100016BA0, symSize: 0x340 }
  - { offsetInCU: 0x69D28, offset: 0x69D28, size: 0x8, addend: 0x0, symName: __ZN9SceneNode11DrawDefaultEv, symObjAddr: 0x12434, symBinAddr: 0x100016EE0, symSize: 0x98 }
  - { offsetInCU: 0x69D4E, offset: 0x69D4E, size: 0x8, addend: 0x0, symName: __ZNSt3__111__wrap_iterIPNS_10shared_ptrI9SceneNodeEEEppB8ue170006Ev, symObjAddr: 0x124CC, symBinAddr: 0x100016F78, symSize: 0x20 }
  - { offsetInCU: 0x69D74, offset: 0x69D74, size: 0x8, addend: 0x0, symName: __ZNKSt3__16vectorINS_10shared_ptrI16DirectionalLightEENS_9allocatorIS3_EEE4sizeB8ue170006Ev, symObjAddr: 0x124EC, symBinAddr: 0x100016F98, symSize: 0x28 }
  - { offsetInCU: 0x69D9A, offset: 0x69D9A, size: 0x8, addend: 0x0, symName: __ZNSt3__16vectorINS_10shared_ptrI16DirectionalLightEENS_9allocatorIS3_EEEixB8ue170006Em, symObjAddr: 0x12514, symBinAddr: 0x100016FC0, symSize: 0x24 }
  - { offsetInCU: 0x69DD1, offset: 0x69DD1, size: 0x8, addend: 0x0, symName: __ZN16DirectionalLight19GetLightspaceMatrixEv, symObjAddr: 0x12538, symBinAddr: 0x100016FE4, symSize: 0x68 }
  - { offsetInCU: 0x69DF7, offset: 0x69DF7, size: 0x8, addend: 0x0, symName: __ZN9SceneNode4DrawER6Shader, symObjAddr: 0x125A0, symBinAddr: 0x10001704C, symSize: 0x90 }
  - { offsetInCU: 0x69E2B, offset: 0x69E2B, size: 0x8, addend: 0x0, symName: __ZNKSt3__16vectorINS_10shared_ptrI10PointLightEENS_9allocatorIS3_EEE4sizeB8ue170006Ev, symObjAddr: 0x12630, symBinAddr: 0x1000170DC, symSize: 0x28 }
  - { offsetInCU: 0x69E51, offset: 0x69E51, size: 0x8, addend: 0x0, symName: __ZNSt3__16vectorINS_10shared_ptrI10PointLightEENS_9allocatorIS3_EEEixB8ue170006Em, symObjAddr: 0x12658, symBinAddr: 0x100017104, symSize: 0x24 }
  - { offsetInCU: 0x69E88, offset: 0x69E88, size: 0x8, addend: 0x0, symName: __ZN10PointLight21GetLightspaceMatricesEv, symObjAddr: 0x1267C, symBinAddr: 0x100017128, symSize: 0x68 }
  - { offsetInCU: 0x69EAE, offset: 0x69EAE, size: 0x8, addend: 0x0, symName: __ZNSt3__16vectorIN3glm3matILi4ELi4EfLNS1_9qualifierE0EEENS_9allocatorIS4_EEEixB8ue170006Em, symObjAddr: 0x126E4, symBinAddr: 0x100017190, symSize: 0x24 }
  - { offsetInCU: 0x69EE5, offset: 0x69EE5, size: 0x8, addend: 0x0, symName: __ZN6Shader7setVec3ENSt3__112basic_stringIcNS0_11char_traitsIcEENS0_9allocatorIcEEEEN3glm3vecILi3EfLNS7_9qualifierE0EEE, symObjAddr: 0x12708, symBinAddr: 0x1000171B4, symSize: 0xAC }
  - { offsetInCU: 0x69F36, offset: 0x69F36, size: 0x8, addend: 0x0, symName: __ZNK5Light11GetFarPlaneEv, symObjAddr: 0x127B4, symBinAddr: 0x100017260, symSize: 0x18 }
  - { offsetInCU: 0x69F5C, offset: 0x69F5C, size: 0x8, addend: 0x0, symName: __ZNKSt3__16vectorIN3glm3vecILi3EfLNS1_9qualifierE0EEENS_9allocatorIS4_EEE4sizeB8ue170006Ev, symObjAddr: 0x127CC, symBinAddr: 0x100017278, symSize: 0x28 }
  - { offsetInCU: 0x69F82, offset: 0x69F82, size: 0x8, addend: 0x0, symName: __ZNSt3__16vectorIN3glm3vecILi3EfLNS1_9qualifierE0EEENS_9allocatorIS4_EEEixB8ue170006Em, symObjAddr: 0x127F4, symBinAddr: 0x1000172A0, symSize: 0x2C }
  - { offsetInCU: 0x69FF8, offset: 0x69FF8, size: 0x8, addend: 0x0, symName: __ZNSt3__15queueIjNS_5dequeIjNS_9allocatorIjEEEEEC1B8ue170006Ev, symObjAddr: 0x12820, symBinAddr: 0x1000172CC, symSize: 0x2C }
  - { offsetInCU: 0x6A022, offset: 0x6A022, size: 0x8, addend: 0x0, symName: __ZNSt3__15queueIjNS_5dequeIjNS_9allocatorIjEEEEE4pushB8ue170006ERKj, symObjAddr: 0x1284C, symBinAddr: 0x1000172F8, symSize: 0x2C }
  - { offsetInCU: 0x6A057, offset: 0x6A057, size: 0x8, addend: 0x0, symName: __ZNSt3__15queueIjNS_5dequeIjNS_9allocatorIjEEEEE4pushB8ue170006EOj, symObjAddr: 0x12878, symBinAddr: 0x100017324, symSize: 0x2C }
  - { offsetInCU: 0x6A08C, offset: 0x6A08C, size: 0x8, addend: 0x0, symName: __ZNSt3__15queueIjNS_5dequeIjNS_9allocatorIjEEEEE5frontB8ue170006Ev, symObjAddr: 0x128A4, symBinAddr: 0x100017350, symSize: 0x24 }
  - { offsetInCU: 0x6A0B2, offset: 0x6A0B2, size: 0x8, addend: 0x0, symName: __ZNSt3__15queueIjNS_5dequeIjNS_9allocatorIjEEEEE3popB8ue170006Ev, symObjAddr: 0x128C8, symBinAddr: 0x100017374, symSize: 0x24 }
  - { offsetInCU: 0x6A0D8, offset: 0x6A0D8, size: 0x8, addend: 0x0, symName: __ZN6Camera13GetViewMatrixEv, symObjAddr: 0x128EC, symBinAddr: 0x100017398, symSize: 0x60 }
  - { offsetInCU: 0x6A0FE, offset: 0x6A0FE, size: 0x8, addend: 0x0, symName: __ZN3glm3matILi3ELi3EfLNS_9qualifierE0EEC1ERKNS0_ILi4ELi4EfLS1_0EEE, symObjAddr: 0x1294C, symBinAddr: 0x1000173F8, symSize: 0x34 }
  - { offsetInCU: 0x6A138, offset: 0x6A138, size: 0x8, addend: 0x0, symName: __ZN3glm3matILi4ELi4EfLNS_9qualifierE0EEC1ERKNS0_ILi3ELi3EfLS1_0EEE, symObjAddr: 0x12980, symBinAddr: 0x10001742C, symSize: 0x34 }
  - { offsetInCU: 0x6A181, offset: 0x6A181, size: 0x8, addend: 0x0, symName: __ZN6Engine11FramebufferaSERKS0_, symObjAddr: 0x129B4, symBinAddr: 0x100017460, symSize: 0x54 }
  - { offsetInCU: 0x6A1B2, offset: 0x6A1B2, size: 0x8, addend: 0x0, symName: __ZNSt3__15queueIjNS_5dequeIjNS_9allocatorIjEEEEED1Ev, symObjAddr: 0x12A08, symBinAddr: 0x1000174B4, symSize: 0x2C }
  - { offsetInCU: 0x6A1DF, offset: 0x6A1DF, size: 0x8, addend: 0x0, symName: __ZN6Camera15ProcessKeyboardE11direction_tf, symObjAddr: 0x12A34, symBinAddr: 0x1000174E0, symSize: 0x190 }
  - { offsetInCU: 0x6A22F, offset: 0x6A22F, size: 0x8, addend: 0x0, symName: __Z20window_size_callbackP10GLFWwindowii, symObjAddr: 0x12BDC, symBinAddr: 0x100017688, symSize: 0x34 }
  - { offsetInCU: 0x6A278, offset: 0x6A278, size: 0x8, addend: 0x0, symName: __ZN6Camera12ProcessMouseEdd, symObjAddr: 0x12C10, symBinAddr: 0x1000176BC, symSize: 0xD0 }
  - { offsetInCU: 0x6A2BA, offset: 0x6A2BA, size: 0x8, addend: 0x0, symName: __ZN6Engine11FramebufferC2Ev, symObjAddr: 0x12CE0, symBinAddr: 0x10001778C, symSize: 0x34 }
  - { offsetInCU: 0x6A2E6, offset: 0x6A2E6, size: 0x8, addend: 0x0, symName: __ZNSt3__16vectorIjNS_9allocatorIjEEEC1B8ue170006Ev, symObjAddr: 0x12D14, symBinAddr: 0x1000177C0, symSize: 0x2C }
  - { offsetInCU: 0x6A310, offset: 0x6A310, size: 0x8, addend: 0x0, symName: __ZNSt3__16vectorIjNS_9allocatorIjEEEC2B8ue170006Ev, symObjAddr: 0x12D40, symBinAddr: 0x1000177EC, symSize: 0x4C }
  - { offsetInCU: 0x6A346, offset: 0x6A346, size: 0x8, addend: 0x0, symName: __ZNSt3__117__compressed_pairIPjNS_9allocatorIjEEEC1B8ue170006IDnNS_18__default_init_tagEEEOT_OT0_, symObjAddr: 0x12D8C, symBinAddr: 0x100017838, symSize: 0x3C }
  - { offsetInCU: 0x6A39E, offset: 0x6A39E, size: 0x8, addend: 0x0, symName: __ZNSt3__117__compressed_pairIPjNS_9allocatorIjEEEC2B8ue170006IDnNS_18__default_init_tagEEEOT_OT0_, symObjAddr: 0x12DD4, symBinAddr: 0x100017880, symSize: 0x40 }
  - { offsetInCU: 0x6A3F6, offset: 0x6A3F6, size: 0x8, addend: 0x0, symName: __ZNSt3__122__compressed_pair_elemIPjLi0ELb0EEC2B8ue170006IDnvEEOT_, symObjAddr: 0x12E14, symBinAddr: 0x1000178C0, symSize: 0x1C }
  - { offsetInCU: 0x6A438, offset: 0x6A438, size: 0x8, addend: 0x0, symName: __ZNSt3__122__compressed_pair_elemINS_9allocatorIjEELi1ELb1EEC2B8ue170006ENS_18__default_init_tagE, symObjAddr: 0x12E30, symBinAddr: 0x1000178DC, symSize: 0x2C }
  - { offsetInCU: 0x6A46D, offset: 0x6A46D, size: 0x8, addend: 0x0, symName: __ZNSt3__19allocatorIjEC2B8ue170006Ev, symObjAddr: 0x12E5C, symBinAddr: 0x100017908, symSize: 0x2C }
  - { offsetInCU: 0x6A497, offset: 0x6A497, size: 0x8, addend: 0x0, symName: __ZNSt3__116__non_trivial_ifILb1ENS_9allocatorIjEEEC2B8ue170006Ev, symObjAddr: 0x12E88, symBinAddr: 0x100017934, symSize: 0x14 }
  - { offsetInCU: 0x6A4C1, offset: 0x6A4C1, size: 0x8, addend: 0x0, symName: __ZN6Engine11FramebufferD2Ev, symObjAddr: 0x12E9C, symBinAddr: 0x100017948, symSize: 0x30 }
  - { offsetInCU: 0x6A4ED, offset: 0x6A4ED, size: 0x8, addend: 0x0, symName: __ZN6Engine11EnvironmentC2Ev, symObjAddr: 0x12ECC, symBinAddr: 0x100017978, symSize: 0x1C }
  - { offsetInCU: 0x6A519, offset: 0x6A519, size: 0x8, addend: 0x0, symName: __ZN6Engine11EnvironmentD2Ev, symObjAddr: 0x12EE8, symBinAddr: 0x100017994, symSize: 0xA4 }
  - { offsetInCU: 0x6A543, offset: 0x6A543, size: 0x8, addend: 0x0, symName: __ZN3glm3vecILi3EfLNS_9qualifierE0EEC2Ef, symObjAddr: 0x12F8C, symBinAddr: 0x100017A38, symSize: 0x30 }
  - { offsetInCU: 0x6A57D, offset: 0x6A57D, size: 0x8, addend: 0x0, symName: __ZN3glm3vecILi3EfLNS_9qualifierE0EEC2Efff, symObjAddr: 0x12FBC, symBinAddr: 0x100017A68, symSize: 0x38 }
  - { offsetInCU: 0x6A5D3, offset: 0x6A5D3, size: 0x8, addend: 0x0, symName: __ZN3glm3matILi4ELi4EfLNS_9qualifierE0EEixEi, symObjAddr: 0x1301C, symBinAddr: 0x100017AC8, symSize: 0x78 }
  - { offsetInCU: 0x6A60A, offset: 0x6A60A, size: 0x8, addend: 0x0, symName: __ZN3glm3matILi4ELi4EfLNS_9qualifierE0EE6lengthEv, symObjAddr: 0x13094, symBinAddr: 0x100017B40, symSize: 0x8 }
  - { offsetInCU: 0x6A61E, offset: 0x6A61E, size: 0x8, addend: 0x0, symName: __ZN4CubeC2ENSt3__112basic_stringIcNS0_11char_traitsIcEENS0_9allocatorIcEEEEP6Shader, symObjAddr: 0x1309C, symBinAddr: 0x100017B48, symSize: 0xD4 }
  - { offsetInCU: 0x6A665, offset: 0x6A665, size: 0x8, addend: 0x0, symName: __ZN5ShapeC2ENSt3__112basic_stringIcNS0_11char_traitsIcEENS0_9allocatorIcEEEEP6Shader, symObjAddr: 0x13170, symBinAddr: 0x100017C1C, symSize: 0x174 }
  - { offsetInCU: 0x6A6AC, offset: 0x6A6AC, size: 0x8, addend: 0x0, symName: __ZN5ShapeD2Ev, symObjAddr: 0x132E4, symBinAddr: 0x100017D90, symSize: 0xE8 }
  - { offsetInCU: 0x6A6D6, offset: 0x6A6D6, size: 0x8, addend: 0x0, symName: __ZN4CubeD0Ev, symObjAddr: 0x133CC, symBinAddr: 0x100017E78, symSize: 0x30 }
  - { offsetInCU: 0x6A702, offset: 0x6A702, size: 0x8, addend: 0x0, symName: __ZN4Cube5setupEv, symObjAddr: 0x133FC, symBinAddr: 0x100017EA8, symSize: 0x1EC }
  - { offsetInCU: 0x6A728, offset: 0x6A728, size: 0x8, addend: 0x0, symName: __ZN8DrawableC2ENSt3__112basic_stringIcNS0_11char_traitsIcEENS0_9allocatorIcEEEEP6Shaderb, symObjAddr: 0x135E8, symBinAddr: 0x100018094, symSize: 0xA8 }
  - { offsetInCU: 0x6A77D, offset: 0x6A77D, size: 0x8, addend: 0x0, symName: __ZNSt3__13mapI8Tex_TypeNS_10shared_ptrI3TexEENS_4lessIS1_EENS_9allocatorINS_4pairIKS1_S4_EEEEEC1B8ue170006Ev, symObjAddr: 0x13690, symBinAddr: 0x10001813C, symSize: 0x2C }
  - { offsetInCU: 0x6A7A7, offset: 0x6A7A7, size: 0x8, addend: 0x0, symName: __ZNSt3__16vectorIN3glm3vecILi2EfLNS1_9qualifierE0EEENS_9allocatorIS4_EEEC1B8ue170006Ev, symObjAddr: 0x136BC, symBinAddr: 0x100018168, symSize: 0x2C }
  - { offsetInCU: 0x6A7D1, offset: 0x6A7D1, size: 0x8, addend: 0x0, symName: __ZNSt3__16vectorIN3glm3vecILi2EfLNS1_9qualifierE0EEENS_9allocatorIS4_EEED1B8ue170006Ev, symObjAddr: 0x136E8, symBinAddr: 0x100018194, symSize: 0x2C }
  - { offsetInCU: 0x6A7FB, offset: 0x6A7FB, size: 0x8, addend: 0x0, symName: __ZNSt3__13mapI8Tex_TypeNS_10shared_ptrI3TexEENS_4lessIS1_EENS_9allocatorINS_4pairIKS1_S4_EEEEED1B8ue170006Ev, symObjAddr: 0x13714, symBinAddr: 0x1000181C0, symSize: 0x2C }
  - { offsetInCU: 0x6A825, offset: 0x6A825, size: 0x8, addend: 0x0, symName: __ZN8DrawableD2Ev, symObjAddr: 0x13740, symBinAddr: 0x1000181EC, symSize: 0x4C }
  - { offsetInCU: 0x6A84F, offset: 0x6A84F, size: 0x8, addend: 0x0, symName: __ZN5ShapeD1Ev, symObjAddr: 0x1378C, symBinAddr: 0x100018238, symSize: 0x14 }
  - { offsetInCU: 0x6A879, offset: 0x6A879, size: 0x8, addend: 0x0, symName: __ZN5ShapeD0Ev, symObjAddr: 0x137A0, symBinAddr: 0x10001824C, symSize: 0xC }
  - { offsetInCU: 0x6A8A3, offset: 0x6A8A3, size: 0x8, addend: 0x0, symName: __ZN8DrawableD1Ev, symObjAddr: 0x137AC, symBinAddr: 0x100018258, symSize: 0x14 }
  - { offsetInCU: 0x6A8CD, offset: 0x6A8CD, size: 0x8, addend: 0x0, symName: __ZN8DrawableD0Ev, symObjAddr: 0x137C0, symBinAddr: 0x10001826C, symSize: 0xC }
  - { offsetInCU: 0x6A8F7, offset: 0x6A8F7, size: 0x8, addend: 0x0, symName: __ZNSt3__13mapI8Tex_TypeNS_10shared_ptrI3TexEENS_4lessIS1_EENS_9allocatorINS_4pairIKS1_S4_EEEEEC2B8ue170006Ev, symObjAddr: 0x137CC, symBinAddr: 0x100018278, symSize: 0x40 }
  - { offsetInCU: 0x6A921, offset: 0x6A921, size: 0x8, addend: 0x0, symName: __ZNSt3__119__map_value_compareI8Tex_TypeNS_12__value_typeIS1_NS_10shared_ptrI3TexEEEENS_4lessIS1_EELb1EEC1B8ue170006ES8_, symObjAddr: 0x1380C, symBinAddr: 0x1000182B8, symSize: 0x2C }
  - { offsetInCU: 0x6A95A, offset: 0x6A95A, size: 0x8, addend: 0x0, symName: __ZNSt3__16__treeINS_12__value_typeI8Tex_TypeNS_10shared_ptrI3TexEEEENS_19__map_value_compareIS2_S6_NS_4lessIS2_EELb1EEENS_9allocatorIS6_EEEC1ERKSA_, symObjAddr: 0x13838, symBinAddr: 0x1000182E4, symSize: 0x34 }
  - { offsetInCU: 0x6A995, offset: 0x6A995, size: 0x8, addend: 0x0, symName: __ZNSt3__119__map_value_compareI8Tex_TypeNS_12__value_typeIS1_NS_10shared_ptrI3TexEEEENS_4lessIS1_EELb1EEC2B8ue170006ES8_, symObjAddr: 0x1386C, symBinAddr: 0x100018318, symSize: 0x14 }
  - { offsetInCU: 0x6A9CE, offset: 0x6A9CE, size: 0x8, addend: 0x0, symName: __ZNSt3__16__treeINS_12__value_typeI8Tex_TypeNS_10shared_ptrI3TexEEEENS_19__map_value_compareIS2_S6_NS_4lessIS2_EELb1EEENS_9allocatorIS6_EEEC2ERKSA_, symObjAddr: 0x13880, symBinAddr: 0x10001832C, symSize: 0x7C }
  - { offsetInCU: 0x6AA09, offset: 0x6AA09, size: 0x8, addend: 0x0, symName: __ZNSt3__117__compressed_pairINS_15__tree_end_nodeIPNS_16__tree_node_baseIPvEEEENS_9allocatorINS_11__tree_nodeINS_12__value_typeI8Tex_TypeNS_10shared_ptrI3TexEEEES3_EEEEEC1B8ue170006ILb1EvEEv, symObjAddr: 0x138FC, symBinAddr: 0x1000183A8, symSize: 0x2C }
  - { offsetInCU: 0x6AA44, offset: 0x6AA44, size: 0x8, addend: 0x0, symName: __ZNSt3__117__compressed_pairImNS_19__map_value_compareI8Tex_TypeNS_12__value_typeIS2_NS_10shared_ptrI3TexEEEENS_4lessIS2_EELb1EEEEC1B8ue170006IiRKSA_EEOT_OT0_, symObjAddr: 0x13928, symBinAddr: 0x1000183D4, symSize: 0x3C }
  - { offsetInCU: 0x6AA9C, offset: 0x6AA9C, size: 0x8, addend: 0x0, symName: __ZNSt3__16__treeINS_12__value_typeI8Tex_TypeNS_10shared_ptrI3TexEEEENS_19__map_value_compareIS2_S6_NS_4lessIS2_EELb1EEENS_9allocatorIS6_EEE10__end_nodeB8ue170006Ev, symObjAddr: 0x13964, symBinAddr: 0x100018410, symSize: 0x2C }
  - { offsetInCU: 0x6AAC2, offset: 0x6AAC2, size: 0x8, addend: 0x0, symName: __ZNSt3__16__treeINS_12__value_typeI8Tex_TypeNS_10shared_ptrI3TexEEEENS_19__map_value_compareIS2_S6_NS_4lessIS2_EELb1EEENS_9allocatorIS6_EEE12__begin_nodeB8ue170006Ev, symObjAddr: 0x13990, symBinAddr: 0x10001843C, symSize: 0x14 }
  - { offsetInCU: 0x6AAE8, offset: 0x6AAE8, size: 0x8, addend: 0x0, symName: __ZNSt3__117__compressed_pairINS_15__tree_end_nodeIPNS_16__tree_node_baseIPvEEEENS_9allocatorINS_11__tree_nodeINS_12__value_typeI8Tex_TypeNS_10shared_ptrI3TexEEEES3_EEEEEC2B8ue170006ILb1EvEEv, symObjAddr: 0x139A4, symBinAddr: 0x100018450, symSize: 0x34 }
  - { offsetInCU: 0x6AB1D, offset: 0x6AB1D, size: 0x8, addend: 0x0, symName: __ZNSt3__122__compressed_pair_elemINS_15__tree_end_nodeIPNS_16__tree_node_baseIPvEEEELi0ELb0EEC2B8ue170006ENS_16__value_init_tagE, symObjAddr: 0x139D8, symBinAddr: 0x100018484, symSize: 0x2C }
  - { offsetInCU: 0x6AB52, offset: 0x6AB52, size: 0x8, addend: 0x0, symName: __ZNSt3__122__compressed_pair_elemINS_9allocatorINS_11__tree_nodeINS_12__value_typeI8Tex_TypeNS_10shared_ptrI3TexEEEEPvEEEELi1ELb1EEC2B8ue170006ENS_16__value_init_tagE, symObjAddr: 0x13A04, symBinAddr: 0x1000184B0, symSize: 0x2C }
  - { offsetInCU: 0x6AB87, offset: 0x6AB87, size: 0x8, addend: 0x0, symName: __ZNSt3__115__tree_end_nodeIPNS_16__tree_node_baseIPvEEEC1B8ue170006Ev, symObjAddr: 0x13A30, symBinAddr: 0x1000184DC, symSize: 0x2C }
  - { offsetInCU: 0x6ABB1, offset: 0x6ABB1, size: 0x8, addend: 0x0, symName: __ZNSt3__115__tree_end_nodeIPNS_16__tree_node_baseIPvEEEC2B8ue170006Ev, symObjAddr: 0x13A5C, symBinAddr: 0x100018508, symSize: 0x18 }
  - { offsetInCU: 0x6ABDB, offset: 0x6ABDB, size: 0x8, addend: 0x0, symName: __ZNSt3__19allocatorINS_11__tree_nodeINS_12__value_typeI8Tex_TypeNS_10shared_ptrI3TexEEEEPvEEEC2B8ue170006Ev, symObjAddr: 0x13A74, symBinAddr: 0x100018520, symSize: 0x2C }
  - { offsetInCU: 0x6AC05, offset: 0x6AC05, size: 0x8, addend: 0x0, symName: __ZNSt3__116__non_trivial_ifILb1ENS_9allocatorINS_11__tree_nodeINS_12__value_typeI8Tex_TypeNS_10shared_ptrI3TexEEEEPvEEEEEC2B8ue170006Ev, symObjAddr: 0x13AA0, symBinAddr: 0x10001854C, symSize: 0x14 }
  - { offsetInCU: 0x6AC2F, offset: 0x6AC2F, size: 0x8, addend: 0x0, symName: __ZNSt3__117__compressed_pairImNS_19__map_value_compareI8Tex_TypeNS_12__value_typeIS2_NS_10shared_ptrI3TexEEEENS_4lessIS2_EELb1EEEEC2B8ue170006IiRKSA_EEOT_OT0_, symObjAddr: 0x13AB4, symBinAddr: 0x100018560, symSize: 0x44 }
  - { offsetInCU: 0x6AC87, offset: 0x6AC87, size: 0x8, addend: 0x0, symName: __ZNSt3__122__compressed_pair_elemImLi0ELb0EEC2B8ue170006IivEEOT_, symObjAddr: 0x13AF8, symBinAddr: 0x1000185A4, symSize: 0x24 }
  - { offsetInCU: 0x6ACC9, offset: 0x6ACC9, size: 0x8, addend: 0x0, symName: __ZNSt3__122__compressed_pair_elemINS_19__map_value_compareI8Tex_TypeNS_12__value_typeIS2_NS_10shared_ptrI3TexEEEENS_4lessIS2_EELb1EEELi1ELb1EEC2B8ue170006IRKSA_vEEOT_, symObjAddr: 0x13B1C, symBinAddr: 0x1000185C8, symSize: 0x18 }
  - { offsetInCU: 0x6AD0B, offset: 0x6AD0B, size: 0x8, addend: 0x0, symName: __ZNSt3__114pointer_traitsIPNS_15__tree_end_nodeIPNS_16__tree_node_baseIPvEEEEE10pointer_toB8ue170006ERS6_, symObjAddr: 0x13B34, symBinAddr: 0x1000185E0, symSize: 0x14 }
  - { offsetInCU: 0x6AD2E, offset: 0x6AD2E, size: 0x8, addend: 0x0, symName: __ZNSt3__117__compressed_pairINS_15__tree_end_nodeIPNS_16__tree_node_baseIPvEEEENS_9allocatorINS_11__tree_nodeINS_12__value_typeI8Tex_TypeNS_10shared_ptrI3TexEEEES3_EEEEE5firstB8ue170006Ev, symObjAddr: 0x13B48, symBinAddr: 0x1000185F4, symSize: 0x24 }
  - { offsetInCU: 0x6AD54, offset: 0x6AD54, size: 0x8, addend: 0x0, symName: __ZNSt3__122__compressed_pair_elemINS_15__tree_end_nodeIPNS_16__tree_node_baseIPvEEEELi0ELb0EE5__getB8ue170006Ev, symObjAddr: 0x13B6C, symBinAddr: 0x100018618, symSize: 0x14 }
  - { offsetInCU: 0x6AD7A, offset: 0x6AD7A, size: 0x8, addend: 0x0, symName: __ZNSt3__16vectorIN3glm3vecILi2EfLNS1_9qualifierE0EEENS_9allocatorIS4_EEEC2B8ue170006Ev, symObjAddr: 0x13B80, symBinAddr: 0x10001862C, symSize: 0x4C }
  - { offsetInCU: 0x6ADA4, offset: 0x6ADA4, size: 0x8, addend: 0x0, symName: __ZNSt3__117__compressed_pairIPN3glm3vecILi2EfLNS1_9qualifierE0EEENS_9allocatorIS4_EEEC1B8ue170006IDnNS_18__default_init_tagEEEOT_OT0_, symObjAddr: 0x13BCC, symBinAddr: 0x100018678, symSize: 0x3C }
  - { offsetInCU: 0x6ADFC, offset: 0x6ADFC, size: 0x8, addend: 0x0, symName: __ZNSt3__117__compressed_pairIPN3glm3vecILi2EfLNS1_9qualifierE0EEENS_9allocatorIS4_EEEC2B8ue170006IDnNS_18__default_init_tagEEEOT_OT0_, symObjAddr: 0x13C08, symBinAddr: 0x1000186B4, symSize: 0x40 }
  - { offsetInCU: 0x6AE54, offset: 0x6AE54, size: 0x8, addend: 0x0, symName: __ZNSt3__122__compressed_pair_elemIPN3glm3vecILi2EfLNS1_9qualifierE0EEELi0ELb0EEC2B8ue170006IDnvEEOT_, symObjAddr: 0x13C48, symBinAddr: 0x1000186F4, symSize: 0x1C }
  - { offsetInCU: 0x6AE96, offset: 0x6AE96, size: 0x8, addend: 0x0, symName: __ZNSt3__122__compressed_pair_elemINS_9allocatorIN3glm3vecILi2EfLNS2_9qualifierE0EEEEELi1ELb1EEC2B8ue170006ENS_18__default_init_tagE, symObjAddr: 0x13C64, symBinAddr: 0x100018710, symSize: 0x2C }
  - { offsetInCU: 0x6AECB, offset: 0x6AECB, size: 0x8, addend: 0x0, symName: __ZNSt3__19allocatorIN3glm3vecILi2EfLNS1_9qualifierE0EEEEC2B8ue170006Ev, symObjAddr: 0x13C90, symBinAddr: 0x10001873C, symSize: 0x2C }
  - { offsetInCU: 0x6AEF5, offset: 0x6AEF5, size: 0x8, addend: 0x0, symName: __ZNSt3__116__non_trivial_ifILb1ENS_9allocatorIN3glm3vecILi2EfLNS2_9qualifierE0EEEEEEC2B8ue170006Ev, symObjAddr: 0x13CBC, symBinAddr: 0x100018768, symSize: 0x14 }
  - { offsetInCU: 0x6AF1F, offset: 0x6AF1F, size: 0x8, addend: 0x0, symName: __ZNSt3__16vectorIN3glm3vecILi2EfLNS1_9qualifierE0EEENS_9allocatorIS4_EEED2B8ue170006Ev, symObjAddr: 0x13CD0, symBinAddr: 0x10001877C, symSize: 0x44 }
  - { offsetInCU: 0x6AF49, offset: 0x6AF49, size: 0x8, addend: 0x0, symName: __ZNSt3__16vectorIN3glm3vecILi2EfLNS1_9qualifierE0EEENS_9allocatorIS4_EEE16__destroy_vectorC1B8ue170006ERS7_, symObjAddr: 0x13D14, symBinAddr: 0x1000187C0, symSize: 0x34 }
  - { offsetInCU: 0x6AF82, offset: 0x6AF82, size: 0x8, addend: 0x0, symName: __ZNSt3__16vectorIN3glm3vecILi2EfLNS1_9qualifierE0EEENS_9allocatorIS4_EEE16__destroy_vectorclB8ue170006Ev, symObjAddr: 0x13D48, symBinAddr: 0x1000187F4, symSize: 0x90 }
  - { offsetInCU: 0x6AFA8, offset: 0x6AFA8, size: 0x8, addend: 0x0, symName: __ZNSt3__16vectorIN3glm3vecILi2EfLNS1_9qualifierE0EEENS_9allocatorIS4_EEE16__destroy_vectorC2B8ue170006ERS7_, symObjAddr: 0x13DD8, symBinAddr: 0x100018884, symSize: 0x20 }
  - { offsetInCU: 0x6AFE1, offset: 0x6AFE1, size: 0x8, addend: 0x0, symName: __ZNSt3__16vectorIN3glm3vecILi2EfLNS1_9qualifierE0EEENS_9allocatorIS4_EEE7__clearB8ue170006Ev, symObjAddr: 0x13DF8, symBinAddr: 0x1000188A4, symSize: 0x28 }
  - { offsetInCU: 0x6B007, offset: 0x6B007, size: 0x8, addend: 0x0, symName: __ZNKSt3__16vectorIN3glm3vecILi2EfLNS1_9qualifierE0EEENS_9allocatorIS4_EEE17__annotate_deleteB8ue170006Ev, symObjAddr: 0x13E20, symBinAddr: 0x1000188CC, symSize: 0xB8 }
  - { offsetInCU: 0x6B02D, offset: 0x6B02D, size: 0x8, addend: 0x0, symName: __ZNSt3__116allocator_traitsINS_9allocatorIN3glm3vecILi2EfLNS2_9qualifierE0EEEEEE10deallocateB8ue170006ERS6_PS5_m, symObjAddr: 0x13ED8, symBinAddr: 0x100018984, symSize: 0x34 }
  - { offsetInCU: 0x6B06F, offset: 0x6B06F, size: 0x8, addend: 0x0, symName: __ZNSt3__16vectorIN3glm3vecILi2EfLNS1_9qualifierE0EEENS_9allocatorIS4_EEE7__allocB8ue170006Ev, symObjAddr: 0x13F0C, symBinAddr: 0x1000189B8, symSize: 0x28 }
  - { offsetInCU: 0x6B095, offset: 0x6B095, size: 0x8, addend: 0x0, symName: __ZNKSt3__16vectorIN3glm3vecILi2EfLNS1_9qualifierE0EEENS_9allocatorIS4_EEE8capacityB8ue170006Ev, symObjAddr: 0x13F34, symBinAddr: 0x1000189E0, symSize: 0x40 }
  - { offsetInCU: 0x6B0BB, offset: 0x6B0BB, size: 0x8, addend: 0x0, symName: __ZNSt3__16vectorIN3glm3vecILi2EfLNS1_9qualifierE0EEENS_9allocatorIS4_EEE22__base_destruct_at_endB8ue170006EPS4_, symObjAddr: 0x13F74, symBinAddr: 0x100018A20, symSize: 0x8C }
  - { offsetInCU: 0x6B0FF, offset: 0x6B0FF, size: 0x8, addend: 0x0, symName: __ZNSt3__116allocator_traitsINS_9allocatorIN3glm3vecILi2EfLNS2_9qualifierE0EEEEEE7destroyB8ue170006IS5_vEEvRS6_PT_, symObjAddr: 0x14000, symBinAddr: 0x100018AAC, symSize: 0x2C }
  - { offsetInCU: 0x6B13C, offset: 0x6B13C, size: 0x8, addend: 0x0, symName: __ZNSt3__19allocatorIN3glm3vecILi2EfLNS1_9qualifierE0EEEE7destroyB8ue170006EPS4_, symObjAddr: 0x14040, symBinAddr: 0x100018AEC, symSize: 0x14 }
  - { offsetInCU: 0x6B170, offset: 0x6B170, size: 0x8, addend: 0x0, symName: __ZNKSt3__16vectorIN3glm3vecILi2EfLNS1_9qualifierE0EEENS_9allocatorIS4_EEE31__annotate_contiguous_containerB8ue170006EPKvS9_S9_S9_, symObjAddr: 0x14054, symBinAddr: 0x100018B00, symSize: 0x20 }
  - { offsetInCU: 0x6B1C6, offset: 0x6B1C6, size: 0x8, addend: 0x0, symName: __ZNKSt3__16vectorIN3glm3vecILi2EfLNS1_9qualifierE0EEENS_9allocatorIS4_EEE4dataB8ue170006Ev, symObjAddr: 0x14074, symBinAddr: 0x100018B20, symSize: 0x28 }
  - { offsetInCU: 0x6B1EC, offset: 0x6B1EC, size: 0x8, addend: 0x0, symName: __ZNKSt3__16vectorIN3glm3vecILi2EfLNS1_9qualifierE0EEENS_9allocatorIS4_EEE4sizeB8ue170006Ev, symObjAddr: 0x1409C, symBinAddr: 0x100018B48, symSize: 0x28 }
  - { offsetInCU: 0x6B212, offset: 0x6B212, size: 0x8, addend: 0x0, symName: __ZNSt3__19allocatorIN3glm3vecILi2EfLNS1_9qualifierE0EEEE10deallocateB8ue170006EPS4_m, symObjAddr: 0x140C4, symBinAddr: 0x100018B70, symSize: 0x40 }
  - { offsetInCU: 0x6B254, offset: 0x6B254, size: 0x8, addend: 0x0, symName: __ZNSt3__117__compressed_pairIPN3glm3vecILi2EfLNS1_9qualifierE0EEENS_9allocatorIS4_EEE6secondB8ue170006Ev, symObjAddr: 0x1422C, symBinAddr: 0x100018CD8, symSize: 0x24 }
  - { offsetInCU: 0x6B27A, offset: 0x6B27A, size: 0x8, addend: 0x0, symName: __ZNSt3__122__compressed_pair_elemINS_9allocatorIN3glm3vecILi2EfLNS2_9qualifierE0EEEEELi1ELb1EE5__getB8ue170006Ev, symObjAddr: 0x14250, symBinAddr: 0x100018CFC, symSize: 0x14 }
  - { offsetInCU: 0x6B2A0, offset: 0x6B2A0, size: 0x8, addend: 0x0, symName: __ZNKSt3__16vectorIN3glm3vecILi2EfLNS1_9qualifierE0EEENS_9allocatorIS4_EEE9__end_capB8ue170006Ev, symObjAddr: 0x14264, symBinAddr: 0x100018D10, symSize: 0x28 }
  - { offsetInCU: 0x6B2C6, offset: 0x6B2C6, size: 0x8, addend: 0x0, symName: __ZNKSt3__117__compressed_pairIPN3glm3vecILi2EfLNS1_9qualifierE0EEENS_9allocatorIS4_EEE5firstB8ue170006Ev, symObjAddr: 0x1428C, symBinAddr: 0x100018D38, symSize: 0x24 }
  - { offsetInCU: 0x6B2EC, offset: 0x6B2EC, size: 0x8, addend: 0x0, symName: __ZNKSt3__122__compressed_pair_elemIPN3glm3vecILi2EfLNS1_9qualifierE0EEELi0ELb0EE5__getB8ue170006Ev, symObjAddr: 0x142B0, symBinAddr: 0x100018D5C, symSize: 0x14 }
  - { offsetInCU: 0x6B312, offset: 0x6B312, size: 0x8, addend: 0x0, symName: __ZNSt3__13mapI8Tex_TypeNS_10shared_ptrI3TexEENS_4lessIS1_EENS_9allocatorINS_4pairIKS1_S4_EEEEED2B8ue170006Ev, symObjAddr: 0x142C4, symBinAddr: 0x100018D70, symSize: 0x2C }
  - { offsetInCU: 0x6B33C, offset: 0x6B33C, size: 0x8, addend: 0x0, symName: __ZNSt3__16__treeINS_12__value_typeI8Tex_TypeNS_10shared_ptrI3TexEEEENS_19__map_value_compareIS2_S6_NS_4lessIS2_EELb1EEENS_9allocatorIS6_EEED1Ev, symObjAddr: 0x142F0, symBinAddr: 0x100018D9C, symSize: 0x2C }
  - { offsetInCU: 0x6B368, offset: 0x6B368, size: 0x8, addend: 0x0, symName: __ZNSt3__16__treeINS_12__value_typeI8Tex_TypeNS_10shared_ptrI3TexEEEENS_19__map_value_compareIS2_S6_NS_4lessIS2_EELb1EEENS_9allocatorIS6_EEED2Ev, symObjAddr: 0x1431C, symBinAddr: 0x100018DC8, symSize: 0x38 }
  - { offsetInCU: 0x6B394, offset: 0x6B394, size: 0x8, addend: 0x0, symName: __ZNSt3__16__treeINS_12__value_typeI8Tex_TypeNS_10shared_ptrI3TexEEEENS_19__map_value_compareIS2_S6_NS_4lessIS2_EELb1EEENS_9allocatorIS6_EEE7destroyEPNS_11__tree_nodeIS6_PvEE, symObjAddr: 0x14354, symBinAddr: 0x100018E00, symSize: 0xAC }
  - { offsetInCU: 0x6B3E0, offset: 0x6B3E0, size: 0x8, addend: 0x0, symName: __ZNKSt3__16__treeINS_12__value_typeI8Tex_TypeNS_10shared_ptrI3TexEEEENS_19__map_value_compareIS2_S6_NS_4lessIS2_EELb1EEENS_9allocatorIS6_EEE6__rootB8ue170006Ev, symObjAddr: 0x14400, symBinAddr: 0x100018EAC, symSize: 0x28 }
  - { offsetInCU: 0x6B406, offset: 0x6B406, size: 0x8, addend: 0x0, symName: __ZNSt3__16__treeINS_12__value_typeI8Tex_TypeNS_10shared_ptrI3TexEEEENS_19__map_value_compareIS2_S6_NS_4lessIS2_EELb1EEENS_9allocatorIS6_EEE12__node_allocB8ue170006Ev, symObjAddr: 0x14428, symBinAddr: 0x100018ED4, symSize: 0x28 }
  - { offsetInCU: 0x6B42C, offset: 0x6B42C, size: 0x8, addend: 0x0, symName: __ZNSt3__116allocator_traitsINS_9allocatorINS_11__tree_nodeINS_12__value_typeI8Tex_TypeNS_10shared_ptrI3TexEEEEPvEEEEE7destroyB8ue170006INS_4pairIKS4_S7_EEvvEEvRSB_PT_, symObjAddr: 0x14450, symBinAddr: 0x100018EFC, symSize: 0x28 }
  - { offsetInCU: 0x6B467, offset: 0x6B467, size: 0x8, addend: 0x0, symName: __ZNSt3__122__tree_key_value_typesINS_12__value_typeI8Tex_TypeNS_10shared_ptrI3TexEEEEE9__get_ptrB8ue170006ERS6_, symObjAddr: 0x14478, symBinAddr: 0x100018F24, symSize: 0x24 }
  - { offsetInCU: 0x6B48B, offset: 0x6B48B, size: 0x8, addend: 0x0, symName: __ZNSt3__116allocator_traitsINS_9allocatorINS_11__tree_nodeINS_12__value_typeI8Tex_TypeNS_10shared_ptrI3TexEEEEPvEEEEE10deallocateB8ue170006ERSB_PSA_m, symObjAddr: 0x1449C, symBinAddr: 0x100018F48, symSize: 0x34 }
  - { offsetInCU: 0x6B4CD, offset: 0x6B4CD, size: 0x8, addend: 0x0, symName: __ZNSt3__117__compressed_pairINS_15__tree_end_nodeIPNS_16__tree_node_baseIPvEEEENS_9allocatorINS_11__tree_nodeINS_12__value_typeI8Tex_TypeNS_10shared_ptrI3TexEEEES3_EEEEE6secondB8ue170006Ev, symObjAddr: 0x144D0, symBinAddr: 0x100018F7C, symSize: 0x24 }
  - { offsetInCU: 0x6B4F3, offset: 0x6B4F3, size: 0x8, addend: 0x0, symName: __ZNSt3__122__compressed_pair_elemINS_9allocatorINS_11__tree_nodeINS_12__value_typeI8Tex_TypeNS_10shared_ptrI3TexEEEEPvEEEELi1ELb1EE5__getB8ue170006Ev, symObjAddr: 0x144F4, symBinAddr: 0x100018FA0, symSize: 0x14 }
  - { offsetInCU: 0x6B519, offset: 0x6B519, size: 0x8, addend: 0x0, symName: __ZNSt3__14pairIK8Tex_TypeNS_10shared_ptrI3TexEEED1Ev, symObjAddr: 0x14508, symBinAddr: 0x100018FB4, symSize: 0x2C }
  - { offsetInCU: 0x6B545, offset: 0x6B545, size: 0x8, addend: 0x0, symName: __ZNSt3__14pairIK8Tex_TypeNS_10shared_ptrI3TexEEED2Ev, symObjAddr: 0x14534, symBinAddr: 0x100018FE0, symSize: 0x30 }
  - { offsetInCU: 0x6B571, offset: 0x6B571, size: 0x8, addend: 0x0, symName: __ZNSt3__112__value_typeI8Tex_TypeNS_10shared_ptrI3TexEEE11__get_valueB8ue170006Ev, symObjAddr: 0x14564, symBinAddr: 0x100019010, symSize: 0x24 }
  - { offsetInCU: 0x6B597, offset: 0x6B597, size: 0x8, addend: 0x0, symName: __ZNSt3__19allocatorINS_11__tree_nodeINS_12__value_typeI8Tex_TypeNS_10shared_ptrI3TexEEEEPvEEE10deallocateB8ue170006EPS9_m, symObjAddr: 0x145C0, symBinAddr: 0x10001906C, symSize: 0x44 }
  - { offsetInCU: 0x6B5D9, offset: 0x6B5D9, size: 0x8, addend: 0x0, symName: __ZNKSt3__16__treeINS_12__value_typeI8Tex_TypeNS_10shared_ptrI3TexEEEENS_19__map_value_compareIS2_S6_NS_4lessIS2_EELb1EEENS_9allocatorIS6_EEE10__end_nodeB8ue170006Ev, symObjAddr: 0x14604, symBinAddr: 0x1000190B0, symSize: 0x2C }
  - { offsetInCU: 0x6B5FF, offset: 0x6B5FF, size: 0x8, addend: 0x0, symName: __ZNKSt3__117__compressed_pairINS_15__tree_end_nodeIPNS_16__tree_node_baseIPvEEEENS_9allocatorINS_11__tree_nodeINS_12__value_typeI8Tex_TypeNS_10shared_ptrI3TexEEEES3_EEEEE5firstB8ue170006Ev, symObjAddr: 0x14630, symBinAddr: 0x1000190DC, symSize: 0x24 }
  - { offsetInCU: 0x6B625, offset: 0x6B625, size: 0x8, addend: 0x0, symName: __ZNKSt3__122__compressed_pair_elemINS_15__tree_end_nodeIPNS_16__tree_node_baseIPvEEEELi0ELb0EE5__getB8ue170006Ev, symObjAddr: 0x14654, symBinAddr: 0x100019100, symSize: 0x14 }
  - { offsetInCU: 0x6B64B, offset: 0x6B64B, size: 0x8, addend: 0x0, symName: __ZN5Shape11setUniformsER6ShaderN3glm3matILi4ELi4EfLNS2_9qualifierE0EEE, symObjAddr: 0x14668, symBinAddr: 0x100019114, symSize: 0x840 }
  - { offsetInCU: 0x6B6E8, offset: 0x6B6E8, size: 0x8, addend: 0x0, symName: __ZN5Shape13resetUniformsER6Shader, symObjAddr: 0x14ECC, symBinAddr: 0x100019978, symSize: 0x39C }
  - { offsetInCU: 0x6B75D, offset: 0x6B75D, size: 0x8, addend: 0x0, symName: __ZNSt3__13mapI8Tex_TypeNS_10shared_ptrI3TexEENS_4lessIS1_EENS_9allocatorINS_4pairIKS1_S4_EEEEE5beginB8ue170006Ev, symObjAddr: 0x1528C, symBinAddr: 0x100019D38, symSize: 0x38 }
  - { offsetInCU: 0x6B783, offset: 0x6B783, size: 0x8, addend: 0x0, symName: __ZNSt3__13mapI8Tex_TypeNS_10shared_ptrI3TexEENS_4lessIS1_EENS_9allocatorINS_4pairIKS1_S4_EEEEE3endB8ue170006Ev, symObjAddr: 0x152C4, symBinAddr: 0x100019D70, symSize: 0x38 }
  - { offsetInCU: 0x6B7A9, offset: 0x6B7A9, size: 0x8, addend: 0x0, symName: __ZNKSt3__114__map_iteratorINS_15__tree_iteratorINS_12__value_typeI8Tex_TypeNS_10shared_ptrI3TexEEEEPNS_11__tree_nodeIS7_PvEElEEEdeB8ue170006Ev, symObjAddr: 0x1532C, symBinAddr: 0x100019DD8, symSize: 0x28 }
  - { offsetInCU: 0x6B7CF, offset: 0x6B7CF, size: 0x8, addend: 0x0, symName: __ZNSt3__114__map_iteratorINS_15__tree_iteratorINS_12__value_typeI8Tex_TypeNS_10shared_ptrI3TexEEEEPNS_11__tree_nodeIS7_PvEElEEEppB8ue170006Ev, symObjAddr: 0x15354, symBinAddr: 0x100019E00, symSize: 0x2C }
  - { offsetInCU: 0x6B7F5, offset: 0x6B7F5, size: 0x8, addend: 0x0, symName: __ZNSt3__16__treeINS_12__value_typeI8Tex_TypeNS_10shared_ptrI3TexEEEENS_19__map_value_compareIS2_S6_NS_4lessIS2_EELb1EEENS_9allocatorIS6_EEE5beginB8ue170006Ev, symObjAddr: 0x15380, symBinAddr: 0x100019E2C, symSize: 0x34 }
  - { offsetInCU: 0x6B81B, offset: 0x6B81B, size: 0x8, addend: 0x0, symName: __ZNSt3__114__map_iteratorINS_15__tree_iteratorINS_12__value_typeI8Tex_TypeNS_10shared_ptrI3TexEEEEPNS_11__tree_nodeIS7_PvEElEEEC1B8ue170006ESC_, symObjAddr: 0x153B4, symBinAddr: 0x100019E60, symSize: 0x34 }
  - { offsetInCU: 0x6B854, offset: 0x6B854, size: 0x8, addend: 0x0, symName: __ZNSt3__115__tree_iteratorINS_12__value_typeI8Tex_TypeNS_10shared_ptrI3TexEEEEPNS_11__tree_nodeIS6_PvEElEC1B8ue170006EPNS_15__tree_end_nodeIPNS_16__tree_node_baseIS8_EEEE, symObjAddr: 0x153E8, symBinAddr: 0x100019E94, symSize: 0x34 }
  - { offsetInCU: 0x6B88D, offset: 0x6B88D, size: 0x8, addend: 0x0, symName: __ZNSt3__115__tree_iteratorINS_12__value_typeI8Tex_TypeNS_10shared_ptrI3TexEEEEPNS_11__tree_nodeIS6_PvEElEC2B8ue170006EPNS_15__tree_end_nodeIPNS_16__tree_node_baseIS8_EEEE, symObjAddr: 0x1541C, symBinAddr: 0x100019EC8, symSize: 0x20 }
  - { offsetInCU: 0x6B8C6, offset: 0x6B8C6, size: 0x8, addend: 0x0, symName: __ZNSt3__114__map_iteratorINS_15__tree_iteratorINS_12__value_typeI8Tex_TypeNS_10shared_ptrI3TexEEEEPNS_11__tree_nodeIS7_PvEElEEEC2B8ue170006ESC_, symObjAddr: 0x1543C, symBinAddr: 0x100019EE8, symSize: 0x20 }
  - { offsetInCU: 0x6B8FF, offset: 0x6B8FF, size: 0x8, addend: 0x0, symName: __ZNSt3__16__treeINS_12__value_typeI8Tex_TypeNS_10shared_ptrI3TexEEEENS_19__map_value_compareIS2_S6_NS_4lessIS2_EELb1EEENS_9allocatorIS6_EEE3endB8ue170006Ev, symObjAddr: 0x1545C, symBinAddr: 0x100019F08, symSize: 0x34 }
  - { offsetInCU: 0x6B925, offset: 0x6B925, size: 0x8, addend: 0x0, symName: __ZNKSt3__115__tree_iteratorINS_12__value_typeI8Tex_TypeNS_10shared_ptrI3TexEEEEPNS_11__tree_nodeIS6_PvEElEptB8ue170006Ev, symObjAddr: 0x154F4, symBinAddr: 0x100019FA0, symSize: 0x2C }
  - { offsetInCU: 0x6B94B, offset: 0x6B94B, size: 0x8, addend: 0x0, symName: __ZNSt3__114pointer_traitsIPNS_12__value_typeI8Tex_TypeNS_10shared_ptrI3TexEEEEE10pointer_toB8ue170006ERS6_, symObjAddr: 0x15520, symBinAddr: 0x100019FCC, symSize: 0x14 }
  - { offsetInCU: 0x6B96E, offset: 0x6B96E, size: 0x8, addend: 0x0, symName: __ZNKSt3__115__tree_iteratorINS_12__value_typeI8Tex_TypeNS_10shared_ptrI3TexEEEEPNS_11__tree_nodeIS6_PvEElE8__get_npB8ue170006Ev, symObjAddr: 0x15534, symBinAddr: 0x100019FE0, symSize: 0x18 }
  - { offsetInCU: 0x6B994, offset: 0x6B994, size: 0x8, addend: 0x0, symName: __ZNSt3__115__tree_iteratorINS_12__value_typeI8Tex_TypeNS_10shared_ptrI3TexEEEEPNS_11__tree_nodeIS6_PvEElEppB8ue170006Ev, symObjAddr: 0x1554C, symBinAddr: 0x100019FF8, symSize: 0x38 }
  - { offsetInCU: 0x6B9BA, offset: 0x6B9BA, size: 0x8, addend: 0x0, symName: __ZNKSt3__116__tree_node_baseIPvE15__parent_unsafeB8ue170006Ev, symObjAddr: 0x15680, symBinAddr: 0x10001A12C, symSize: 0x18 }
  - { offsetInCU: 0x6B9E0, offset: 0x6B9E0, size: 0x8, addend: 0x0, symName: __ZN3glm6detail12init_gentypeINS_3matILi4ELi4EfLNS_9qualifierE0EEELNS0_11genTypeEnumE1EE8identityEv, symObjAddr: 0x15698, symBinAddr: 0x10001A144, symSize: 0x2C }
  - { offsetInCU: 0x6B9F4, offset: 0x6B9F4, size: 0x8, addend: 0x0, symName: __ZN3glm3matILi4ELi4EfLNS_9qualifierE0EEC1ERKf, symObjAddr: 0x156C4, symBinAddr: 0x10001A170, symSize: 0x34 }
  - { offsetInCU: 0x6BA2D, offset: 0x6BA2D, size: 0x8, addend: 0x0, symName: __ZN3glm3matILi4ELi4EfLNS_9qualifierE0EEC2ERKf, symObjAddr: 0x156F8, symBinAddr: 0x10001A1A4, symSize: 0xA8 }
  - { offsetInCU: 0x6BA66, offset: 0x6BA66, size: 0x8, addend: 0x0, symName: __ZN3glm3vecILi4EfLNS_9qualifierE0EEC1IfiiiEET_T0_T1_T2_, symObjAddr: 0x157A0, symBinAddr: 0x10001A24C, symSize: 0x4C }
  - { offsetInCU: 0x6BAEE, offset: 0x6BAEE, size: 0x8, addend: 0x0, symName: __ZN3glm3vecILi4EfLNS_9qualifierE0EEC1IifiiEET_T0_T1_T2_, symObjAddr: 0x157EC, symBinAddr: 0x10001A298, symSize: 0x4C }
  - { offsetInCU: 0x6BB76, offset: 0x6BB76, size: 0x8, addend: 0x0, symName: __ZN3glm3vecILi4EfLNS_9qualifierE0EEC1IiifiEET_T0_T1_T2_, symObjAddr: 0x15838, symBinAddr: 0x10001A2E4, symSize: 0x4C }
  - { offsetInCU: 0x6BBFE, offset: 0x6BBFE, size: 0x8, addend: 0x0, symName: __ZN3glm3vecILi4EfLNS_9qualifierE0EEC1IiiifEET_T0_T1_T2_, symObjAddr: 0x15884, symBinAddr: 0x10001A330, symSize: 0x4C }
  - { offsetInCU: 0x6BC86, offset: 0x6BC86, size: 0x8, addend: 0x0, symName: __ZN3glm3vecILi4EfLNS_9qualifierE0EEC2IfiiiEET_T0_T1_T2_, symObjAddr: 0x158D0, symBinAddr: 0x10001A37C, symSize: 0x50 }
  - { offsetInCU: 0x6BD0E, offset: 0x6BD0E, size: 0x8, addend: 0x0, symName: __ZN3glm3vecILi4EfLNS_9qualifierE0EEC2IifiiEET_T0_T1_T2_, symObjAddr: 0x15920, symBinAddr: 0x10001A3CC, symSize: 0x50 }
  - { offsetInCU: 0x6BD96, offset: 0x6BD96, size: 0x8, addend: 0x0, symName: __ZN3glm3vecILi4EfLNS_9qualifierE0EEC2IiifiEET_T0_T1_T2_, symObjAddr: 0x15970, symBinAddr: 0x10001A41C, symSize: 0x50 }
  - { offsetInCU: 0x6BE1E, offset: 0x6BE1E, size: 0x8, addend: 0x0, symName: __ZN3glm3vecILi4EfLNS_9qualifierE0EEC2IiiifEET_T0_T1_T2_, symObjAddr: 0x159C0, symBinAddr: 0x10001A46C, symSize: 0x50 }
  - { offsetInCU: 0x6BEA6, offset: 0x6BEA6, size: 0x8, addend: 0x0, symName: __ZN4CubeD2Ev, symObjAddr: 0x15A10, symBinAddr: 0x10001A4BC, symSize: 0x2C }
  - { offsetInCU: 0x6BED2, offset: 0x6BED2, size: 0x8, addend: 0x0, symName: __ZN3glm3vecILi3EfLNS_9qualifierE0EEC2IddfEET_T0_T1_, symObjAddr: 0x15A3C, symBinAddr: 0x10001A4E8, symSize: 0x40 }
  - { offsetInCU: 0x6BF43, offset: 0x6BF43, size: 0x8, addend: 0x0, symName: __ZN3glm3vecILi3EfLNS_9qualifierE0EEC2IdddEET_T0_T1_, symObjAddr: 0x15A7C, symBinAddr: 0x10001A528, symSize: 0x44 }
  - { offsetInCU: 0x6BFB4, offset: 0x6BFB4, size: 0x8, addend: 0x0, symName: __ZN3TexC2ENSt3__112basic_stringIcNS0_11char_traitsIcEENS0_9allocatorIcEEEES6_jii8Tex_Typeb, symObjAddr: 0x15AC0, symBinAddr: 0x10001A56C, symSize: 0x344 }
  - { offsetInCU: 0x6C049, offset: 0x6C049, size: 0x8, addend: 0x0, symName: __ZNSt3__16vectorINS_12basic_stringIcNS_11char_traitsIcEENS_9allocatorIcEEEENS4_IS6_EEEC1B8ue170006ESt16initializer_listIS6_E, symObjAddr: 0x15E04, symBinAddr: 0x10001A8B0, symSize: 0x3C }
  - { offsetInCU: 0x6C084, offset: 0x6C084, size: 0x8, addend: 0x0, symName: __ZN3Tex4initEv, symObjAddr: 0x15E8C, symBinAddr: 0x10001A938, symSize: 0x1DC }
  - { offsetInCU: 0x6C0AA, offset: 0x6C0AA, size: 0x8, addend: 0x0, symName: __ZN3Tex4loadENSt3__112basic_stringIcNS0_11char_traitsIcEENS0_9allocatorIcEEEEjb, symObjAddr: 0x16068, symBinAddr: 0x10001AB14, symSize: 0x344 }
  - { offsetInCU: 0x6C16B, offset: 0x6C16B, size: 0x8, addend: 0x0, symName: __ZNSt3__16vectorINS_12basic_stringIcNS_11char_traitsIcEENS_9allocatorIcEEEENS4_IS6_EEED1B8ue170006Ev, symObjAddr: 0x163BC, symBinAddr: 0x10001AE68, symSize: 0x2C }
  - { offsetInCU: 0x6C195, offset: 0x6C195, size: 0x8, addend: 0x0, symName: __ZNSt3__16vectorINS_12basic_stringIcNS_11char_traitsIcEENS_9allocatorIcEEEENS4_IS6_EEEC2B8ue170006ESt16initializer_listIS6_E, symObjAddr: 0x163E8, symBinAddr: 0x10001AE94, symSize: 0x120 }
  - { offsetInCU: 0x6C1E5, offset: 0x6C1E5, size: 0x8, addend: 0x0, symName: __ZNSt3__117__compressed_pairIPNS_12basic_stringIcNS_11char_traitsIcEENS_9allocatorIcEEEENS4_IS6_EEEC1B8ue170006IDnNS_18__default_init_tagEEEOT_OT0_, symObjAddr: 0x16508, symBinAddr: 0x10001AFB4, symSize: 0x3C }
  - { offsetInCU: 0x6C23D, offset: 0x6C23D, size: 0x8, addend: 0x0, symName: __ZNSt3__16vectorINS_12basic_stringIcNS_11char_traitsIcEENS_9allocatorIcEEEENS4_IS6_EEE16__destroy_vectorC1B8ue170006ERS8_, symObjAddr: 0x16584, symBinAddr: 0x10001B030, symSize: 0x34 }
  - { offsetInCU: 0x6C276, offset: 0x6C276, size: 0x8, addend: 0x0, symName: __ZNKSt16initializer_listINSt3__112basic_stringIcNS0_11char_traitsIcEENS0_9allocatorIcEEEEE4sizeB8ue170006Ev, symObjAddr: 0x165B8, symBinAddr: 0x10001B064, symSize: 0x18 }
  - { offsetInCU: 0x6C29C, offset: 0x6C29C, size: 0x8, addend: 0x0, symName: __ZNSt3__16vectorINS_12basic_stringIcNS_11char_traitsIcEENS_9allocatorIcEEEENS4_IS6_EEE11__vallocateB8ue170006Em, symObjAddr: 0x165D0, symBinAddr: 0x10001B07C, symSize: 0xB4 }
  - { offsetInCU: 0x6C2E0, offset: 0x6C2E0, size: 0x8, addend: 0x0, symName: __ZNSt3__16vectorINS_12basic_stringIcNS_11char_traitsIcEENS_9allocatorIcEEEENS4_IS6_EEE18__construct_at_endIPKS6_SB_EEvT_T0_m, symObjAddr: 0x16684, symBinAddr: 0x10001B130, symSize: 0x8C }
  - { offsetInCU: 0x6C356, offset: 0x6C356, size: 0x8, addend: 0x0, symName: __ZNKSt16initializer_listINSt3__112basic_stringIcNS0_11char_traitsIcEENS0_9allocatorIcEEEEE5beginB8ue170006Ev, symObjAddr: 0x16710, symBinAddr: 0x10001B1BC, symSize: 0x18 }
  - { offsetInCU: 0x6C37C, offset: 0x6C37C, size: 0x8, addend: 0x0, symName: __ZNKSt16initializer_listINSt3__112basic_stringIcNS0_11char_traitsIcEENS0_9allocatorIcEEEEE3endB8ue170006Ev, symObjAddr: 0x16728, symBinAddr: 0x10001B1D4, symSize: 0x28 }
  - { offsetInCU: 0x6C3A2, offset: 0x6C3A2, size: 0x8, addend: 0x0, symName: __ZNSt3__128__exception_guard_exceptionsINS_6vectorINS_12basic_stringIcNS_11char_traitsIcEENS_9allocatorIcEEEENS5_IS7_EEE16__destroy_vectorEE10__completeB8ue170006Ev, symObjAddr: 0x16750, symBinAddr: 0x10001B1FC, symSize: 0x1C }
  - { offsetInCU: 0x6C3C8, offset: 0x6C3C8, size: 0x8, addend: 0x0, symName: __ZNSt3__128__exception_guard_exceptionsINS_6vectorINS_12basic_stringIcNS_11char_traitsIcEENS_9allocatorIcEEEENS5_IS7_EEE16__destroy_vectorEED1B8ue170006Ev, symObjAddr: 0x1676C, symBinAddr: 0x10001B218, symSize: 0x2C }
  - { offsetInCU: 0x6C3F2, offset: 0x6C3F2, size: 0x8, addend: 0x0, symName: __ZNSt3__117__compressed_pairIPNS_12basic_stringIcNS_11char_traitsIcEENS_9allocatorIcEEEENS4_IS6_EEEC2B8ue170006IDnNS_18__default_init_tagEEEOT_OT0_, symObjAddr: 0x16798, symBinAddr: 0x10001B244, symSize: 0x40 }
  - { offsetInCU: 0x6C44A, offset: 0x6C44A, size: 0x8, addend: 0x0, symName: __ZNSt3__122__compressed_pair_elemIPNS_12basic_stringIcNS_11char_traitsIcEENS_9allocatorIcEEEELi0ELb0EEC2B8ue170006IDnvEEOT_, symObjAddr: 0x167D8, symBinAddr: 0x10001B284, symSize: 0x1C }
  - { offsetInCU: 0x6C48C, offset: 0x6C48C, size: 0x8, addend: 0x0, symName: __ZNSt3__122__compressed_pair_elemINS_9allocatorINS_12basic_stringIcNS_11char_traitsIcEENS1_IcEEEEEELi1ELb1EEC2B8ue170006ENS_18__default_init_tagE, symObjAddr: 0x167F4, symBinAddr: 0x10001B2A0, symSize: 0x2C }
  - { offsetInCU: 0x6C4C1, offset: 0x6C4C1, size: 0x8, addend: 0x0, symName: __ZNSt3__19allocatorINS_12basic_stringIcNS_11char_traitsIcEENS0_IcEEEEEC2B8ue170006Ev, symObjAddr: 0x16820, symBinAddr: 0x10001B2CC, symSize: 0x2C }
  - { offsetInCU: 0x6C4EB, offset: 0x6C4EB, size: 0x8, addend: 0x0, symName: __ZNSt3__116__non_trivial_ifILb1ENS_9allocatorINS_12basic_stringIcNS_11char_traitsIcEENS1_IcEEEEEEEC2B8ue170006Ev, symObjAddr: 0x1684C, symBinAddr: 0x10001B2F8, symSize: 0x14 }
  - { offsetInCU: 0x6C515, offset: 0x6C515, size: 0x8, addend: 0x0, symName: __ZNSt3__128__exception_guard_exceptionsINS_6vectorINS_12basic_stringIcNS_11char_traitsIcEENS_9allocatorIcEEEENS5_IS7_EEE16__destroy_vectorEEC1B8ue170006ESA_, symObjAddr: 0x16860, symBinAddr: 0x10001B30C, symSize: 0x34 }
  - { offsetInCU: 0x6C54D, offset: 0x6C54D, size: 0x8, addend: 0x0, symName: __ZNSt3__128__exception_guard_exceptionsINS_6vectorINS_12basic_stringIcNS_11char_traitsIcEENS_9allocatorIcEEEENS5_IS7_EEE16__destroy_vectorEEC2B8ue170006ESA_, symObjAddr: 0x16894, symBinAddr: 0x10001B340, symSize: 0x24 }
  - { offsetInCU: 0x6C585, offset: 0x6C585, size: 0x8, addend: 0x0, symName: __ZNSt3__16vectorINS_12basic_stringIcNS_11char_traitsIcEENS_9allocatorIcEEEENS4_IS6_EEE16__destroy_vectorC2B8ue170006ERS8_, symObjAddr: 0x168B8, symBinAddr: 0x10001B364, symSize: 0x20 }
  - { offsetInCU: 0x6C5BE, offset: 0x6C5BE, size: 0x8, addend: 0x0, symName: __ZNKSt3__16vectorINS_12basic_stringIcNS_11char_traitsIcEENS_9allocatorIcEEEENS4_IS6_EEE8max_sizeEv, symObjAddr: 0x168D8, symBinAddr: 0x10001B384, symSize: 0x60 }
  - { offsetInCU: 0x6C5E6, offset: 0x6C5E6, size: 0x8, addend: 0x0, symName: __ZNKSt3__16vectorINS_12basic_stringIcNS_11char_traitsIcEENS_9allocatorIcEEEENS4_IS6_EEE20__throw_length_errorB8ue170006Ev, symObjAddr: 0x16938, symBinAddr: 0x10001B3E4, symSize: 0x1C }
  - { offsetInCU: 0x6C60C, offset: 0x6C60C, size: 0x8, addend: 0x0, symName: __ZNSt3__16vectorINS_12basic_stringIcNS_11char_traitsIcEENS_9allocatorIcEEEENS4_IS6_EEE7__allocB8ue170006Ev, symObjAddr: 0x16994, symBinAddr: 0x10001B440, symSize: 0x28 }
  - { offsetInCU: 0x6C632, offset: 0x6C632, size: 0x8, addend: 0x0, symName: __ZNSt3__16vectorINS_12basic_stringIcNS_11char_traitsIcEENS_9allocatorIcEEEENS4_IS6_EEE9__end_capB8ue170006Ev, symObjAddr: 0x169BC, symBinAddr: 0x10001B468, symSize: 0x28 }
  - { offsetInCU: 0x6C658, offset: 0x6C658, size: 0x8, addend: 0x0, symName: __ZNKSt3__16vectorINS_12basic_stringIcNS_11char_traitsIcEENS_9allocatorIcEEEENS4_IS6_EEE14__annotate_newB8ue170006Em, symObjAddr: 0x169E4, symBinAddr: 0x10001B490, symSize: 0xC8 }
  - { offsetInCU: 0x6C697, offset: 0x6C697, size: 0x8, addend: 0x0, symName: __ZNSt3__116allocator_traitsINS_9allocatorINS_12basic_stringIcNS_11char_traitsIcEENS1_IcEEEEEEE8max_sizeB8ue170006IS7_vEEmRKS7_, symObjAddr: 0x16AD8, symBinAddr: 0x10001B584, symSize: 0x24 }
  - { offsetInCU: 0x6C6C5, offset: 0x6C6C5, size: 0x8, addend: 0x0, symName: __ZNKSt3__16vectorINS_12basic_stringIcNS_11char_traitsIcEENS_9allocatorIcEEEENS4_IS6_EEE7__allocB8ue170006Ev, symObjAddr: 0x16AFC, symBinAddr: 0x10001B5A8, symSize: 0x28 }
  - { offsetInCU: 0x6C6EB, offset: 0x6C6EB, size: 0x8, addend: 0x0, symName: __ZNSt3__114numeric_limitsIlE3maxB8ue170006Ev, symObjAddr: 0x16B24, symBinAddr: 0x10001B5D0, symSize: 0x14 }
  - { offsetInCU: 0x6C709, offset: 0x6C709, size: 0x8, addend: 0x0, symName: __ZNKSt3__16__lessIvvEclB8ue170006ImmEEbRKT_RKT0_, symObjAddr: 0x16B8C, symBinAddr: 0x10001B638, symSize: 0x34 }
  - { offsetInCU: 0x6C75D, offset: 0x6C75D, size: 0x8, addend: 0x0, symName: __ZNKSt3__19allocatorINS_12basic_stringIcNS_11char_traitsIcEENS0_IcEEEEE8max_sizeB8ue170006Ev, symObjAddr: 0x16BC0, symBinAddr: 0x10001B66C, symSize: 0x18 }
  - { offsetInCU: 0x6C783, offset: 0x6C783, size: 0x8, addend: 0x0, symName: __ZNKSt3__117__compressed_pairIPNS_12basic_stringIcNS_11char_traitsIcEENS_9allocatorIcEEEENS4_IS6_EEE6secondB8ue170006Ev, symObjAddr: 0x16BD8, symBinAddr: 0x10001B684, symSize: 0x24 }
  - { offsetInCU: 0x6C7A9, offset: 0x6C7A9, size: 0x8, addend: 0x0, symName: __ZNKSt3__122__compressed_pair_elemINS_9allocatorINS_12basic_stringIcNS_11char_traitsIcEENS1_IcEEEEEELi1ELb1EE5__getB8ue170006Ev, symObjAddr: 0x16BFC, symBinAddr: 0x10001B6A8, symSize: 0x14 }
  - { offsetInCU: 0x6C7CF, offset: 0x6C7CF, size: 0x8, addend: 0x0, symName: __ZNSt3__123__libcpp_numeric_limitsIlLb1EE3maxB8ue170006Ev, symObjAddr: 0x16C10, symBinAddr: 0x10001B6BC, symSize: 0x8 }
  - { offsetInCU: 0x6C7E3, offset: 0x6C7E3, size: 0x8, addend: 0x0, symName: __ZNSt12length_errorC1B8ue170006EPKc, symObjAddr: 0x16C7C, symBinAddr: 0x10001B728, symSize: 0x34 }
  - { offsetInCU: 0x6C81B, offset: 0x6C81B, size: 0x8, addend: 0x0, symName: __ZNSt12length_errorC2B8ue170006EPKc, symObjAddr: 0x16CB0, symBinAddr: 0x10001B75C, symSize: 0x4C }
  - { offsetInCU: 0x6C853, offset: 0x6C853, size: 0x8, addend: 0x0, symName: __ZNSt3__19allocatorINS_12basic_stringIcNS_11char_traitsIcEENS0_IcEEEEE8allocateB8ue170006Em, symObjAddr: 0x16CFC, symBinAddr: 0x10001B7A8, symSize: 0x5C }
  - { offsetInCU: 0x6C887, offset: 0x6C887, size: 0x8, addend: 0x0, symName: __ZNSt3__117__compressed_pairIPNS_12basic_stringIcNS_11char_traitsIcEENS_9allocatorIcEEEENS4_IS6_EEE6secondB8ue170006Ev, symObjAddr: 0x16E3C, symBinAddr: 0x10001B8E8, symSize: 0x24 }
  - { offsetInCU: 0x6C8AD, offset: 0x6C8AD, size: 0x8, addend: 0x0, symName: __ZNSt3__122__compressed_pair_elemINS_9allocatorINS_12basic_stringIcNS_11char_traitsIcEENS1_IcEEEEEELi1ELb1EE5__getB8ue170006Ev, symObjAddr: 0x16E60, symBinAddr: 0x10001B90C, symSize: 0x14 }
  - { offsetInCU: 0x6C8D3, offset: 0x6C8D3, size: 0x8, addend: 0x0, symName: __ZNSt3__117__compressed_pairIPNS_12basic_stringIcNS_11char_traitsIcEENS_9allocatorIcEEEENS4_IS6_EEE5firstB8ue170006Ev, symObjAddr: 0x16E74, symBinAddr: 0x10001B920, symSize: 0x24 }
  - { offsetInCU: 0x6C8F9, offset: 0x6C8F9, size: 0x8, addend: 0x0, symName: __ZNSt3__122__compressed_pair_elemIPNS_12basic_stringIcNS_11char_traitsIcEENS_9allocatorIcEEEELi0ELb0EE5__getB8ue170006Ev, symObjAddr: 0x16E98, symBinAddr: 0x10001B944, symSize: 0x14 }
  - { offsetInCU: 0x6C91F, offset: 0x6C91F, size: 0x8, addend: 0x0, symName: __ZNKSt3__16vectorINS_12basic_stringIcNS_11char_traitsIcEENS_9allocatorIcEEEENS4_IS6_EEE31__annotate_contiguous_containerB8ue170006EPKvSA_SA_SA_, symObjAddr: 0x16EAC, symBinAddr: 0x10001B958, symSize: 0x20 }
  - { offsetInCU: 0x6C975, offset: 0x6C975, size: 0x8, addend: 0x0, symName: __ZNKSt3__16vectorINS_12basic_stringIcNS_11char_traitsIcEENS_9allocatorIcEEEENS4_IS6_EEE4dataB8ue170006Ev, symObjAddr: 0x16ECC, symBinAddr: 0x10001B978, symSize: 0x28 }
  - { offsetInCU: 0x6C99B, offset: 0x6C99B, size: 0x8, addend: 0x0, symName: __ZNKSt3__16vectorINS_12basic_stringIcNS_11char_traitsIcEENS_9allocatorIcEEEENS4_IS6_EEE8capacityB8ue170006Ev, symObjAddr: 0x16EF4, symBinAddr: 0x10001B9A0, symSize: 0x40 }
  - { offsetInCU: 0x6C9C1, offset: 0x6C9C1, size: 0x8, addend: 0x0, symName: __ZNKSt3__16vectorINS_12basic_stringIcNS_11char_traitsIcEENS_9allocatorIcEEEENS4_IS6_EEE9__end_capB8ue170006Ev, symObjAddr: 0x16F48, symBinAddr: 0x10001B9F4, symSize: 0x28 }
  - { offsetInCU: 0x6C9E7, offset: 0x6C9E7, size: 0x8, addend: 0x0, symName: __ZNKSt3__117__compressed_pairIPNS_12basic_stringIcNS_11char_traitsIcEENS_9allocatorIcEEEENS4_IS6_EEE5firstB8ue170006Ev, symObjAddr: 0x16F70, symBinAddr: 0x10001BA1C, symSize: 0x24 }
  - { offsetInCU: 0x6CA0D, offset: 0x6CA0D, size: 0x8, addend: 0x0, symName: __ZNKSt3__122__compressed_pair_elemIPNS_12basic_stringIcNS_11char_traitsIcEENS_9allocatorIcEEEELi0ELb0EE5__getB8ue170006Ev, symObjAddr: 0x16F94, symBinAddr: 0x10001BA40, symSize: 0x14 }
  - { offsetInCU: 0x6CA4C, offset: 0x6CA4C, size: 0x8, addend: 0x0, symName: __ZNSt3__16vectorINS_12basic_stringIcNS_11char_traitsIcEENS_9allocatorIcEEEENS4_IS6_EEE21_ConstructTransactionC1B8ue170006ERS8_m, symObjAddr: 0x16FA8, symBinAddr: 0x10001BA54, symSize: 0x3C }
  - { offsetInCU: 0x6CA94, offset: 0x6CA94, size: 0x8, addend: 0x0, symName: __ZNSt3__16vectorINS_12basic_stringIcNS_11char_traitsIcEENS_9allocatorIcEEEENS4_IS6_EEE21_ConstructTransactionD1B8ue170006Ev, symObjAddr: 0x17064, symBinAddr: 0x10001BB10, symSize: 0x2C }
  - { offsetInCU: 0x6CABE, offset: 0x6CABE, size: 0x8, addend: 0x0, symName: __ZNSt3__16vectorINS_12basic_stringIcNS_11char_traitsIcEENS_9allocatorIcEEEENS4_IS6_EEE21_ConstructTransactionC2B8ue170006ERS8_m, symObjAddr: 0x17090, symBinAddr: 0x10001BB3C, symSize: 0x4C }
  - { offsetInCU: 0x6CB26, offset: 0x6CB26, size: 0x8, addend: 0x0, symName: __ZNSt3__14pairIPKNS_12basic_stringIcNS_11char_traitsIcEENS_9allocatorIcEEEES8_EC1B8ue170006IS8_S8_LPv0EEEOT_OT0_, symObjAddr: 0x172EC, symBinAddr: 0x10001BD98, symSize: 0x3C }
  - { offsetInCU: 0x6CB84, offset: 0x6CB84, size: 0x8, addend: 0x0, symName: __ZNSt3__14pairIPKNS_12basic_stringIcNS_11char_traitsIcEENS_9allocatorIcEEEES8_EC2B8ue170006IS8_S8_LPv0EEEOT_OT0_, symObjAddr: 0x17328, symBinAddr: 0x10001BDD4, symSize: 0x34 }
  - { offsetInCU: 0x6CBE2, offset: 0x6CBE2, size: 0x8, addend: 0x0, symName: __ZNSt3__118__unwrap_iter_implIPKNS_12basic_stringIcNS_11char_traitsIcEENS_9allocatorIcEEEELb1EE8__unwrapB8ue170006ES8_, symObjAddr: 0x1735C, symBinAddr: 0x10001BE08, symSize: 0x24 }
  - { offsetInCU: 0x6CC05, offset: 0x6CC05, size: 0x8, addend: 0x0, symName: __ZNSt3__129_AllocatorDestroyRangeReverseINS_9allocatorINS_12basic_stringIcNS_11char_traitsIcEENS1_IcEEEEEEPS6_EC1B8ue170006ERS7_RS8_SB_, symObjAddr: 0x173E0, symBinAddr: 0x10001BE8C, symSize: 0x44 }
  - { offsetInCU: 0x6CC5C, offset: 0x6CC5C, size: 0x8, addend: 0x0, symName: __ZNSt3__116allocator_traitsINS_9allocatorINS_12basic_stringIcNS_11char_traitsIcEENS1_IcEEEEEEE9constructB8ue170006IS6_JRKS6_EvEEvRS7_PT_DpOT0_, symObjAddr: 0x17424, symBinAddr: 0x10001BED0, symSize: 0x34 }
  - { offsetInCU: 0x6CCB3, offset: 0x6CCB3, size: 0x8, addend: 0x0, symName: __ZNSt3__128__exception_guard_exceptionsINS_29_AllocatorDestroyRangeReverseINS_9allocatorINS_12basic_stringIcNS_11char_traitsIcEENS2_IcEEEEEEPS7_EEE10__completeB8ue170006Ev, symObjAddr: 0x17458, symBinAddr: 0x10001BF04, symSize: 0x1C }
  - { offsetInCU: 0x6CCD9, offset: 0x6CCD9, size: 0x8, addend: 0x0, symName: __ZNSt3__128__exception_guard_exceptionsINS_29_AllocatorDestroyRangeReverseINS_9allocatorINS_12basic_stringIcNS_11char_traitsIcEENS2_IcEEEEEEPS7_EEED1B8ue170006Ev, symObjAddr: 0x17474, symBinAddr: 0x10001BF20, symSize: 0x2C }
  - { offsetInCU: 0x6CD03, offset: 0x6CD03, size: 0x8, addend: 0x0, symName: __ZNSt3__128__exception_guard_exceptionsINS_29_AllocatorDestroyRangeReverseINS_9allocatorINS_12basic_stringIcNS_11char_traitsIcEENS2_IcEEEEEEPS7_EEEC1B8ue170006ESA_, symObjAddr: 0x174A0, symBinAddr: 0x10001BF4C, symSize: 0x34 }
  - { offsetInCU: 0x6CD3C, offset: 0x6CD3C, size: 0x8, addend: 0x0, symName: __ZNSt3__128__exception_guard_exceptionsINS_29_AllocatorDestroyRangeReverseINS_9allocatorINS_12basic_stringIcNS_11char_traitsIcEENS2_IcEEEEEEPS7_EEEC2B8ue170006ESA_, symObjAddr: 0x174D4, symBinAddr: 0x10001BF80, symSize: 0x30 }
  - { offsetInCU: 0x6CD75, offset: 0x6CD75, size: 0x8, addend: 0x0, symName: __ZNSt3__129_AllocatorDestroyRangeReverseINS_9allocatorINS_12basic_stringIcNS_11char_traitsIcEENS1_IcEEEEEEPS6_EC2B8ue170006ERS7_RS8_SB_, symObjAddr: 0x17504, symBinAddr: 0x10001BFB0, symSize: 0x38 }
  - { offsetInCU: 0x6CDCC, offset: 0x6CDCC, size: 0x8, addend: 0x0, symName: __ZNSt3__19allocatorINS_12basic_stringIcNS_11char_traitsIcEENS0_IcEEEEE9constructB8ue170006IS5_JRKS5_EEEvPT_DpOT0_, symObjAddr: 0x1753C, symBinAddr: 0x10001BFE8, symSize: 0x30 }
  - { offsetInCU: 0x6CE22, offset: 0x6CE22, size: 0x8, addend: 0x0, symName: __ZNSt3__128__exception_guard_exceptionsINS_29_AllocatorDestroyRangeReverseINS_9allocatorINS_12basic_stringIcNS_11char_traitsIcEENS2_IcEEEEEEPS7_EEED2B8ue170006Ev, symObjAddr: 0x1756C, symBinAddr: 0x10001C018, symSize: 0x50 }
  - { offsetInCU: 0x6CE4C, offset: 0x6CE4C, size: 0x8, addend: 0x0, symName: __ZNKSt3__129_AllocatorDestroyRangeReverseINS_9allocatorINS_12basic_stringIcNS_11char_traitsIcEENS1_IcEEEEEEPS6_EclB8ue170006Ev, symObjAddr: 0x175BC, symBinAddr: 0x10001C068, symSize: 0x68 }
  - { offsetInCU: 0x6CE72, offset: 0x6CE72, size: 0x8, addend: 0x0, symName: __ZNSt3__116reverse_iteratorIPNS_12basic_stringIcNS_11char_traitsIcEENS_9allocatorIcEEEEEC1B8ue170006ES7_, symObjAddr: 0x17694, symBinAddr: 0x10001C140, symSize: 0x34 }
  - { offsetInCU: 0x6CEAA, offset: 0x6CEAA, size: 0x8, addend: 0x0, symName: __ZNSt3__116allocator_traitsINS_9allocatorINS_12basic_stringIcNS_11char_traitsIcEENS1_IcEEEEEEE7destroyB8ue170006IS6_vEEvRS7_PT_, symObjAddr: 0x17710, symBinAddr: 0x10001C1BC, symSize: 0x2C }
  - { offsetInCU: 0x6CEE7, offset: 0x6CEE7, size: 0x8, addend: 0x0, symName: __ZNSt3__116reverse_iteratorIPNS_12basic_stringIcNS_11char_traitsIcEENS_9allocatorIcEEEEEppB8ue170006Ev, symObjAddr: 0x17760, symBinAddr: 0x10001C20C, symSize: 0x20 }
  - { offsetInCU: 0x6CF0D, offset: 0x6CF0D, size: 0x8, addend: 0x0, symName: __ZNKSt3__116reverse_iteratorIPNS_12basic_stringIcNS_11char_traitsIcEENS_9allocatorIcEEEEE4baseB8ue170006Ev, symObjAddr: 0x17780, symBinAddr: 0x10001C22C, symSize: 0x18 }
  - { offsetInCU: 0x6CF33, offset: 0x6CF33, size: 0x8, addend: 0x0, symName: __ZNSt3__19allocatorINS_12basic_stringIcNS_11char_traitsIcEENS0_IcEEEEE7destroyB8ue170006EPS5_, symObjAddr: 0x17798, symBinAddr: 0x10001C244, symSize: 0x28 }
  - { offsetInCU: 0x6CF6C, offset: 0x6CF6C, size: 0x8, addend: 0x0, symName: __ZNSt3__119__to_address_helperINS_16reverse_iteratorIPNS_12basic_stringIcNS_11char_traitsIcEENS_9allocatorIcEEEEEEvE6__callB8ue170006ERKS9_, symObjAddr: 0x177C0, symBinAddr: 0x10001C26C, symSize: 0x38 }
  - { offsetInCU: 0x6CF8F, offset: 0x6CF8F, size: 0x8, addend: 0x0, symName: __ZNKSt3__116reverse_iteratorIPNS_12basic_stringIcNS_11char_traitsIcEENS_9allocatorIcEEEEEptB8ue170006Ev, symObjAddr: 0x177F8, symBinAddr: 0x10001C2A4, symSize: 0x24 }
  - { offsetInCU: 0x6CFB5, offset: 0x6CFB5, size: 0x8, addend: 0x0, symName: __ZNKSt3__116reverse_iteratorIPNS_12basic_stringIcNS_11char_traitsIcEENS_9allocatorIcEEEEEdeB8ue170006Ev, symObjAddr: 0x1781C, symBinAddr: 0x10001C2C8, symSize: 0x28 }
  - { offsetInCU: 0x6CFE9, offset: 0x6CFE9, size: 0x8, addend: 0x0, symName: __ZNSt3__116reverse_iteratorIPNS_12basic_stringIcNS_11char_traitsIcEENS_9allocatorIcEEEEEC2B8ue170006ES7_, symObjAddr: 0x17844, symBinAddr: 0x10001C2F0, symSize: 0x28 }
  - { offsetInCU: 0x6D021, offset: 0x6D021, size: 0x8, addend: 0x0, symName: __ZNSt3__118__unwrap_iter_implIPNS_12basic_stringIcNS_11char_traitsIcEENS_9allocatorIcEEEELb1EE8__unwrapB8ue170006ES7_, symObjAddr: 0x1786C, symBinAddr: 0x10001C318, symSize: 0x24 }
  - { offsetInCU: 0x6D044, offset: 0x6D044, size: 0x8, addend: 0x0, symName: __ZNSt3__118__unwrap_iter_implIPNS_12basic_stringIcNS_11char_traitsIcEENS_9allocatorIcEEEELb1EE8__rewrapB8ue170006ES7_S7_, symObjAddr: 0x17890, symBinAddr: 0x10001C33C, symSize: 0x58 }
  - { offsetInCU: 0x6D075, offset: 0x6D075, size: 0x8, addend: 0x0, symName: __ZNSt3__16vectorINS_12basic_stringIcNS_11char_traitsIcEENS_9allocatorIcEEEENS4_IS6_EEE21_ConstructTransactionD2B8ue170006Ev, symObjAddr: 0x178E8, symBinAddr: 0x10001C394, symSize: 0x20 }
  - { offsetInCU: 0x6D09F, offset: 0x6D09F, size: 0x8, addend: 0x0, symName: __ZNSt3__128__exception_guard_exceptionsINS_6vectorINS_12basic_stringIcNS_11char_traitsIcEENS_9allocatorIcEEEENS5_IS7_EEE16__destroy_vectorEED2B8ue170006Ev, symObjAddr: 0x17908, symBinAddr: 0x10001C3B4, symSize: 0x50 }
  - { offsetInCU: 0x6D0C9, offset: 0x6D0C9, size: 0x8, addend: 0x0, symName: __ZNSt3__16vectorINS_12basic_stringIcNS_11char_traitsIcEENS_9allocatorIcEEEENS4_IS6_EEE16__destroy_vectorclB8ue170006Ev, symObjAddr: 0x17958, symBinAddr: 0x10001C404, symSize: 0x90 }
  - { offsetInCU: 0x6D0EF, offset: 0x6D0EF, size: 0x8, addend: 0x0, symName: __ZNSt3__16vectorINS_12basic_stringIcNS_11char_traitsIcEENS_9allocatorIcEEEENS4_IS6_EEE7__clearB8ue170006Ev, symObjAddr: 0x179E8, symBinAddr: 0x10001C494, symSize: 0x28 }
  - { offsetInCU: 0x6D115, offset: 0x6D115, size: 0x8, addend: 0x0, symName: __ZNKSt3__16vectorINS_12basic_stringIcNS_11char_traitsIcEENS_9allocatorIcEEEENS4_IS6_EEE17__annotate_deleteB8ue170006Ev, symObjAddr: 0x17A10, symBinAddr: 0x10001C4BC, symSize: 0xD4 }
  - { offsetInCU: 0x6D13B, offset: 0x6D13B, size: 0x8, addend: 0x0, symName: __ZNSt3__116allocator_traitsINS_9allocatorINS_12basic_stringIcNS_11char_traitsIcEENS1_IcEEEEEEE10deallocateB8ue170006ERS7_PS6_m, symObjAddr: 0x17AE4, symBinAddr: 0x10001C590, symSize: 0x34 }
  - { offsetInCU: 0x6D17D, offset: 0x6D17D, size: 0x8, addend: 0x0, symName: __ZNSt3__16vectorINS_12basic_stringIcNS_11char_traitsIcEENS_9allocatorIcEEEENS4_IS6_EEE22__base_destruct_at_endB8ue170006EPS6_, symObjAddr: 0x17B18, symBinAddr: 0x10001C5C4, symSize: 0x8C }
  - { offsetInCU: 0x6D1C1, offset: 0x6D1C1, size: 0x8, addend: 0x0, symName: __ZNKSt3__16vectorINS_12basic_stringIcNS_11char_traitsIcEENS_9allocatorIcEEEENS4_IS6_EEE4sizeB8ue170006Ev, symObjAddr: 0x17BA4, symBinAddr: 0x10001C650, symSize: 0x28 }
  - { offsetInCU: 0x6D1E7, offset: 0x6D1E7, size: 0x8, addend: 0x0, symName: __ZNSt3__19allocatorINS_12basic_stringIcNS_11char_traitsIcEENS0_IcEEEEE10deallocateB8ue170006EPS5_m, symObjAddr: 0x17BCC, symBinAddr: 0x10001C678, symSize: 0x44 }
  - { offsetInCU: 0x6D229, offset: 0x6D229, size: 0x8, addend: 0x0, symName: __ZNKSt3__112basic_stringIcNS_11char_traitsIcEENS_9allocatorIcEEE4dataB8ue170006Ev, symObjAddr: 0x17DFC, symBinAddr: 0x10001C8A8, symSize: 0x28 }
  - { offsetInCU: 0x6D24F, offset: 0x6D24F, size: 0x8, addend: 0x0, symName: __ZNKSt3__112basic_stringIcNS_11char_traitsIcEENS_9allocatorIcEEE4sizeB8ue170006Ev, symObjAddr: 0x17E24, symBinAddr: 0x10001C8D0, symSize: 0x54 }
  - { offsetInCU: 0x6D293, offset: 0x6D293, size: 0x8, addend: 0x0, symName: __ZNKSt3__113basic_ostreamIcNS_11char_traitsIcEEE6sentrycvbB8ue170006Ev, symObjAddr: 0x17E78, symBinAddr: 0x10001C924, symSize: 0x1C }
  - { offsetInCU: 0x6D2B9, offset: 0x6D2B9, size: 0x8, addend: 0x0, symName: __ZNSt3__119ostreambuf_iteratorIcNS_11char_traitsIcEEEC1B8ue170006ERNS_13basic_ostreamIcS2_EE, symObjAddr: 0x180D4, symBinAddr: 0x10001CB80, symSize: 0x34 }
  - { offsetInCU: 0x6D2F1, offset: 0x6D2F1, size: 0x8, addend: 0x0, symName: __ZNKSt3__18ios_base5flagsB8ue170006Ev, symObjAddr: 0x18108, symBinAddr: 0x10001CBB4, symSize: 0x18 }
  - { offsetInCU: 0x6D319, offset: 0x6D319, size: 0x8, addend: 0x0, symName: __ZNKSt3__19basic_iosIcNS_11char_traitsIcEEE4fillB8ue170006Ev, symObjAddr: 0x18120, symBinAddr: 0x10001CBCC, symSize: 0x64 }
  - { offsetInCU: 0x6D341, offset: 0x6D341, size: 0x8, addend: 0x0, symName: __ZNKSt3__119ostreambuf_iteratorIcNS_11char_traitsIcEEE6failedB8ue170006Ev, symObjAddr: 0x18184, symBinAddr: 0x10001CC30, symSize: 0x24 }
  - { offsetInCU: 0x6D367, offset: 0x6D367, size: 0x8, addend: 0x0, symName: __ZNSt3__19basic_iosIcNS_11char_traitsIcEEE8setstateB8ue170006Ej, symObjAddr: 0x181A8, symBinAddr: 0x10001CC54, symSize: 0x2C }
  - { offsetInCU: 0x6D39C, offset: 0x6D39C, size: 0x8, addend: 0x0, symName: __ZNKSt3__18ios_base5widthB8ue170006Ev, symObjAddr: 0x181D4, symBinAddr: 0x10001CC80, symSize: 0x18 }
  - { offsetInCU: 0x6D3C4, offset: 0x6D3C4, size: 0x8, addend: 0x0, symName: __ZNSt3__115basic_streambufIcNS_11char_traitsIcEEE5sputnB8ue170006EPKcl, symObjAddr: 0x181EC, symBinAddr: 0x10001CC98, symSize: 0x3C }
  - { offsetInCU: 0x6D406, offset: 0x6D406, size: 0x8, addend: 0x0, symName: __ZNSt3__112basic_stringIcNS_11char_traitsIcEENS_9allocatorIcEEEC1B8ue170006Emc, symObjAddr: 0x18228, symBinAddr: 0x10001CCD4, symSize: 0x3C }
  - { offsetInCU: 0x6D44E, offset: 0x6D44E, size: 0x8, addend: 0x0, symName: __ZNSt3__112basic_stringIcNS_11char_traitsIcEENS_9allocatorIcEEE4dataB8ue170006Ev, symObjAddr: 0x18264, symBinAddr: 0x10001CD10, symSize: 0x28 }
  - { offsetInCU: 0x6D474, offset: 0x6D474, size: 0x8, addend: 0x0, symName: __ZNSt3__18ios_base5widthB8ue170006El, symObjAddr: 0x1828C, symBinAddr: 0x10001CD38, symSize: 0x2C }
  - { offsetInCU: 0x6D4BA, offset: 0x6D4BA, size: 0x8, addend: 0x0, symName: __ZNSt3__112basic_stringIcNS_11char_traitsIcEENS_9allocatorIcEEEC2B8ue170006Emc, symObjAddr: 0x182B8, symBinAddr: 0x10001CD64, symSize: 0x4C }
  - { offsetInCU: 0x6D502, offset: 0x6D502, size: 0x8, addend: 0x0, symName: __ZNSt3__117__compressed_pairINS_12basic_stringIcNS_11char_traitsIcEENS_9allocatorIcEEE5__repES5_EC1B8ue170006INS_18__default_init_tagESA_EEOT_OT0_, symObjAddr: 0x18304, symBinAddr: 0x10001CDB0, symSize: 0x3C }
  - { offsetInCU: 0x6D55A, offset: 0x6D55A, size: 0x8, addend: 0x0, symName: __ZNSt3__117__compressed_pairINS_12basic_stringIcNS_11char_traitsIcEENS_9allocatorIcEEE5__repES5_EC2B8ue170006INS_18__default_init_tagESA_EEOT_OT0_, symObjAddr: 0x18340, symBinAddr: 0x10001CDEC, symSize: 0x3C }
  - { offsetInCU: 0x6D5B2, offset: 0x6D5B2, size: 0x8, addend: 0x0, symName: __ZNSt3__122__compressed_pair_elemINS_12basic_stringIcNS_11char_traitsIcEENS_9allocatorIcEEE5__repELi0ELb0EEC2B8ue170006ENS_18__default_init_tagE, symObjAddr: 0x1837C, symBinAddr: 0x10001CE28, symSize: 0x14 }
  - { offsetInCU: 0x6D5E7, offset: 0x6D5E7, size: 0x8, addend: 0x0, symName: __ZNSt3__122__compressed_pair_elemINS_9allocatorIcEELi1ELb1EEC2B8ue170006ENS_18__default_init_tagE, symObjAddr: 0x18390, symBinAddr: 0x10001CE3C, symSize: 0x2C }
  - { offsetInCU: 0x6D61C, offset: 0x6D61C, size: 0x8, addend: 0x0, symName: __ZNSt3__19allocatorIcEC2B8ue170006Ev, symObjAddr: 0x183BC, symBinAddr: 0x10001CE68, symSize: 0x2C }
  - { offsetInCU: 0x6D646, offset: 0x6D646, size: 0x8, addend: 0x0, symName: __ZNSt3__116__non_trivial_ifILb1ENS_9allocatorIcEEEC2B8ue170006Ev, symObjAddr: 0x183E8, symBinAddr: 0x10001CE94, symSize: 0x14 }
  - { offsetInCU: 0x6D670, offset: 0x6D670, size: 0x8, addend: 0x0, symName: __ZNSt3__112basic_stringIcNS_11char_traitsIcEENS_9allocatorIcEEE13__get_pointerB8ue170006Ev, symObjAddr: 0x18410, symBinAddr: 0x10001CEBC, symSize: 0x54 }
  - { offsetInCU: 0x6D696, offset: 0x6D696, size: 0x8, addend: 0x0, symName: __ZNKSt3__112basic_stringIcNS_11char_traitsIcEENS_9allocatorIcEEE9__is_longB8ue170006Ev, symObjAddr: 0x18464, symBinAddr: 0x10001CF10, symSize: 0x38 }
  - { offsetInCU: 0x6D6BC, offset: 0x6D6BC, size: 0x8, addend: 0x0, symName: __ZNSt3__112basic_stringIcNS_11char_traitsIcEENS_9allocatorIcEEE18__get_long_pointerB8ue170006Ev, symObjAddr: 0x1849C, symBinAddr: 0x10001CF48, symSize: 0x28 }
  - { offsetInCU: 0x6D6E2, offset: 0x6D6E2, size: 0x8, addend: 0x0, symName: __ZNSt3__112basic_stringIcNS_11char_traitsIcEENS_9allocatorIcEEE19__get_short_pointerB8ue170006Ev, symObjAddr: 0x184C4, symBinAddr: 0x10001CF70, symSize: 0x28 }
  - { offsetInCU: 0x6D708, offset: 0x6D708, size: 0x8, addend: 0x0, symName: __ZNKSt3__117__compressed_pairINS_12basic_stringIcNS_11char_traitsIcEENS_9allocatorIcEEE5__repES5_E5firstB8ue170006Ev, symObjAddr: 0x184EC, symBinAddr: 0x10001CF98, symSize: 0x24 }
  - { offsetInCU: 0x6D72E, offset: 0x6D72E, size: 0x8, addend: 0x0, symName: __ZNKSt3__122__compressed_pair_elemINS_12basic_stringIcNS_11char_traitsIcEENS_9allocatorIcEEE5__repELi0ELb0EE5__getB8ue170006Ev, symObjAddr: 0x18510, symBinAddr: 0x10001CFBC, symSize: 0x14 }
  - { offsetInCU: 0x6D754, offset: 0x6D754, size: 0x8, addend: 0x0, symName: __ZNSt3__117__compressed_pairINS_12basic_stringIcNS_11char_traitsIcEENS_9allocatorIcEEE5__repES5_E5firstB8ue170006Ev, symObjAddr: 0x18524, symBinAddr: 0x10001CFD0, symSize: 0x24 }
  - { offsetInCU: 0x6D77A, offset: 0x6D77A, size: 0x8, addend: 0x0, symName: __ZNSt3__122__compressed_pair_elemINS_12basic_stringIcNS_11char_traitsIcEENS_9allocatorIcEEE5__repELi0ELb0EE5__getB8ue170006Ev, symObjAddr: 0x18548, symBinAddr: 0x10001CFF4, symSize: 0x14 }
  - { offsetInCU: 0x6D7A0, offset: 0x6D7A0, size: 0x8, addend: 0x0, symName: __ZNSt3__114pointer_traitsIPcE10pointer_toB8ue170006ERc, symObjAddr: 0x1855C, symBinAddr: 0x10001D008, symSize: 0x14 }
  - { offsetInCU: 0x6D7C3, offset: 0x6D7C3, size: 0x8, addend: 0x0, symName: __ZNSt3__119ostreambuf_iteratorIcNS_11char_traitsIcEEEC2B8ue170006ERNS_13basic_ostreamIcS2_EE, symObjAddr: 0x18570, symBinAddr: 0x10001D01C, symSize: 0x54 }
  - { offsetInCU: 0x6D7FB, offset: 0x6D7FB, size: 0x8, addend: 0x0, symName: __ZNKSt3__19basic_iosIcNS_11char_traitsIcEEE5rdbufB8ue170006Ev, symObjAddr: 0x185C4, symBinAddr: 0x10001D070, symSize: 0x24 }
  - { offsetInCU: 0x6D823, offset: 0x6D823, size: 0x8, addend: 0x0, symName: __ZNKSt3__18ios_base5rdbufB8ue170006Ev, symObjAddr: 0x185E8, symBinAddr: 0x10001D094, symSize: 0x18 }
  - { offsetInCU: 0x6D849, offset: 0x6D849, size: 0x8, addend: 0x0, symName: __ZNSt3__111char_traitsIcE11eq_int_typeB8ue170006Eii, symObjAddr: 0x18600, symBinAddr: 0x10001D0AC, symSize: 0x28 }
  - { offsetInCU: 0x6D87C, offset: 0x6D87C, size: 0x8, addend: 0x0, symName: __ZNSt3__111char_traitsIcE3eofB8ue170006Ev, symObjAddr: 0x18628, symBinAddr: 0x10001D0D4, symSize: 0x8 }
  - { offsetInCU: 0x6D890, offset: 0x6D890, size: 0x8, addend: 0x0, symName: __ZNKSt3__19basic_iosIcNS_11char_traitsIcEEE5widenB8ue170006Ec, symObjAddr: 0x18630, symBinAddr: 0x10001D0DC, symSize: 0x84 }
  - { offsetInCU: 0x6D8F9, offset: 0x6D8F9, size: 0x8, addend: 0x0, symName: __ZNKSt3__15ctypeIcE5widenB8ue170006Ec, symObjAddr: 0x186E0, symBinAddr: 0x10001D18C, symSize: 0x38 }
  - { offsetInCU: 0x6D92E, offset: 0x6D92E, size: 0x8, addend: 0x0, symName: __ZNSt3__18ios_base8setstateB8ue170006Ej, symObjAddr: 0x18718, symBinAddr: 0x10001D1C4, symSize: 0x34 }
  - { offsetInCU: 0x6D965, offset: 0x6D965, size: 0x8, addend: 0x0, symName: __ZNKSt3__112basic_stringIcNS_11char_traitsIcEENS_9allocatorIcEEE13__get_pointerB8ue170006Ev, symObjAddr: 0x18760, symBinAddr: 0x10001D20C, symSize: 0x54 }
  - { offsetInCU: 0x6D98B, offset: 0x6D98B, size: 0x8, addend: 0x0, symName: __ZNKSt3__112basic_stringIcNS_11char_traitsIcEENS_9allocatorIcEEE18__get_long_pointerB8ue170006Ev, symObjAddr: 0x187B4, symBinAddr: 0x10001D260, symSize: 0x28 }
  - { offsetInCU: 0x6D9B1, offset: 0x6D9B1, size: 0x8, addend: 0x0, symName: __ZNKSt3__112basic_stringIcNS_11char_traitsIcEENS_9allocatorIcEEE19__get_short_pointerB8ue170006Ev, symObjAddr: 0x187DC, symBinAddr: 0x10001D288, symSize: 0x28 }
  - { offsetInCU: 0x6D9D7, offset: 0x6D9D7, size: 0x8, addend: 0x0, symName: __ZNSt3__114pointer_traitsIPKcE10pointer_toB8ue170006ERS1_, symObjAddr: 0x18804, symBinAddr: 0x10001D2B0, symSize: 0x14 }
  - { offsetInCU: 0x6D9FA, offset: 0x6D9FA, size: 0x8, addend: 0x0, symName: __ZNKSt3__112basic_stringIcNS_11char_traitsIcEENS_9allocatorIcEEE15__get_long_sizeB8ue170006Ev, symObjAddr: 0x18818, symBinAddr: 0x10001D2C4, symSize: 0x28 }
  - { offsetInCU: 0x6DA20, offset: 0x6DA20, size: 0x8, addend: 0x0, symName: __ZNKSt3__112basic_stringIcNS_11char_traitsIcEENS_9allocatorIcEEE16__get_short_sizeB8ue170006Ev, symObjAddr: 0x18840, symBinAddr: 0x10001D2EC, symSize: 0x34 }
  - { offsetInCU: 0x6DA46, offset: 0x6DA46, size: 0x8, addend: 0x0, symName: __ZNSt3__16vectorINS_12basic_stringIcNS_11char_traitsIcEENS_9allocatorIcEEEENS4_IS6_EEED2B8ue170006Ev, symObjAddr: 0x18874, symBinAddr: 0x10001D320, symSize: 0x40 }
  - { offsetInCU: 0x6DA70, offset: 0x6DA70, size: 0x8, addend: 0x0, symName: __ZNSt3__14pairINS_12basic_stringIcNS_11char_traitsIcEENS_9allocatorIcEEEENS_10shared_ptrI3TexEEEC2B8ue170006IRS6_RS9_LPv0EEEOT_OT0_, symObjAddr: 0x188B4, symBinAddr: 0x10001D360, symSize: 0x48 }
  - { offsetInCU: 0x6DACE, offset: 0x6DACE, size: 0x8, addend: 0x0, symName: __ZNSt3__14pairINS_12basic_stringIcNS_11char_traitsIcEENS_9allocatorIcEEEENS_10shared_ptrI3TexEEED2Ev, symObjAddr: 0x188FC, symBinAddr: 0x10001D3A8, symSize: 0x38 }
  - { offsetInCU: 0x6DAFA, offset: 0x6DAFA, size: 0x8, addend: 0x0, symName: __ZN3TexC2ENSt3__112basic_stringIcNS0_11char_traitsIcEENS0_9allocatorIcEEEERNS0_6vectorIS6_NS4_IS6_EEEEjiib, symObjAddr: 0x18934, symBinAddr: 0x10001D3E0, symSize: 0x210 }
  - { offsetInCU: 0x6DB96, offset: 0x6DB96, size: 0x8, addend: 0x0, symName: __ZNSt3__16vectorINS_12basic_stringIcNS_11char_traitsIcEENS_9allocatorIcEEEENS4_IS6_EEEC1ERKS8_, symObjAddr: 0x18B44, symBinAddr: 0x10001D5F0, symSize: 0x34 }
  - { offsetInCU: 0x6DBD1, offset: 0x6DBD1, size: 0x8, addend: 0x0, symName: __ZNSt3__16vectorINS_12basic_stringIcNS_11char_traitsIcEENS_9allocatorIcEEEENS4_IS6_EEEC2ERKS8_, symObjAddr: 0x18B78, symBinAddr: 0x10001D624, symSize: 0x94 }
  - { offsetInCU: 0x6DC0C, offset: 0x6DC0C, size: 0x8, addend: 0x0, symName: __ZNSt3__116allocator_traitsINS_9allocatorINS_12basic_stringIcNS_11char_traitsIcEENS1_IcEEEEEEE37select_on_container_copy_constructionB8ue170006IS7_vvEES7_RKS7_, symObjAddr: 0x18C0C, symBinAddr: 0x10001D6B8, symSize: 0x10 }
  - { offsetInCU: 0x6DC41, offset: 0x6DC41, size: 0x8, addend: 0x0, symName: __ZNSt3__117__compressed_pairIPNS_12basic_stringIcNS_11char_traitsIcEENS_9allocatorIcEEEENS4_IS6_EEEC1B8ue170006IDnS8_EEOT_OT0_, symObjAddr: 0x18C1C, symBinAddr: 0x10001D6C8, symSize: 0x3C }
  - { offsetInCU: 0x6DC99, offset: 0x6DC99, size: 0x8, addend: 0x0, symName: __ZNSt3__16vectorINS_12basic_stringIcNS_11char_traitsIcEENS_9allocatorIcEEEENS4_IS6_EEE16__init_with_sizeB8ue170006IPS6_SA_EEvT_T0_m, symObjAddr: 0x18C58, symBinAddr: 0x10001D704, symSize: 0xB8 }
  - { offsetInCU: 0x6DD0D, offset: 0x6DD0D, size: 0x8, addend: 0x0, symName: __ZNSt3__117__compressed_pairIPNS_12basic_stringIcNS_11char_traitsIcEENS_9allocatorIcEEEENS4_IS6_EEEC2B8ue170006IDnS8_EEOT_OT0_, symObjAddr: 0x18D10, symBinAddr: 0x10001D7BC, symSize: 0x44 }
  - { offsetInCU: 0x6DD65, offset: 0x6DD65, size: 0x8, addend: 0x0, symName: __ZNSt3__122__compressed_pair_elemINS_9allocatorINS_12basic_stringIcNS_11char_traitsIcEENS1_IcEEEEEELi1ELb1EEC2B8ue170006IS7_vEEOT_, symObjAddr: 0x18D54, symBinAddr: 0x10001D800, symSize: 0x18 }
  - { offsetInCU: 0x6DDA7, offset: 0x6DDA7, size: 0x8, addend: 0x0, symName: __ZNSt3__16vectorINS_12basic_stringIcNS_11char_traitsIcEENS_9allocatorIcEEEENS4_IS6_EEE18__construct_at_endIPS6_SA_EEvT_T0_m, symObjAddr: 0x18D6C, symBinAddr: 0x10001D818, symSize: 0x8C }
  - { offsetInCU: 0x6DE3D, offset: 0x6DE3D, size: 0x8, addend: 0x0, symName: __ZNSt3__14pairIPNS_12basic_stringIcNS_11char_traitsIcEENS_9allocatorIcEEEES7_EC1B8ue170006IS7_S7_LPv0EEEOT_OT0_, symObjAddr: 0x19004, symBinAddr: 0x10001DAB0, symSize: 0x3C }
  - { offsetInCU: 0x6DE9B, offset: 0x6DE9B, size: 0x8, addend: 0x0, symName: __ZNSt3__14pairIPNS_12basic_stringIcNS_11char_traitsIcEENS_9allocatorIcEEEES7_EC2B8ue170006IS7_S7_LPv0EEEOT_OT0_, symObjAddr: 0x19040, symBinAddr: 0x10001DAEC, symSize: 0x34 }
  - { offsetInCU: 0x6DEF9, offset: 0x6DEF9, size: 0x8, addend: 0x0, symName: __ZNSt3__116allocator_traitsINS_9allocatorINS_12basic_stringIcNS_11char_traitsIcEENS1_IcEEEEEEE9constructB8ue170006IS6_JRS6_EvEEvRS7_PT_DpOT0_, symObjAddr: 0x19074, symBinAddr: 0x10001DB20, symSize: 0x34 }
  - { offsetInCU: 0x6DF50, offset: 0x6DF50, size: 0x8, addend: 0x0, symName: __ZNSt3__19allocatorINS_12basic_stringIcNS_11char_traitsIcEENS0_IcEEEEE9constructB8ue170006IS5_JRS5_EEEvPT_DpOT0_, symObjAddr: 0x190A8, symBinAddr: 0x10001DB54, symSize: 0x30 }
  - { offsetInCU: 0x6DFA6, offset: 0x6DFA6, size: 0x8, addend: 0x0, symName: __ZN6ShaderC2ENSt3__112basic_stringIcNS0_11char_traitsIcEENS0_9allocatorIcEEEES6_S6_, symObjAddr: 0x190D8, symBinAddr: 0x10001DB84, symSize: 0x958 }
  - { offsetInCU: 0x6E1A0, offset: 0x6E1A0, size: 0x8, addend: 0x0, symName: __ZNSt3__114basic_ifstreamIcNS_11char_traitsIcEEEC1Ev, symObjAddr: 0x19A30, symBinAddr: 0x10001E4DC, symSize: 0xE8 }
  - { offsetInCU: 0x6E200, offset: 0x6E200, size: 0x8, addend: 0x0, symName: __ZNSt3__118basic_stringstreamIcNS_11char_traitsIcEENS_9allocatorIcEEEC1B8ue170006Ev, symObjAddr: 0x19B18, symBinAddr: 0x10001E5C4, symSize: 0x104 }
  - { offsetInCU: 0x6E22A, offset: 0x6E22A, size: 0x8, addend: 0x0, symName: __ZNKSt3__19basic_iosIcNS_11char_traitsIcEEE4failB8ue170006Ev, symObjAddr: 0x19C1C, symBinAddr: 0x10001E6C8, symSize: 0x28 }
  - { offsetInCU: 0x6E250, offset: 0x6E250, size: 0x8, addend: 0x0, symName: __ZNKSt3__114basic_ifstreamIcNS_11char_traitsIcEEE5rdbufEv, symObjAddr: 0x19C44, symBinAddr: 0x10001E6F0, symSize: 0x18 }
  - { offsetInCU: 0x6E278, offset: 0x6E278, size: 0x8, addend: 0x0, symName: __ZNKSt3__118basic_stringstreamIcNS_11char_traitsIcEENS_9allocatorIcEEE3strB8ue170006Ev, symObjAddr: 0x19C5C, symBinAddr: 0x10001E708, symSize: 0x30 }
  - { offsetInCU: 0x6E29E, offset: 0x6E29E, size: 0x8, addend: 0x0, symName: __ZNSt3__112basic_stringIcNS_11char_traitsIcEENS_9allocatorIcEEEaSB8ue170006EOS5_, symObjAddr: 0x19C8C, symBinAddr: 0x10001E738, symSize: 0x34 }
  - { offsetInCU: 0x6E2D8, offset: 0x6E2D8, size: 0x8, addend: 0x0, symName: __ZNSt3__118basic_stringstreamIcNS_11char_traitsIcEENS_9allocatorIcEEED1Ev, symObjAddr: 0x19CF4, symBinAddr: 0x10001E7A0, symSize: 0x40 }
  - { offsetInCU: 0x6E30A, offset: 0x6E30A, size: 0x8, addend: 0x0, symName: __ZNSt3__114basic_ifstreamIcNS_11char_traitsIcEEED1Ev, symObjAddr: 0x19D34, symBinAddr: 0x10001E7E0, symSize: 0x40 }
  - { offsetInCU: 0x6E337, offset: 0x6E337, size: 0x8, addend: 0x0, symName: __ZNSt3__19basic_iosIcNS_11char_traitsIcEEEC2B8ue170006Ev, symObjAddr: 0x19D74, symBinAddr: 0x10001E820, symSize: 0x44 }
  - { offsetInCU: 0x6E361, offset: 0x6E361, size: 0x8, addend: 0x0, symName: __ZNSt3__113basic_istreamIcNS_11char_traitsIcEEEC2B8ue170006EPNS_15basic_streambufIcS2_EE, symObjAddr: 0x19DB8, symBinAddr: 0x10001E864, symSize: 0x64 }
  - { offsetInCU: 0x6E3A6, offset: 0x6E3A6, size: 0x8, addend: 0x0, symName: __ZNSt3__18ios_baseC2B8ue170006Ev, symObjAddr: 0x19E1C, symBinAddr: 0x10001E8C8, symSize: 0x24 }
  - { offsetInCU: 0x6E3D0, offset: 0x6E3D0, size: 0x8, addend: 0x0, symName: __ZNSt3__19basic_iosIcNS_11char_traitsIcEEE4initB8ue170006EPNS_15basic_streambufIcS2_EE, symObjAddr: 0x19E40, symBinAddr: 0x10001E8EC, symSize: 0x44 }
  - { offsetInCU: 0x6E407, offset: 0x6E407, size: 0x8, addend: 0x0, symName: __ZNSt3__114basic_iostreamIcNS_11char_traitsIcEEEC2B8ue170006EPNS_15basic_streambufIcS2_EE, symObjAddr: 0x19E84, symBinAddr: 0x10001E930, symSize: 0xAC }
  - { offsetInCU: 0x6E44D, offset: 0x6E44D, size: 0x8, addend: 0x0, symName: __ZNSt3__115basic_stringbufIcNS_11char_traitsIcEENS_9allocatorIcEEEC1B8ue170006Ej, symObjAddr: 0x19F30, symBinAddr: 0x10001E9DC, symSize: 0x34 }
  - { offsetInCU: 0x6E486, offset: 0x6E486, size: 0x8, addend: 0x0, symName: __ZNSt3__113basic_ostreamIcNS_11char_traitsIcEEEC2B8ue170006Ev, symObjAddr: 0x19F64, symBinAddr: 0x10001EA10, symSize: 0x34 }
  - { offsetInCU: 0x6E4BD, offset: 0x6E4BD, size: 0x8, addend: 0x0, symName: __ZNSt3__115basic_stringbufIcNS_11char_traitsIcEENS_9allocatorIcEEEC2B8ue170006Ej, symObjAddr: 0x19F98, symBinAddr: 0x10001EA44, symSize: 0x60 }
  - { offsetInCU: 0x6E4F6, offset: 0x6E4F6, size: 0x8, addend: 0x0, symName: __ZNKSt3__18ios_base4failB8ue170006Ev, symObjAddr: 0x19FF8, symBinAddr: 0x10001EAA4, symSize: 0x28 }
  - { offsetInCU: 0x6E51E, offset: 0x6E51E, size: 0x8, addend: 0x0, symName: __ZNSt3__112basic_stringIcNS_11char_traitsIcEENS_9allocatorIcEEE13__move_assignB8ue170006ERS5_NS_17integral_constantIbLb1EEE, symObjAddr: 0x1A020, symBinAddr: 0x10001EACC, symSize: 0xC8 }
  - { offsetInCU: 0x6E561, offset: 0x6E561, size: 0x8, addend: 0x0, symName: __ZNSt3__116allocator_traitsINS_9allocatorIcEEE10deallocateB8ue170006ERS2_Pcm, symObjAddr: 0x1A0E8, symBinAddr: 0x10001EB94, symSize: 0x34 }
  - { offsetInCU: 0x6E5A3, offset: 0x6E5A3, size: 0x8, addend: 0x0, symName: __ZNSt3__112basic_stringIcNS_11char_traitsIcEENS_9allocatorIcEEE7__allocB8ue170006Ev, symObjAddr: 0x1A11C, symBinAddr: 0x10001EBC8, symSize: 0x24 }
  - { offsetInCU: 0x6E5C9, offset: 0x6E5C9, size: 0x8, addend: 0x0, symName: __ZNKSt3__112basic_stringIcNS_11char_traitsIcEENS_9allocatorIcEEE14__get_long_capB8ue170006Ev, symObjAddr: 0x1A140, symBinAddr: 0x10001EBEC, symSize: 0x30 }
  - { offsetInCU: 0x6E5EF, offset: 0x6E5EF, size: 0x8, addend: 0x0, symName: __ZNSt3__112basic_stringIcNS_11char_traitsIcEENS_9allocatorIcEEE19__move_assign_allocB8ue170006ERS5_, symObjAddr: 0x1A170, symBinAddr: 0x10001EC1C, symSize: 0x2C }
  - { offsetInCU: 0x6E624, offset: 0x6E624, size: 0x8, addend: 0x0, symName: __ZNSt3__112basic_stringIcNS_11char_traitsIcEENS_9allocatorIcEEE16__set_short_sizeB8ue170006Em, symObjAddr: 0x1A19C, symBinAddr: 0x10001EC48, symSize: 0x78 }
  - { offsetInCU: 0x6E659, offset: 0x6E659, size: 0x8, addend: 0x0, symName: __ZNSt3__111char_traitsIcE6assignB8ue170006ERcRKc, symObjAddr: 0x1A214, symBinAddr: 0x10001ECC0, symSize: 0x24 }
  - { offsetInCU: 0x6E68A, offset: 0x6E68A, size: 0x8, addend: 0x0, symName: __ZNSt3__19allocatorIcE10deallocateB8ue170006EPcm, symObjAddr: 0x1A238, symBinAddr: 0x10001ECE4, symSize: 0x40 }
  - { offsetInCU: 0x6E6CC, offset: 0x6E6CC, size: 0x8, addend: 0x0, symName: __ZNSt3__117__compressed_pairINS_12basic_stringIcNS_11char_traitsIcEENS_9allocatorIcEEE5__repES5_E6secondB8ue170006Ev, symObjAddr: 0x1A278, symBinAddr: 0x10001ED24, symSize: 0x24 }
  - { offsetInCU: 0x6E6F2, offset: 0x6E6F2, size: 0x8, addend: 0x0, symName: __ZNSt3__122__compressed_pair_elemINS_9allocatorIcEELi1ELb1EE5__getB8ue170006Ev, symObjAddr: 0x1A29C, symBinAddr: 0x10001ED48, symSize: 0x14 }
  - { offsetInCU: 0x6E718, offset: 0x6E718, size: 0x8, addend: 0x0, symName: __ZNSt3__112basic_stringIcNS_11char_traitsIcEENS_9allocatorIcEEE19__move_assign_allocB8ue170006ERS5_NS_17integral_constantIbLb1EEE, symObjAddr: 0x1A2B0, symBinAddr: 0x10001ED5C, symSize: 0x38 }
  - { offsetInCU: 0x6E759, offset: 0x6E759, size: 0x8, addend: 0x0, symName: __ZNSt3__118basic_stringstreamIcNS_11char_traitsIcEENS_9allocatorIcEEED2Ev, symObjAddr: 0x1A2E8, symBinAddr: 0x10001ED94, symSize: 0x6C }
  - { offsetInCU: 0x6E793, offset: 0x6E793, size: 0x8, addend: 0x0, symName: __ZThn16_NSt3__118basic_stringstreamIcNS_11char_traitsIcEENS_9allocatorIcEEED1Ev, symObjAddr: 0x1A354, symBinAddr: 0x10001EE00, symSize: 0x1C }
  - { offsetInCU: 0x6E7AA, offset: 0x6E7AA, size: 0x8, addend: 0x0, symName: __ZTv0_n24_NSt3__118basic_stringstreamIcNS_11char_traitsIcEENS_9allocatorIcEEED1Ev, symObjAddr: 0x1A370, symBinAddr: 0x10001EE1C, symSize: 0x28 }
  - { offsetInCU: 0x6E7C6, offset: 0x6E7C6, size: 0x8, addend: 0x0, symName: __ZNSt3__115basic_stringbufIcNS_11char_traitsIcEENS_9allocatorIcEEED1Ev, symObjAddr: 0x1A398, symBinAddr: 0x10001EE44, symSize: 0x2C }
  - { offsetInCU: 0x6E7F3, offset: 0x6E7F3, size: 0x8, addend: 0x0, symName: __ZNSt3__115basic_stringbufIcNS_11char_traitsIcEENS_9allocatorIcEEED2Ev, symObjAddr: 0x1A3C4, symBinAddr: 0x10001EE70, symSize: 0x48 }
  - { offsetInCU: 0x6E820, offset: 0x6E820, size: 0x8, addend: 0x0, symName: __ZNSt3__114basic_ifstreamIcNS_11char_traitsIcEEED2Ev, symObjAddr: 0x1A40C, symBinAddr: 0x10001EEB8, symSize: 0x64 }
  - { offsetInCU: 0x6E85A, offset: 0x6E85A, size: 0x8, addend: 0x0, symName: __ZTv0_n24_NSt3__114basic_ifstreamIcNS_11char_traitsIcEEED1Ev, symObjAddr: 0x1A470, symBinAddr: 0x10001EF1C, symSize: 0x28 }
  - { offsetInCU: 0x6E871, offset: 0x6E871, size: 0x8, addend: 0x0, symName: __ZNSt3__14pairINS_12basic_stringIcNS_11char_traitsIcEENS_9allocatorIcEEEENS_10shared_ptrI6ShaderEEEC2B8ue170006IRS6_RS9_LPv0EEEOT_OT0_, symObjAddr: 0x1A498, symBinAddr: 0x10001EF44, symSize: 0x48 }
  - { offsetInCU: 0x6E8CF, offset: 0x6E8CF, size: 0x8, addend: 0x0, symName: __ZNSt3__110shared_ptrI6ShaderEC1B8ue170006ERKS2_, symObjAddr: 0x1A4E0, symBinAddr: 0x10001EF8C, symSize: 0x34 }
  - { offsetInCU: 0x6E908, offset: 0x6E908, size: 0x8, addend: 0x0, symName: __ZNSt3__110shared_ptrI6ShaderEC2B8ue170006ERKS2_, symObjAddr: 0x1A514, symBinAddr: 0x10001EFC0, symSize: 0x70 }
  - { offsetInCU: 0x6E941, offset: 0x6E941, size: 0x8, addend: 0x0, symName: __ZNSt3__119__shared_weak_count12__add_sharedB8ue170006Ev, symObjAddr: 0x1A584, symBinAddr: 0x10001F030, symSize: 0x24 }
  - { offsetInCU: 0x6E967, offset: 0x6E967, size: 0x8, addend: 0x0, symName: __ZNSt3__114__shared_count12__add_sharedB8ue170006Ev, symObjAddr: 0x1A5A8, symBinAddr: 0x10001F054, symSize: 0x28 }
  - { offsetInCU: 0x6E98D, offset: 0x6E98D, size: 0x8, addend: 0x0, symName: __ZNSt3__14pairINS_12basic_stringIcNS_11char_traitsIcEENS_9allocatorIcEEEENS_10shared_ptrI6ShaderEEED2Ev, symObjAddr: 0x1A600, symBinAddr: 0x10001F0AC, symSize: 0x38 }
  - { offsetInCU: 0x6E9B9, offset: 0x6E9B9, size: 0x8, addend: 0x0, symName: __ZN5ModelC2ENSt3__112basic_stringIcNS0_11char_traitsIcEENS0_9allocatorIcEEEES6_P6Shaderfj, symObjAddr: 0x1A638, symBinAddr: 0x10001F0E4, symSize: 0x1DC }
  - { offsetInCU: 0x6EA2B, offset: 0x6EA2B, size: 0x8, addend: 0x0, symName: __ZNSt3__16vectorINS_10shared_ptrI4MeshEENS_9allocatorIS3_EEEC1B8ue170006Ev, symObjAddr: 0x1A814, symBinAddr: 0x10001F2C0, symSize: 0x2C }
  - { offsetInCU: 0x6EA55, offset: 0x6EA55, size: 0x8, addend: 0x0, symName: __ZNSt3__16vectorINS_10shared_ptrI3TexEENS_9allocatorIS3_EEEC1B8ue170006Ev, symObjAddr: 0x1A840, symBinAddr: 0x10001F2EC, symSize: 0x2C }
  - { offsetInCU: 0x6EA7F, offset: 0x6EA7F, size: 0x8, addend: 0x0, symName: __ZN5Model9loadModelENSt3__112basic_stringIcNS0_11char_traitsIcEENS0_9allocatorIcEEEEf, symObjAddr: 0x1A86C, symBinAddr: 0x10001F318, symSize: 0x25C }
  - { offsetInCU: 0x6EADF, offset: 0x6EADF, size: 0x8, addend: 0x0, symName: __ZNSt3__16vectorINS_10shared_ptrI3TexEENS_9allocatorIS3_EEED1B8ue170006Ev, symObjAddr: 0x1AAC8, symBinAddr: 0x10001F574, symSize: 0x2C }
  - { offsetInCU: 0x6EB09, offset: 0x6EB09, size: 0x8, addend: 0x0, symName: __ZNSt3__16vectorINS_10shared_ptrI4MeshEENS_9allocatorIS3_EEED1B8ue170006Ev, symObjAddr: 0x1AAF4, symBinAddr: 0x10001F5A0, symSize: 0x2C }
  - { offsetInCU: 0x6EB33, offset: 0x6EB33, size: 0x8, addend: 0x0, symName: __ZN5ModelD1Ev, symObjAddr: 0x1AB20, symBinAddr: 0x10001F5CC, symSize: 0x2C }
  - { offsetInCU: 0x6EB5D, offset: 0x6EB5D, size: 0x8, addend: 0x0, symName: __ZN5ModelD0Ev, symObjAddr: 0x1AB4C, symBinAddr: 0x10001F5F8, symSize: 0x30 }
  - { offsetInCU: 0x6EB87, offset: 0x6EB87, size: 0x8, addend: 0x0, symName: __ZN5Model4DrawER6ShaderN3glm3matILi4ELi4EfLNS2_9qualifierE0EEE, symObjAddr: 0x1AB7C, symBinAddr: 0x10001F628, symSize: 0xD0 }
  - { offsetInCU: 0x6EBE7, offset: 0x6EBE7, size: 0x8, addend: 0x0, symName: __ZNSt3__16vectorINS_10shared_ptrI4MeshEENS_9allocatorIS3_EEEC2B8ue170006Ev, symObjAddr: 0x1AC4C, symBinAddr: 0x10001F6F8, symSize: 0x4C }
  - { offsetInCU: 0x6EC11, offset: 0x6EC11, size: 0x8, addend: 0x0, symName: __ZNSt3__117__compressed_pairIPNS_10shared_ptrI4MeshEENS_9allocatorIS3_EEEC1B8ue170006IDnNS_18__default_init_tagEEEOT_OT0_, symObjAddr: 0x1AC98, symBinAddr: 0x10001F744, symSize: 0x3C }
  - { offsetInCU: 0x6EC69, offset: 0x6EC69, size: 0x8, addend: 0x0, symName: __ZNSt3__117__compressed_pairIPNS_10shared_ptrI4MeshEENS_9allocatorIS3_EEEC2B8ue170006IDnNS_18__default_init_tagEEEOT_OT0_, symObjAddr: 0x1ACD4, symBinAddr: 0x10001F780, symSize: 0x40 }
  - { offsetInCU: 0x6ECC1, offset: 0x6ECC1, size: 0x8, addend: 0x0, symName: __ZNSt3__122__compressed_pair_elemIPNS_10shared_ptrI4MeshEELi0ELb0EEC2B8ue170006IDnvEEOT_, symObjAddr: 0x1AD14, symBinAddr: 0x10001F7C0, symSize: 0x1C }
  - { offsetInCU: 0x6ED03, offset: 0x6ED03, size: 0x8, addend: 0x0, symName: __ZNSt3__122__compressed_pair_elemINS_9allocatorINS_10shared_ptrI4MeshEEEELi1ELb1EEC2B8ue170006ENS_18__default_init_tagE, symObjAddr: 0x1AD30, symBinAddr: 0x10001F7DC, symSize: 0x2C }
  - { offsetInCU: 0x6ED38, offset: 0x6ED38, size: 0x8, addend: 0x0, symName: __ZNSt3__19allocatorINS_10shared_ptrI4MeshEEEC2B8ue170006Ev, symObjAddr: 0x1AD5C, symBinAddr: 0x10001F808, symSize: 0x2C }
  - { offsetInCU: 0x6ED62, offset: 0x6ED62, size: 0x8, addend: 0x0, symName: __ZNSt3__116__non_trivial_ifILb1ENS_9allocatorINS_10shared_ptrI4MeshEEEEEC2B8ue170006Ev, symObjAddr: 0x1AD88, symBinAddr: 0x10001F834, symSize: 0x14 }
  - { offsetInCU: 0x6ED8C, offset: 0x6ED8C, size: 0x8, addend: 0x0, symName: __ZNSt3__16vectorINS_10shared_ptrI3TexEENS_9allocatorIS3_EEEC2B8ue170006Ev, symObjAddr: 0x1AD9C, symBinAddr: 0x10001F848, symSize: 0x4C }
  - { offsetInCU: 0x6EDB6, offset: 0x6EDB6, size: 0x8, addend: 0x0, symName: __ZNSt3__117__compressed_pairIPNS_10shared_ptrI3TexEENS_9allocatorIS3_EEEC1B8ue170006IDnNS_18__default_init_tagEEEOT_OT0_, symObjAddr: 0x1ADE8, symBinAddr: 0x10001F894, symSize: 0x3C }
  - { offsetInCU: 0x6EE0E, offset: 0x6EE0E, size: 0x8, addend: 0x0, symName: __ZNSt3__117__compressed_pairIPNS_10shared_ptrI3TexEENS_9allocatorIS3_EEEC2B8ue170006IDnNS_18__default_init_tagEEEOT_OT0_, symObjAddr: 0x1AE24, symBinAddr: 0x10001F8D0, symSize: 0x40 }
  - { offsetInCU: 0x6EE66, offset: 0x6EE66, size: 0x8, addend: 0x0, symName: __ZNSt3__122__compressed_pair_elemIPNS_10shared_ptrI3TexEELi0ELb0EEC2B8ue170006IDnvEEOT_, symObjAddr: 0x1AE64, symBinAddr: 0x10001F910, symSize: 0x1C }
  - { offsetInCU: 0x6EEA8, offset: 0x6EEA8, size: 0x8, addend: 0x0, symName: __ZNSt3__122__compressed_pair_elemINS_9allocatorINS_10shared_ptrI3TexEEEELi1ELb1EEC2B8ue170006ENS_18__default_init_tagE, symObjAddr: 0x1AE80, symBinAddr: 0x10001F92C, symSize: 0x2C }
  - { offsetInCU: 0x6EEDD, offset: 0x6EEDD, size: 0x8, addend: 0x0, symName: __ZNSt3__19allocatorINS_10shared_ptrI3TexEEEC2B8ue170006Ev, symObjAddr: 0x1AEAC, symBinAddr: 0x10001F958, symSize: 0x2C }
  - { offsetInCU: 0x6EF07, offset: 0x6EF07, size: 0x8, addend: 0x0, symName: __ZNSt3__116__non_trivial_ifILb1ENS_9allocatorINS_10shared_ptrI3TexEEEEEC2B8ue170006Ev, symObjAddr: 0x1AED8, symBinAddr: 0x10001F984, symSize: 0x14 }
  - { offsetInCU: 0x6F5C3, offset: 0x6F5C3, size: 0x8, addend: 0x0, symName: __ZN6Assimp8Importer8ReadFileERKNSt3__112basic_stringIcNS1_11char_traitsIcEENS1_9allocatorIcEEEEj, symObjAddr: 0x1AEEC, symBinAddr: 0x10001F998, symSize: 0x44 }
  - { offsetInCU: 0x6F609, offset: 0x6F609, size: 0x8, addend: 0x0, symName: __ZNKSt3__112basic_stringIcNS_11char_traitsIcEENS_9allocatorIcEEE6substrB8ue170006Emm, symObjAddr: 0x1AF30, symBinAddr: 0x10001F9DC, symSize: 0x68 }
  - { offsetInCU: 0x6F64D, offset: 0x6F64D, size: 0x8, addend: 0x0, symName: __ZNKSt3__112basic_stringIcNS_11char_traitsIcEENS_9allocatorIcEEE12find_last_ofB8ue170006Ecm, symObjAddr: 0x1AF98, symBinAddr: 0x10001FA44, symSize: 0x34 }
  - { offsetInCU: 0x6F693, offset: 0x6F693, size: 0x8, addend: 0x0, symName: __ZN5Model11processNodeEP6aiNodePK7aiSceneN3glm3matILi4ELi4EfLNS5_9qualifierE0EEE, symObjAddr: 0x1AFCC, symBinAddr: 0x10001FA78, symSize: 0x24C }
  - { offsetInCU: 0x6F777, offset: 0x6F777, size: 0x8, addend: 0x0, symName: __ZN5Model14printSceneInfoENSt3__112basic_stringIcNS0_11char_traitsIcEENS0_9allocatorIcEEEEPK7aiSceneS6_, symObjAddr: 0x1B218, symBinAddr: 0x10001FCC4, symSize: 0x81C }
  - { offsetInCU: 0x6F8D7, offset: 0x6F8D7, size: 0x8, addend: 0x0, symName: __ZNSt3__19allocatorIcEC1B8ue170006Ev, symObjAddr: 0x1BA34, symBinAddr: 0x1000204E0, symSize: 0x2C }
  - { offsetInCU: 0x6F901, offset: 0x6F901, size: 0x8, addend: 0x0, symName: __ZN12aiMatrix4x4tIfEixEj, symObjAddr: 0x1BA60, symBinAddr: 0x10002050C, symSize: 0xBC }
  - { offsetInCU: 0x6F938, offset: 0x6F938, size: 0x8, addend: 0x0, symName: __ZN3glm3vecILi4EfLNS_9qualifierE0EEixEi, symObjAddr: 0x1BB2C, symBinAddr: 0x1000205D8, symSize: 0x10C }
  - { offsetInCU: 0x6F96F, offset: 0x6F96F, size: 0x8, addend: 0x0, symName: __ZNSt3__16vectorINS_10shared_ptrI4MeshEENS_9allocatorIS3_EEE9push_backB8ue170006EOS3_, symObjAddr: 0x1C1F4, symBinAddr: 0x100020CA0, symSize: 0x6C }
  - { offsetInCU: 0x6F9A6, offset: 0x6F9A6, size: 0x8, addend: 0x0, symName: __ZN5Model11processMeshEP6aiMeshPK7aiSceneN3glm3matILi4ELi4EfLNS5_9qualifierE0EEE, symObjAddr: 0x1C260, symBinAddr: 0x100020D0C, symSize: 0x159C }
  - { offsetInCU: 0x6FBEC, offset: 0x6FBEC, size: 0x8, addend: 0x0, symName: __ZNSt3__110shared_ptrI4MeshED1B8ue170006Ev, symObjAddr: 0x1D7FC, symBinAddr: 0x1000222A8, symSize: 0x2C }
  - { offsetInCU: 0x6FC16, offset: 0x6FC16, size: 0x8, addend: 0x0, symName: __ZN3glm3vecILi4EfLNS_9qualifierE0EE6lengthEv, symObjAddr: 0x1D828, symBinAddr: 0x1000222D4, symSize: 0x8 }
  - { offsetInCU: 0x6FC2A, offset: 0x6FC2A, size: 0x8, addend: 0x0, symName: __ZNK3glm3matILi4ELi4EfLNS_9qualifierE0EEixEi, symObjAddr: 0x1D830, symBinAddr: 0x1000222DC, symSize: 0x78 }
  - { offsetInCU: 0x6FC61, offset: 0x6FC61, size: 0x8, addend: 0x0, symName: __ZNK3glm3vecILi4EfLNS_9qualifierE0EEixEi, symObjAddr: 0x1D94C, symBinAddr: 0x1000223F8, symSize: 0x10C }
  - { offsetInCU: 0x6FC98, offset: 0x6FC98, size: 0x8, addend: 0x0, symName: __ZN3glm3vecILi4EfLNS_9qualifierE0EEpLIfEERS2_RKNS0_ILi4ET_LS1_0EEE, symObjAddr: 0x1DA68, symBinAddr: 0x100022514, symSize: 0x58 }
  - { offsetInCU: 0x6FCD9, offset: 0x6FCD9, size: 0x8, addend: 0x0, symName: __ZN3glm6detail16compute_vec4_addIfLNS_9qualifierE0ELb0EE4callERKNS_3vecILi4EfLS2_0EEES7_, symObjAddr: 0x1DAC0, symBinAddr: 0x10002256C, symSize: 0x88 }
  - { offsetInCU: 0x6FD0A, offset: 0x6FD0A, size: 0x8, addend: 0x0, symName: __ZN3glm3vecILi4EfLNS_9qualifierE0EEC1Effff, symObjAddr: 0x1DB48, symBinAddr: 0x1000225F4, symSize: 0x4C }
  - { offsetInCU: 0x6FD6E, offset: 0x6FD6E, size: 0x8, addend: 0x0, symName: __ZN3glm3vecILi4EfLNS_9qualifierE0EEC2Effff, symObjAddr: 0x1DB94, symBinAddr: 0x100022640, symSize: 0x44 }
  - { offsetInCU: 0x6FDD2, offset: 0x6FDD2, size: 0x8, addend: 0x0, symName: __ZN3glm3vecILi4EfLNS_9qualifierE0EEmLIfEERS2_T_, symObjAddr: 0x1DBD8, symBinAddr: 0x100022684, symSize: 0x60 }
  - { offsetInCU: 0x6FE13, offset: 0x6FE13, size: 0x8, addend: 0x0, symName: __ZN3glm6detail16compute_vec4_mulIfLNS_9qualifierE0ELb0EE4callERKNS_3vecILi4EfLS2_0EEES7_, symObjAddr: 0x1DC38, symBinAddr: 0x1000226E4, symSize: 0x88 }
  - { offsetInCU: 0x6FE44, offset: 0x6FE44, size: 0x8, addend: 0x0, symName: __ZN3glm3vecILi4EfLNS_9qualifierE0EEC1Ef, symObjAddr: 0x1DCC0, symBinAddr: 0x10002276C, symSize: 0x34 }
  - { offsetInCU: 0x6FE7E, offset: 0x6FE7E, size: 0x8, addend: 0x0, symName: __ZN3glm3vecILi4EfLNS_9qualifierE0EEC2Ef, symObjAddr: 0x1DCF4, symBinAddr: 0x1000227A0, symSize: 0x38 }
  - { offsetInCU: 0x6FEB8, offset: 0x6FEB8, size: 0x8, addend: 0x0, symName: __ZNSt3__16vectorINS_10shared_ptrI4MeshEENS_9allocatorIS3_EEE9__end_capB8ue170006Ev, symObjAddr: 0x1DD2C, symBinAddr: 0x1000227D8, symSize: 0x28 }
  - { offsetInCU: 0x6FEDE, offset: 0x6FEDE, size: 0x8, addend: 0x0, symName: __ZNSt3__16vectorINS_10shared_ptrI4MeshEENS_9allocatorIS3_EEE22__construct_one_at_endB8ue170006IJS3_EEEvDpOT_, symObjAddr: 0x1DD54, symBinAddr: 0x100022800, symSize: 0x90 }
  - { offsetInCU: 0x6FF2D, offset: 0x6FF2D, size: 0x8, addend: 0x0, symName: __ZNSt3__16vectorINS_10shared_ptrI4MeshEENS_9allocatorIS3_EEE21__push_back_slow_pathIS3_EEvOT_, symObjAddr: 0x1DDE4, symBinAddr: 0x100022890, symSize: 0xD8 }
  - { offsetInCU: 0x6FF8B, offset: 0x6FF8B, size: 0x8, addend: 0x0, symName: __ZNSt3__117__compressed_pairIPNS_10shared_ptrI4MeshEENS_9allocatorIS3_EEE5firstB8ue170006Ev, symObjAddr: 0x1DEBC, symBinAddr: 0x100022968, symSize: 0x24 }
  - { offsetInCU: 0x6FFB1, offset: 0x6FFB1, size: 0x8, addend: 0x0, symName: __ZNSt3__122__compressed_pair_elemIPNS_10shared_ptrI4MeshEELi0ELb0EE5__getB8ue170006Ev, symObjAddr: 0x1DEE0, symBinAddr: 0x10002298C, symSize: 0x14 }
  - { offsetInCU: 0x6FFF0, offset: 0x6FFF0, size: 0x8, addend: 0x0, symName: __ZNSt3__16vectorINS_10shared_ptrI4MeshEENS_9allocatorIS3_EEE21_ConstructTransactionC1B8ue170006ERS6_m, symObjAddr: 0x1DEF4, symBinAddr: 0x1000229A0, symSize: 0x3C }
  - { offsetInCU: 0x70038, offset: 0x70038, size: 0x8, addend: 0x0, symName: __ZNSt3__116allocator_traitsINS_9allocatorINS_10shared_ptrI4MeshEEEEE9constructB8ue170006IS4_JS4_EvEEvRS5_PT_DpOT0_, symObjAddr: 0x1DF30, symBinAddr: 0x1000229DC, symSize: 0x34 }
  - { offsetInCU: 0x7008F, offset: 0x7008F, size: 0x8, addend: 0x0, symName: __ZNSt3__16vectorINS_10shared_ptrI4MeshEENS_9allocatorIS3_EEE7__allocB8ue170006Ev, symObjAddr: 0x1DF64, symBinAddr: 0x100022A10, symSize: 0x28 }
  - { offsetInCU: 0x700B5, offset: 0x700B5, size: 0x8, addend: 0x0, symName: __ZNSt3__16vectorINS_10shared_ptrI4MeshEENS_9allocatorIS3_EEE21_ConstructTransactionD1B8ue170006Ev, symObjAddr: 0x1DFA0, symBinAddr: 0x100022A4C, symSize: 0x2C }
  - { offsetInCU: 0x700DF, offset: 0x700DF, size: 0x8, addend: 0x0, symName: __ZNSt3__16vectorINS_10shared_ptrI4MeshEENS_9allocatorIS3_EEE21_ConstructTransactionC2B8ue170006ERS6_m, symObjAddr: 0x1DFCC, symBinAddr: 0x100022A78, symSize: 0x44 }
  - { offsetInCU: 0x70127, offset: 0x70127, size: 0x8, addend: 0x0, symName: __ZNSt3__19allocatorINS_10shared_ptrI4MeshEEE9constructB8ue170006IS3_JS3_EEEvPT_DpOT0_, symObjAddr: 0x1E010, symBinAddr: 0x100022ABC, symSize: 0x30 }
  - { offsetInCU: 0x7017D, offset: 0x7017D, size: 0x8, addend: 0x0, symName: __ZNSt3__110shared_ptrI4MeshEC1B8ue170006EOS2_, symObjAddr: 0x1E040, symBinAddr: 0x100022AEC, symSize: 0x34 }
  - { offsetInCU: 0x701B6, offset: 0x701B6, size: 0x8, addend: 0x0, symName: __ZNSt3__110shared_ptrI4MeshEC2B8ue170006EOS2_, symObjAddr: 0x1E074, symBinAddr: 0x100022B20, symSize: 0x40 }
  - { offsetInCU: 0x701EF, offset: 0x701EF, size: 0x8, addend: 0x0, symName: __ZNSt3__117__compressed_pairIPNS_10shared_ptrI4MeshEENS_9allocatorIS3_EEE6secondB8ue170006Ev, symObjAddr: 0x1E0B4, symBinAddr: 0x100022B60, symSize: 0x24 }
  - { offsetInCU: 0x70215, offset: 0x70215, size: 0x8, addend: 0x0, symName: __ZNSt3__122__compressed_pair_elemINS_9allocatorINS_10shared_ptrI4MeshEEEELi1ELb1EE5__getB8ue170006Ev, symObjAddr: 0x1E0D8, symBinAddr: 0x100022B84, symSize: 0x14 }
  - { offsetInCU: 0x7023B, offset: 0x7023B, size: 0x8, addend: 0x0, symName: __ZNSt3__16vectorINS_10shared_ptrI4MeshEENS_9allocatorIS3_EEE21_ConstructTransactionD2B8ue170006Ev, symObjAddr: 0x1E0EC, symBinAddr: 0x100022B98, symSize: 0x20 }
  - { offsetInCU: 0x70265, offset: 0x70265, size: 0x8, addend: 0x0, symName: __ZNKSt3__16vectorINS_10shared_ptrI4MeshEENS_9allocatorIS3_EEE11__recommendB8ue170006Em, symObjAddr: 0x1E10C, symBinAddr: 0x100022BB8, symSize: 0xB4 }
  - { offsetInCU: 0x702BA, offset: 0x702BA, size: 0x8, addend: 0x0, symName: __ZNKSt3__16vectorINS_10shared_ptrI4MeshEENS_9allocatorIS3_EEE4sizeB8ue170006Ev, symObjAddr: 0x1E1C0, symBinAddr: 0x100022C6C, symSize: 0x28 }
  - { offsetInCU: 0x702E0, offset: 0x702E0, size: 0x8, addend: 0x0, symName: __ZNSt3__114__split_bufferINS_10shared_ptrI4MeshEERNS_9allocatorIS3_EEEC1EmmS6_, symObjAddr: 0x1E1E8, symBinAddr: 0x100022C94, symSize: 0x44 }
  - { offsetInCU: 0x70336, offset: 0x70336, size: 0x8, addend: 0x0, symName: __ZNSt3__114__split_bufferINS_10shared_ptrI4MeshEERNS_9allocatorIS3_EEED1Ev, symObjAddr: 0x1E33C, symBinAddr: 0x100022DE8, symSize: 0x2C }
  - { offsetInCU: 0x70362, offset: 0x70362, size: 0x8, addend: 0x0, symName: __ZNKSt3__16vectorINS_10shared_ptrI4MeshEENS_9allocatorIS3_EEE8max_sizeEv, symObjAddr: 0x1E368, symBinAddr: 0x100022E14, symSize: 0x60 }
  - { offsetInCU: 0x7038A, offset: 0x7038A, size: 0x8, addend: 0x0, symName: __ZNKSt3__16vectorINS_10shared_ptrI4MeshEENS_9allocatorIS3_EEE20__throw_length_errorB8ue170006Ev, symObjAddr: 0x1E3C8, symBinAddr: 0x100022E74, symSize: 0x1C }
  - { offsetInCU: 0x703B0, offset: 0x703B0, size: 0x8, addend: 0x0, symName: __ZNKSt3__16vectorINS_10shared_ptrI4MeshEENS_9allocatorIS3_EEE8capacityB8ue170006Ev, symObjAddr: 0x1E3E4, symBinAddr: 0x100022E90, symSize: 0x40 }
  - { offsetInCU: 0x703E0, offset: 0x703E0, size: 0x8, addend: 0x0, symName: __ZNSt3__116allocator_traitsINS_9allocatorINS_10shared_ptrI4MeshEEEEE8max_sizeB8ue170006IS5_vEEmRKS5_, symObjAddr: 0x1E450, symBinAddr: 0x100022EFC, symSize: 0x24 }
  - { offsetInCU: 0x7040E, offset: 0x7040E, size: 0x8, addend: 0x0, symName: __ZNKSt3__16vectorINS_10shared_ptrI4MeshEENS_9allocatorIS3_EEE7__allocB8ue170006Ev, symObjAddr: 0x1E474, symBinAddr: 0x100022F20, symSize: 0x28 }
  - { offsetInCU: 0x70434, offset: 0x70434, size: 0x8, addend: 0x0, symName: __ZNKSt3__19allocatorINS_10shared_ptrI4MeshEEE8max_sizeB8ue170006Ev, symObjAddr: 0x1E49C, symBinAddr: 0x100022F48, symSize: 0x14 }
  - { offsetInCU: 0x7045A, offset: 0x7045A, size: 0x8, addend: 0x0, symName: __ZNKSt3__117__compressed_pairIPNS_10shared_ptrI4MeshEENS_9allocatorIS3_EEE6secondB8ue170006Ev, symObjAddr: 0x1E4B0, symBinAddr: 0x100022F5C, symSize: 0x24 }
  - { offsetInCU: 0x70480, offset: 0x70480, size: 0x8, addend: 0x0, symName: __ZNKSt3__122__compressed_pair_elemINS_9allocatorINS_10shared_ptrI4MeshEEEELi1ELb1EE5__getB8ue170006Ev, symObjAddr: 0x1E4D4, symBinAddr: 0x100022F80, symSize: 0x14 }
  - { offsetInCU: 0x704A6, offset: 0x704A6, size: 0x8, addend: 0x0, symName: __ZNKSt3__16vectorINS_10shared_ptrI4MeshEENS_9allocatorIS3_EEE9__end_capB8ue170006Ev, symObjAddr: 0x1E4E8, symBinAddr: 0x100022F94, symSize: 0x28 }
  - { offsetInCU: 0x704CC, offset: 0x704CC, size: 0x8, addend: 0x0, symName: __ZNKSt3__117__compressed_pairIPNS_10shared_ptrI4MeshEENS_9allocatorIS3_EEE5firstB8ue170006Ev, symObjAddr: 0x1E510, symBinAddr: 0x100022FBC, symSize: 0x24 }
  - { offsetInCU: 0x704F2, offset: 0x704F2, size: 0x8, addend: 0x0, symName: __ZNKSt3__122__compressed_pair_elemIPNS_10shared_ptrI4MeshEELi0ELb0EE5__getB8ue170006Ev, symObjAddr: 0x1E534, symBinAddr: 0x100022FE0, symSize: 0x14 }
  - { offsetInCU: 0x70518, offset: 0x70518, size: 0x8, addend: 0x0, symName: __ZNSt3__114__split_bufferINS_10shared_ptrI4MeshEERNS_9allocatorIS3_EEEC2EmmS6_, symObjAddr: 0x1E59C, symBinAddr: 0x100023048, symSize: 0xD4 }
  - { offsetInCU: 0x7058C, offset: 0x7058C, size: 0x8, addend: 0x0, symName: __ZNSt3__117__compressed_pairIPNS_10shared_ptrI4MeshEERNS_9allocatorIS3_EEEC1B8ue170006IDnS7_EEOT_OT0_, symObjAddr: 0x1E670, symBinAddr: 0x10002311C, symSize: 0x3C }
  - { offsetInCU: 0x705E4, offset: 0x705E4, size: 0x8, addend: 0x0, symName: __ZNSt3__114__split_bufferINS_10shared_ptrI4MeshEERNS_9allocatorIS3_EEE7__allocB8ue170006Ev, symObjAddr: 0x1E6EC, symBinAddr: 0x100023198, symSize: 0x28 }
  - { offsetInCU: 0x7060A, offset: 0x7060A, size: 0x8, addend: 0x0, symName: __ZNSt3__114__split_bufferINS_10shared_ptrI4MeshEERNS_9allocatorIS3_EEE9__end_capB8ue170006Ev, symObjAddr: 0x1E714, symBinAddr: 0x1000231C0, symSize: 0x28 }
  - { offsetInCU: 0x70630, offset: 0x70630, size: 0x8, addend: 0x0, symName: __ZNSt3__117__compressed_pairIPNS_10shared_ptrI4MeshEERNS_9allocatorIS3_EEEC2B8ue170006IDnS7_EEOT_OT0_, symObjAddr: 0x1E73C, symBinAddr: 0x1000231E8, symSize: 0x48 }
  - { offsetInCU: 0x70688, offset: 0x70688, size: 0x8, addend: 0x0, symName: __ZNSt3__122__compressed_pair_elemIRNS_9allocatorINS_10shared_ptrI4MeshEEEELi1ELb0EEC2B8ue170006IS6_vEEOT_, symObjAddr: 0x1E784, symBinAddr: 0x100023230, symSize: 0x20 }
  - { offsetInCU: 0x706CA, offset: 0x706CA, size: 0x8, addend: 0x0, symName: __ZNSt3__19allocatorINS_10shared_ptrI4MeshEEE8allocateB8ue170006Em, symObjAddr: 0x1E7A4, symBinAddr: 0x100023250, symSize: 0x58 }
  - { offsetInCU: 0x706FE, offset: 0x706FE, size: 0x8, addend: 0x0, symName: __ZNSt3__117__compressed_pairIPNS_10shared_ptrI4MeshEERNS_9allocatorIS3_EEE6secondB8ue170006Ev, symObjAddr: 0x1E7FC, symBinAddr: 0x1000232A8, symSize: 0x28 }
  - { offsetInCU: 0x70724, offset: 0x70724, size: 0x8, addend: 0x0, symName: __ZNSt3__122__compressed_pair_elemIRNS_9allocatorINS_10shared_ptrI4MeshEEEELi1ELb0EE5__getB8ue170006Ev, symObjAddr: 0x1E824, symBinAddr: 0x1000232D0, symSize: 0x18 }
  - { offsetInCU: 0x7074A, offset: 0x7074A, size: 0x8, addend: 0x0, symName: __ZNSt3__117__compressed_pairIPNS_10shared_ptrI4MeshEERNS_9allocatorIS3_EEE5firstB8ue170006Ev, symObjAddr: 0x1E83C, symBinAddr: 0x1000232E8, symSize: 0x24 }
  - { offsetInCU: 0x70770, offset: 0x70770, size: 0x8, addend: 0x0, symName: __ZNKSt3__16vectorINS_10shared_ptrI4MeshEENS_9allocatorIS3_EEE17__annotate_deleteB8ue170006Ev, symObjAddr: 0x1E860, symBinAddr: 0x10002330C, symSize: 0xB8 }
  - { offsetInCU: 0x70796, offset: 0x70796, size: 0x8, addend: 0x0, symName: __ZNSt3__116reverse_iteratorIPNS_10shared_ptrI4MeshEEEC1B8ue170006ES4_, symObjAddr: 0x1EA44, symBinAddr: 0x1000234F0, symSize: 0x34 }
  - { offsetInCU: 0x707CE, offset: 0x707CE, size: 0x8, addend: 0x0, symName: __ZNKSt3__116reverse_iteratorIPNS_10shared_ptrI4MeshEEE4baseB8ue170006Ev, symObjAddr: 0x1EA78, symBinAddr: 0x100023524, symSize: 0x18 }
  - { offsetInCU: 0x707F4, offset: 0x707F4, size: 0x8, addend: 0x0, symName: __ZNKSt3__16vectorINS_10shared_ptrI4MeshEENS_9allocatorIS3_EEE14__annotate_newB8ue170006Em, symObjAddr: 0x1EACC, symBinAddr: 0x100023578, symSize: 0xAC }
  - { offsetInCU: 0x70829, offset: 0x70829, size: 0x8, addend: 0x0, symName: __ZNKSt3__16vectorINS_10shared_ptrI4MeshEENS_9allocatorIS3_EEE31__annotate_contiguous_containerB8ue170006EPKvS8_S8_S8_, symObjAddr: 0x1EB78, symBinAddr: 0x100023624, symSize: 0x20 }
  - { offsetInCU: 0x7087F, offset: 0x7087F, size: 0x8, addend: 0x0, symName: __ZNKSt3__16vectorINS_10shared_ptrI4MeshEENS_9allocatorIS3_EEE4dataB8ue170006Ev, symObjAddr: 0x1EB98, symBinAddr: 0x100023644, symSize: 0x28 }
  - { offsetInCU: 0x708A5, offset: 0x708A5, size: 0x8, addend: 0x0, symName: __ZNSt3__129_AllocatorDestroyRangeReverseINS_9allocatorINS_10shared_ptrI4MeshEEEENS_16reverse_iteratorIPS4_EEEC1B8ue170006ERS5_RS8_SB_, symObjAddr: 0x1EC0C, symBinAddr: 0x1000236B8, symSize: 0x44 }
  - { offsetInCU: 0x708FC, offset: 0x708FC, size: 0x8, addend: 0x0, symName: __ZNKSt3__116reverse_iteratorIPNS_10shared_ptrI4MeshEEEdeB8ue170006Ev, symObjAddr: 0x1ECBC, symBinAddr: 0x100023768, symSize: 0x28 }
  - { offsetInCU: 0x70930, offset: 0x70930, size: 0x8, addend: 0x0, symName: __ZNSt3__116reverse_iteratorIPNS_10shared_ptrI4MeshEEEppB8ue170006Ev, symObjAddr: 0x1ECE4, symBinAddr: 0x100023790, symSize: 0x20 }
  - { offsetInCU: 0x70956, offset: 0x70956, size: 0x8, addend: 0x0, symName: __ZNSt3__128__exception_guard_exceptionsINS_29_AllocatorDestroyRangeReverseINS_9allocatorINS_10shared_ptrI4MeshEEEENS_16reverse_iteratorIPS5_EEEEE10__completeB8ue170006Ev, symObjAddr: 0x1ED04, symBinAddr: 0x1000237B0, symSize: 0x1C }
  - { offsetInCU: 0x7097C, offset: 0x7097C, size: 0x8, addend: 0x0, symName: __ZNSt3__128__exception_guard_exceptionsINS_29_AllocatorDestroyRangeReverseINS_9allocatorINS_10shared_ptrI4MeshEEEENS_16reverse_iteratorIPS5_EEEEED1B8ue170006Ev, symObjAddr: 0x1ED20, symBinAddr: 0x1000237CC, symSize: 0x2C }
  - { offsetInCU: 0x709A6, offset: 0x709A6, size: 0x8, addend: 0x0, symName: __ZNSt3__128__exception_guard_exceptionsINS_29_AllocatorDestroyRangeReverseINS_9allocatorINS_10shared_ptrI4MeshEEEENS_16reverse_iteratorIPS5_EEEEEC1B8ue170006ESA_, symObjAddr: 0x1ED4C, symBinAddr: 0x1000237F8, symSize: 0x34 }
  - { offsetInCU: 0x709DF, offset: 0x709DF, size: 0x8, addend: 0x0, symName: __ZNSt3__128__exception_guard_exceptionsINS_29_AllocatorDestroyRangeReverseINS_9allocatorINS_10shared_ptrI4MeshEEEENS_16reverse_iteratorIPS5_EEEEEC2B8ue170006ESA_, symObjAddr: 0x1ED80, symBinAddr: 0x10002382C, symSize: 0x30 }
  - { offsetInCU: 0x70A18, offset: 0x70A18, size: 0x8, addend: 0x0, symName: __ZNSt3__129_AllocatorDestroyRangeReverseINS_9allocatorINS_10shared_ptrI4MeshEEEENS_16reverse_iteratorIPS4_EEEC2B8ue170006ERS5_RS8_SB_, symObjAddr: 0x1EDB0, symBinAddr: 0x10002385C, symSize: 0x38 }
  - { offsetInCU: 0x70A74, offset: 0x70A74, size: 0x8, addend: 0x0, symName: __ZNSt3__119__to_address_helperINS_16reverse_iteratorIPNS_10shared_ptrI4MeshEEEEvE6__callB8ue170006ERKS6_, symObjAddr: 0x1EDE8, symBinAddr: 0x100023894, symSize: 0x38 }
  - { offsetInCU: 0x70A97, offset: 0x70A97, size: 0x8, addend: 0x0, symName: __ZNKSt3__116reverse_iteratorIPNS_10shared_ptrI4MeshEEEptB8ue170006Ev, symObjAddr: 0x1EE20, symBinAddr: 0x1000238CC, symSize: 0x24 }
  - { offsetInCU: 0x70ABD, offset: 0x70ABD, size: 0x8, addend: 0x0, symName: __ZNSt3__128__exception_guard_exceptionsINS_29_AllocatorDestroyRangeReverseINS_9allocatorINS_10shared_ptrI4MeshEEEENS_16reverse_iteratorIPS5_EEEEED2B8ue170006Ev, symObjAddr: 0x1EE44, symBinAddr: 0x1000238F0, symSize: 0x50 }
  - { offsetInCU: 0x70AE7, offset: 0x70AE7, size: 0x8, addend: 0x0, symName: __ZNKSt3__129_AllocatorDestroyRangeReverseINS_9allocatorINS_10shared_ptrI4MeshEEEENS_16reverse_iteratorIPS4_EEEclB8ue170006Ev, symObjAddr: 0x1EE94, symBinAddr: 0x100023940, symSize: 0xB4 }
  - { offsetInCU: 0x70B0E, offset: 0x70B0E, size: 0x8, addend: 0x0, symName: __ZNSt3__116reverse_iteratorINS0_IPNS_10shared_ptrI4MeshEEEEEC1B8ue170006ES5_, symObjAddr: 0x1EFB8, symBinAddr: 0x100023A64, symSize: 0x3C }
  - { offsetInCU: 0x70B46, offset: 0x70B46, size: 0x8, addend: 0x0, symName: __ZNSt3__116allocator_traitsINS_9allocatorINS_10shared_ptrI4MeshEEEEE7destroyB8ue170006IS4_vEEvRS5_PT_, symObjAddr: 0x1F054, symBinAddr: 0x100023B00, symSize: 0x2C }
  - { offsetInCU: 0x70B83, offset: 0x70B83, size: 0x8, addend: 0x0, symName: __ZNSt3__116reverse_iteratorINS0_IPNS_10shared_ptrI4MeshEEEEEppB8ue170006Ev, symObjAddr: 0x1F0A4, symBinAddr: 0x100023B50, symSize: 0x30 }
  - { offsetInCU: 0x70BA9, offset: 0x70BA9, size: 0x8, addend: 0x0, symName: __ZNKSt3__116reverse_iteratorINS0_IPNS_10shared_ptrI4MeshEEEEE4baseB8ue170006Ev, symObjAddr: 0x1F0D4, symBinAddr: 0x100023B80, symSize: 0x24 }
  - { offsetInCU: 0x70BCF, offset: 0x70BCF, size: 0x8, addend: 0x0, symName: __ZNSt3__19allocatorINS_10shared_ptrI4MeshEEE7destroyB8ue170006EPS3_, symObjAddr: 0x1F0F8, symBinAddr: 0x100023BA4, symSize: 0x28 }
  - { offsetInCU: 0x70C08, offset: 0x70C08, size: 0x8, addend: 0x0, symName: __ZNSt3__119__to_address_helperINS_16reverse_iteratorINS1_IPNS_10shared_ptrI4MeshEEEEEEvE6__callB8ue170006ERKS7_, symObjAddr: 0x1F120, symBinAddr: 0x100023BCC, symSize: 0x38 }
  - { offsetInCU: 0x70C2B, offset: 0x70C2B, size: 0x8, addend: 0x0, symName: __ZNKSt3__116reverse_iteratorINS0_IPNS_10shared_ptrI4MeshEEEEEptB8ue170006Ev, symObjAddr: 0x1F158, symBinAddr: 0x100023C04, symSize: 0x24 }
  - { offsetInCU: 0x70C51, offset: 0x70C51, size: 0x8, addend: 0x0, symName: __ZNKSt3__116reverse_iteratorINS0_IPNS_10shared_ptrI4MeshEEEEEdeB8ue170006Ev, symObjAddr: 0x1F17C, symBinAddr: 0x100023C28, symSize: 0x34 }
  - { offsetInCU: 0x70C85, offset: 0x70C85, size: 0x8, addend: 0x0, symName: __ZNSt3__116reverse_iteratorIPNS_10shared_ptrI4MeshEEEmmB8ue170006Ev, symObjAddr: 0x1F1B0, symBinAddr: 0x100023C5C, symSize: 0x20 }
  - { offsetInCU: 0x70CAB, offset: 0x70CAB, size: 0x8, addend: 0x0, symName: __ZNSt3__116reverse_iteratorINS0_IPNS_10shared_ptrI4MeshEEEEEC2B8ue170006ES5_, symObjAddr: 0x1F1D0, symBinAddr: 0x100023C7C, symSize: 0x2C }
  - { offsetInCU: 0x70CE3, offset: 0x70CE3, size: 0x8, addend: 0x0, symName: __ZNSt3__116reverse_iteratorIPNS_10shared_ptrI4MeshEEEC2B8ue170006ES4_, symObjAddr: 0x1F1FC, symBinAddr: 0x100023CA8, symSize: 0x28 }
  - { offsetInCU: 0x70D1B, offset: 0x70D1B, size: 0x8, addend: 0x0, symName: __ZNSt3__114__split_bufferINS_10shared_ptrI4MeshEERNS_9allocatorIS3_EEED2Ev, symObjAddr: 0x1F224, symBinAddr: 0x100023CD0, symSize: 0x8C }
  - { offsetInCU: 0x70D47, offset: 0x70D47, size: 0x8, addend: 0x0, symName: __ZNSt3__114__split_bufferINS_10shared_ptrI4MeshEERNS_9allocatorIS3_EEE5clearB8ue170006Ev, symObjAddr: 0x1F2B0, symBinAddr: 0x100023D5C, symSize: 0x28 }
  - { offsetInCU: 0x70D6D, offset: 0x70D6D, size: 0x8, addend: 0x0, symName: __ZNSt3__116allocator_traitsINS_9allocatorINS_10shared_ptrI4MeshEEEEE10deallocateB8ue170006ERS5_PS4_m, symObjAddr: 0x1F2D8, symBinAddr: 0x100023D84, symSize: 0x34 }
  - { offsetInCU: 0x70DAF, offset: 0x70DAF, size: 0x8, addend: 0x0, symName: __ZNKSt3__114__split_bufferINS_10shared_ptrI4MeshEERNS_9allocatorIS3_EEE8capacityB8ue170006Ev, symObjAddr: 0x1F30C, symBinAddr: 0x100023DB8, symSize: 0x40 }
  - { offsetInCU: 0x70DD5, offset: 0x70DD5, size: 0x8, addend: 0x0, symName: __ZNSt3__114__split_bufferINS_10shared_ptrI4MeshEERNS_9allocatorIS3_EEE17__destruct_at_endB8ue170006EPS3_, symObjAddr: 0x1F34C, symBinAddr: 0x100023DF8, symSize: 0x2C }
  - { offsetInCU: 0x70E09, offset: 0x70E09, size: 0x8, addend: 0x0, symName: __ZNSt3__114__split_bufferINS_10shared_ptrI4MeshEERNS_9allocatorIS3_EEE17__destruct_at_endB8ue170006EPS3_NS_17integral_constantIbLb0EEE, symObjAddr: 0x1F378, symBinAddr: 0x100023E24, symSize: 0x80 }
  - { offsetInCU: 0x70E4A, offset: 0x70E4A, size: 0x8, addend: 0x0, symName: __ZNSt3__19allocatorINS_10shared_ptrI4MeshEEE10deallocateB8ue170006EPS3_m, symObjAddr: 0x1F3F8, symBinAddr: 0x100023EA4, symSize: 0x40 }
  - { offsetInCU: 0x70E8C, offset: 0x70E8C, size: 0x8, addend: 0x0, symName: __ZNKSt3__114__split_bufferINS_10shared_ptrI4MeshEERNS_9allocatorIS3_EEE9__end_capB8ue170006Ev, symObjAddr: 0x1F438, symBinAddr: 0x100023EE4, symSize: 0x28 }
  - { offsetInCU: 0x70EB2, offset: 0x70EB2, size: 0x8, addend: 0x0, symName: __ZNKSt3__117__compressed_pairIPNS_10shared_ptrI4MeshEERNS_9allocatorIS3_EEE5firstB8ue170006Ev, symObjAddr: 0x1F460, symBinAddr: 0x100023F0C, symSize: 0x24 }
  - { offsetInCU: 0x70ED8, offset: 0x70ED8, size: 0x8, addend: 0x0, symName: __ZNSt3__16vectorI10MeshVertexNS_9allocatorIS1_EEEC1B8ue170006Ev, symObjAddr: 0x1F484, symBinAddr: 0x100023F30, symSize: 0x2C }
  - { offsetInCU: 0x70F02, offset: 0x70F02, size: 0x8, addend: 0x0, symName: __ZNSt3__16vectorI9MeshColorNS_9allocatorIS1_EEEC1B8ue170006Ev, symObjAddr: 0x1F4B0, symBinAddr: 0x100023F5C, symSize: 0x2C }
  - { offsetInCU: 0x70F2C, offset: 0x70F2C, size: 0x8, addend: 0x0, symName: __ZNSt3__16vectorI10MeshScalarNS_9allocatorIS1_EEEC1B8ue170006Ev, symObjAddr: 0x1F4DC, symBinAddr: 0x100023F88, symSize: 0x2C }
  - { offsetInCU: 0x70F56, offset: 0x70F56, size: 0x8, addend: 0x0, symName: __ZNK6aiMesh12HasPositionsEv, symObjAddr: 0x1F508, symBinAddr: 0x100023FB4, symSize: 0x54 }
  - { offsetInCU: 0x70F7C, offset: 0x70F7C, size: 0x8, addend: 0x0, symName: __ZNK6aiMesh10HasNormalsEv, symObjAddr: 0x1F55C, symBinAddr: 0x100024008, symSize: 0x54 }
  - { offsetInCU: 0x70FA2, offset: 0x70FA2, size: 0x8, addend: 0x0, symName: __ZNK6aiMesh16HasTextureCoordsEj, symObjAddr: 0x1F5B0, symBinAddr: 0x10002405C, symSize: 0xA0 }
  - { offsetInCU: 0x70FD7, offset: 0x70FD7, size: 0x8, addend: 0x0, symName: __ZN3glm3vecILi2EfLNS_9qualifierE0EEC1Eff, symObjAddr: 0x1F650, symBinAddr: 0x1000240FC, symSize: 0x3C }
  - { offsetInCU: 0x7101F, offset: 0x7101F, size: 0x8, addend: 0x0, symName: __ZN3glm3vecILi2EfLNS_9qualifierE0EEC1Ef, symObjAddr: 0x1F68C, symBinAddr: 0x100024138, symSize: 0x34 }
  - { offsetInCU: 0x71059, offset: 0x71059, size: 0x8, addend: 0x0, symName: __ZNK6aiMesh24HasTangentsAndBitangentsEv, symObjAddr: 0x1F6C0, symBinAddr: 0x10002416C, symSize: 0x74 }
  - { offsetInCU: 0x7107F, offset: 0x7107F, size: 0x8, addend: 0x0, symName: __ZNSt3__16vectorI10MeshVertexNS_9allocatorIS1_EEE9push_backB8ue170006ERKS1_, symObjAddr: 0x1F734, symBinAddr: 0x1000241E0, symSize: 0x6C }
  - { offsetInCU: 0x710B6, offset: 0x710B6, size: 0x8, addend: 0x0, symName: __ZN6aiFaceC1ERKS_, symObjAddr: 0x1F7A0, symBinAddr: 0x10002424C, symSize: 0x34 }
  - { offsetInCU: 0x710EE, offset: 0x710EE, size: 0x8, addend: 0x0, symName: __ZNSt3__16vectorIjNS_9allocatorIjEEE9push_backB8ue170006ERKj, symObjAddr: 0x1F7D4, symBinAddr: 0x100024280, symSize: 0x6C }
  - { offsetInCU: 0x71125, offset: 0x71125, size: 0x8, addend: 0x0, symName: __ZN6aiFaceD1Ev, symObjAddr: 0x1F840, symBinAddr: 0x1000242EC, symSize: 0x2C }
  - { offsetInCU: 0x7114F, offset: 0x7114F, size: 0x8, addend: 0x0, symName: __ZNK10aiMaterial15GetTextureCountE13aiTextureType, symObjAddr: 0x1F86C, symBinAddr: 0x100024318, symSize: 0x2C }
  - { offsetInCU: 0x71185, offset: 0x71185, size: 0x8, addend: 0x0, symName: __ZN5Model20loadMaterialTexturesEP10aiMaterial13aiTextureType8Tex_Type, symObjAddr: 0x1F898, symBinAddr: 0x100024344, symSize: 0x3D0 }
  - { offsetInCU: 0x7128E, offset: 0x7128E, size: 0x8, addend: 0x0, symName: __ZNSt3__16vectorINS_10shared_ptrI3TexEENS_9allocatorIS3_EEE6insertINS_11__wrap_iterIPS3_EELi0EEESA_NS8_IPKS3_EET_SE_, symObjAddr: 0x1FC68, symBinAddr: 0x100024714, symSize: 0x84 }
  - { offsetInCU: 0x712F2, offset: 0x712F2, size: 0x8, addend: 0x0, symName: __ZNSt3__16vectorINS_10shared_ptrI3TexEENS_9allocatorIS3_EEE3endB8ue170006Ev, symObjAddr: 0x1FCEC, symBinAddr: 0x100024798, symSize: 0x30 }
  - { offsetInCU: 0x71324, offset: 0x71324, size: 0x8, addend: 0x0, symName: __ZNSt3__111__wrap_iterIPKNS_10shared_ptrI3TexEEEC1B8ue170006IPS3_EERKNS0_IT_EEPNS_9enable_ifIXsr14is_convertibleIS9_S5_EE5valueEvE4typeE, symObjAddr: 0x1FD1C, symBinAddr: 0x1000247C8, symSize: 0x3C }
  - { offsetInCU: 0x71370, offset: 0x71370, size: 0x8, addend: 0x0, symName: __ZNSt3__16vectorINS_10shared_ptrI3TexEENS_9allocatorIS3_EEE5beginB8ue170006Ev, symObjAddr: 0x1FD58, symBinAddr: 0x100024804, symSize: 0x30 }
  - { offsetInCU: 0x71398, offset: 0x71398, size: 0x8, addend: 0x0, symName: __ZN9aiColor3DC1Ev, symObjAddr: 0x1FD88, symBinAddr: 0x100024834, symSize: 0x2C }
  - { offsetInCU: 0x713C7, offset: 0x713C7, size: 0x8, addend: 0x0, symName: __ZN9MeshColorC1Ev, symObjAddr: 0x1FDB4, symBinAddr: 0x100024860, symSize: 0x2C }
  - { offsetInCU: 0x713F3, offset: 0x713F3, size: 0x8, addend: 0x0, symName: __ZNK10aiMaterial3GetEPKcjjR9aiColor3D, symObjAddr: 0x1FDE0, symBinAddr: 0x10002488C, symSize: 0x9C }
  - { offsetInCU: 0x7146F, offset: 0x7146F, size: 0x8, addend: 0x0, symName: __ZNSt3__16vectorI9MeshColorNS_9allocatorIS1_EEE9push_backB8ue170006ERKS1_, symObjAddr: 0x1FE7C, symBinAddr: 0x100024928, symSize: 0x6C }
  - { offsetInCU: 0x714AB, offset: 0x714AB, size: 0x8, addend: 0x0, symName: __ZN10MeshScalarC1Ev, symObjAddr: 0x1FEE8, symBinAddr: 0x100024994, symSize: 0x2C }
  - { offsetInCU: 0x714D7, offset: 0x714D7, size: 0x8, addend: 0x0, symName: __ZNK10aiMaterial3GetEPKcjjRf, symObjAddr: 0x1FF14, symBinAddr: 0x1000249C0, symSize: 0x44 }
  - { offsetInCU: 0x71537, offset: 0x71537, size: 0x8, addend: 0x0, symName: __ZNSt3__16vectorI10MeshScalarNS_9allocatorIS1_EEE9push_backB8ue170006ERKS1_, symObjAddr: 0x1FF58, symBinAddr: 0x100024A04, symSize: 0x6C }
  - { offsetInCU: 0x7156E, offset: 0x7156E, size: 0x8, addend: 0x0, symName: __ZNSt3__16vectorI10MeshVertexNS_9allocatorIS1_EEEC1ERKS4_, symObjAddr: 0x1FFC4, symBinAddr: 0x100024A70, symSize: 0x34 }
  - { offsetInCU: 0x715A9, offset: 0x715A9, size: 0x8, addend: 0x0, symName: __ZNSt3__16vectorIjNS_9allocatorIjEEEC1ERKS3_, symObjAddr: 0x1FFF8, symBinAddr: 0x100024AA4, symSize: 0x34 }
  - { offsetInCU: 0x715E4, offset: 0x715E4, size: 0x8, addend: 0x0, symName: __ZNSt3__16vectorINS_10shared_ptrI3TexEENS_9allocatorIS3_EEEC1ERKS6_, symObjAddr: 0x2002C, symBinAddr: 0x100024AD8, symSize: 0x34 }
  - { offsetInCU: 0x7161F, offset: 0x7161F, size: 0x8, addend: 0x0, symName: __ZNSt3__16vectorI9MeshColorNS_9allocatorIS1_EEEC1ERKS4_, symObjAddr: 0x20060, symBinAddr: 0x100024B0C, symSize: 0x34 }
  - { offsetInCU: 0x7165A, offset: 0x7165A, size: 0x8, addend: 0x0, symName: __ZNSt3__16vectorI10MeshScalarNS_9allocatorIS1_EEEC1ERKS4_, symObjAddr: 0x20094, symBinAddr: 0x100024B40, symSize: 0x34 }
  - { offsetInCU: 0x71695, offset: 0x71695, size: 0x8, addend: 0x0, symName: __ZN4MeshC1ENSt3__16vectorI10MeshVertexNS0_9allocatorIS2_EEEENS1_IjNS3_IjEEEENS1_INS0_10shared_ptrI3TexEENS3_ISA_EEEENS1_I9MeshColorNS3_ISD_EEEENS1_I10MeshScalarNS3_ISG_EEEEN3glm3matILi4ELi4EfLNSJ_9qualifierE0EEE, symObjAddr: 0x200C8, symBinAddr: 0x100024B74, symSize: 0x5C }
  - { offsetInCU: 0x7171E, offset: 0x7171E, size: 0x8, addend: 0x0, symName: __ZNSt3__110shared_ptrI4MeshEC1B8ue170006IS1_vEEPT_, symObjAddr: 0x20124, symBinAddr: 0x100024BD0, symSize: 0x34 }
  - { offsetInCU: 0x71761, offset: 0x71761, size: 0x8, addend: 0x0, symName: __ZNSt3__16vectorI10MeshScalarNS_9allocatorIS1_EEED1B8ue170006Ev, symObjAddr: 0x20158, symBinAddr: 0x100024C04, symSize: 0x2C }
  - { offsetInCU: 0x7178B, offset: 0x7178B, size: 0x8, addend: 0x0, symName: __ZNSt3__16vectorI9MeshColorNS_9allocatorIS1_EEED1B8ue170006Ev, symObjAddr: 0x20184, symBinAddr: 0x100024C30, symSize: 0x2C }
  - { offsetInCU: 0x717B5, offset: 0x717B5, size: 0x8, addend: 0x0, symName: __ZNSt3__16vectorI10MeshVertexNS_9allocatorIS1_EEED1B8ue170006Ev, symObjAddr: 0x201B0, symBinAddr: 0x100024C5C, symSize: 0x2C }
  - { offsetInCU: 0x717DF, offset: 0x717DF, size: 0x8, addend: 0x0, symName: __ZN10MeshScalarD1Ev, symObjAddr: 0x201DC, symBinAddr: 0x100024C88, symSize: 0x2C }
  - { offsetInCU: 0x7180B, offset: 0x7180B, size: 0x8, addend: 0x0, symName: __ZN9MeshColorD1Ev, symObjAddr: 0x20208, symBinAddr: 0x100024CB4, symSize: 0x2C }
  - { offsetInCU: 0x71837, offset: 0x71837, size: 0x8, addend: 0x0, symName: __ZNSt3__16vectorI10MeshVertexNS_9allocatorIS1_EEEC2B8ue170006Ev, symObjAddr: 0x20234, symBinAddr: 0x100024CE0, symSize: 0x4C }
  - { offsetInCU: 0x71861, offset: 0x71861, size: 0x8, addend: 0x0, symName: __ZNSt3__117__compressed_pairIP10MeshVertexNS_9allocatorIS1_EEEC1B8ue170006IDnNS_18__default_init_tagEEEOT_OT0_, symObjAddr: 0x20280, symBinAddr: 0x100024D2C, symSize: 0x3C }
  - { offsetInCU: 0x718B9, offset: 0x718B9, size: 0x8, addend: 0x0, symName: __ZNSt3__117__compressed_pairIP10MeshVertexNS_9allocatorIS1_EEEC2B8ue170006IDnNS_18__default_init_tagEEEOT_OT0_, symObjAddr: 0x202BC, symBinAddr: 0x100024D68, symSize: 0x40 }
  - { offsetInCU: 0x71911, offset: 0x71911, size: 0x8, addend: 0x0, symName: __ZNSt3__122__compressed_pair_elemIP10MeshVertexLi0ELb0EEC2B8ue170006IDnvEEOT_, symObjAddr: 0x202FC, symBinAddr: 0x100024DA8, symSize: 0x1C }
  - { offsetInCU: 0x71953, offset: 0x71953, size: 0x8, addend: 0x0, symName: __ZNSt3__122__compressed_pair_elemINS_9allocatorI10MeshVertexEELi1ELb1EEC2B8ue170006ENS_18__default_init_tagE, symObjAddr: 0x20318, symBinAddr: 0x100024DC4, symSize: 0x2C }
  - { offsetInCU: 0x71988, offset: 0x71988, size: 0x8, addend: 0x0, symName: __ZNSt3__19allocatorI10MeshVertexEC2B8ue170006Ev, symObjAddr: 0x20344, symBinAddr: 0x100024DF0, symSize: 0x2C }
  - { offsetInCU: 0x719B2, offset: 0x719B2, size: 0x8, addend: 0x0, symName: __ZNSt3__116__non_trivial_ifILb1ENS_9allocatorI10MeshVertexEEEC2B8ue170006Ev, symObjAddr: 0x20370, symBinAddr: 0x100024E1C, symSize: 0x14 }
  - { offsetInCU: 0x719DC, offset: 0x719DC, size: 0x8, addend: 0x0, symName: __ZNSt3__16vectorI9MeshColorNS_9allocatorIS1_EEEC2B8ue170006Ev, symObjAddr: 0x20384, symBinAddr: 0x100024E30, symSize: 0x4C }
  - { offsetInCU: 0x71A06, offset: 0x71A06, size: 0x8, addend: 0x0, symName: __ZNSt3__117__compressed_pairIP9MeshColorNS_9allocatorIS1_EEEC1B8ue170006IDnNS_18__default_init_tagEEEOT_OT0_, symObjAddr: 0x203D0, symBinAddr: 0x100024E7C, symSize: 0x3C }
  - { offsetInCU: 0x71A5E, offset: 0x71A5E, size: 0x8, addend: 0x0, symName: __ZNSt3__117__compressed_pairIP9MeshColorNS_9allocatorIS1_EEEC2B8ue170006IDnNS_18__default_init_tagEEEOT_OT0_, symObjAddr: 0x2040C, symBinAddr: 0x100024EB8, symSize: 0x40 }
  - { offsetInCU: 0x71AB6, offset: 0x71AB6, size: 0x8, addend: 0x0, symName: __ZNSt3__122__compressed_pair_elemIP9MeshColorLi0ELb0EEC2B8ue170006IDnvEEOT_, symObjAddr: 0x2044C, symBinAddr: 0x100024EF8, symSize: 0x1C }
  - { offsetInCU: 0x71AF8, offset: 0x71AF8, size: 0x8, addend: 0x0, symName: __ZNSt3__122__compressed_pair_elemINS_9allocatorI9MeshColorEELi1ELb1EEC2B8ue170006ENS_18__default_init_tagE, symObjAddr: 0x20468, symBinAddr: 0x100024F14, symSize: 0x2C }
  - { offsetInCU: 0x71B2D, offset: 0x71B2D, size: 0x8, addend: 0x0, symName: __ZNSt3__19allocatorI9MeshColorEC2B8ue170006Ev, symObjAddr: 0x20494, symBinAddr: 0x100024F40, symSize: 0x2C }
  - { offsetInCU: 0x71B57, offset: 0x71B57, size: 0x8, addend: 0x0, symName: __ZNSt3__116__non_trivial_ifILb1ENS_9allocatorI9MeshColorEEEC2B8ue170006Ev, symObjAddr: 0x204C0, symBinAddr: 0x100024F6C, symSize: 0x14 }
  - { offsetInCU: 0x71B81, offset: 0x71B81, size: 0x8, addend: 0x0, symName: __ZNSt3__16vectorI10MeshScalarNS_9allocatorIS1_EEEC2B8ue170006Ev, symObjAddr: 0x204D4, symBinAddr: 0x100024F80, symSize: 0x4C }
  - { offsetInCU: 0x71BAB, offset: 0x71BAB, size: 0x8, addend: 0x0, symName: __ZNSt3__117__compressed_pairIP10MeshScalarNS_9allocatorIS1_EEEC1B8ue170006IDnNS_18__default_init_tagEEEOT_OT0_, symObjAddr: 0x20520, symBinAddr: 0x100024FCC, symSize: 0x3C }
  - { offsetInCU: 0x71C03, offset: 0x71C03, size: 0x8, addend: 0x0, symName: __ZNSt3__117__compressed_pairIP10MeshScalarNS_9allocatorIS1_EEEC2B8ue170006IDnNS_18__default_init_tagEEEOT_OT0_, symObjAddr: 0x2055C, symBinAddr: 0x100025008, symSize: 0x40 }
  - { offsetInCU: 0x71C5B, offset: 0x71C5B, size: 0x8, addend: 0x0, symName: __ZNSt3__122__compressed_pair_elemIP10MeshScalarLi0ELb0EEC2B8ue170006IDnvEEOT_, symObjAddr: 0x2059C, symBinAddr: 0x100025048, symSize: 0x1C }
  - { offsetInCU: 0x71C9D, offset: 0x71C9D, size: 0x8, addend: 0x0, symName: __ZNSt3__122__compressed_pair_elemINS_9allocatorI10MeshScalarEELi1ELb1EEC2B8ue170006ENS_18__default_init_tagE, symObjAddr: 0x205B8, symBinAddr: 0x100025064, symSize: 0x2C }
  - { offsetInCU: 0x71CD2, offset: 0x71CD2, size: 0x8, addend: 0x0, symName: __ZNSt3__19allocatorI10MeshScalarEC2B8ue170006Ev, symObjAddr: 0x205E4, symBinAddr: 0x100025090, symSize: 0x2C }
  - { offsetInCU: 0x71CFC, offset: 0x71CFC, size: 0x8, addend: 0x0, symName: __ZNSt3__116__non_trivial_ifILb1ENS_9allocatorI10MeshScalarEEEC2B8ue170006Ev, symObjAddr: 0x20610, symBinAddr: 0x1000250BC, symSize: 0x14 }
  - { offsetInCU: 0x71D26, offset: 0x71D26, size: 0x8, addend: 0x0, symName: __ZN3glm3vecILi2EfLNS_9qualifierE0EEC2Eff, symObjAddr: 0x20624, symBinAddr: 0x1000250D0, symSize: 0x2C }
  - { offsetInCU: 0x71D6E, offset: 0x71D6E, size: 0x8, addend: 0x0, symName: __ZN3glm3vecILi2EfLNS_9qualifierE0EEC2Ef, symObjAddr: 0x20650, symBinAddr: 0x1000250FC, symSize: 0x28 }
  - { offsetInCU: 0x71DA8, offset: 0x71DA8, size: 0x8, addend: 0x0, symName: __ZNSt3__16vectorI10MeshVertexNS_9allocatorIS1_EEE9__end_capB8ue170006Ev, symObjAddr: 0x20678, symBinAddr: 0x100025124, symSize: 0x28 }
  - { offsetInCU: 0x71DCE, offset: 0x71DCE, size: 0x8, addend: 0x0, symName: __ZNSt3__16vectorI10MeshVertexNS_9allocatorIS1_EEE22__construct_one_at_endB8ue170006IJRKS1_EEEvDpOT_, symObjAddr: 0x206A0, symBinAddr: 0x10002514C, symSize: 0x90 }
  - { offsetInCU: 0x71E1D, offset: 0x71E1D, size: 0x8, addend: 0x0, symName: __ZNSt3__16vectorI10MeshVertexNS_9allocatorIS1_EEE21__push_back_slow_pathIRKS1_EEvOT_, symObjAddr: 0x20730, symBinAddr: 0x1000251DC, symSize: 0xD8 }
  - { offsetInCU: 0x71E7B, offset: 0x71E7B, size: 0x8, addend: 0x0, symName: __ZNSt3__117__compressed_pairIP10MeshVertexNS_9allocatorIS1_EEE5firstB8ue170006Ev, symObjAddr: 0x20808, symBinAddr: 0x1000252B4, symSize: 0x24 }
  - { offsetInCU: 0x71EA1, offset: 0x71EA1, size: 0x8, addend: 0x0, symName: __ZNSt3__122__compressed_pair_elemIP10MeshVertexLi0ELb0EE5__getB8ue170006Ev, symObjAddr: 0x2082C, symBinAddr: 0x1000252D8, symSize: 0x14 }
  - { offsetInCU: 0x71EE0, offset: 0x71EE0, size: 0x8, addend: 0x0, symName: __ZNSt3__16vectorI10MeshVertexNS_9allocatorIS1_EEE21_ConstructTransactionC1B8ue170006ERS4_m, symObjAddr: 0x20840, symBinAddr: 0x1000252EC, symSize: 0x3C }
  - { offsetInCU: 0x71F28, offset: 0x71F28, size: 0x8, addend: 0x0, symName: __ZNSt3__116allocator_traitsINS_9allocatorI10MeshVertexEEE9constructB8ue170006IS2_JRKS2_EvEEvRS3_PT_DpOT0_, symObjAddr: 0x2087C, symBinAddr: 0x100025328, symSize: 0x34 }
  - { offsetInCU: 0x71F7F, offset: 0x71F7F, size: 0x8, addend: 0x0, symName: __ZNSt3__16vectorI10MeshVertexNS_9allocatorIS1_EEE7__allocB8ue170006Ev, symObjAddr: 0x208B0, symBinAddr: 0x10002535C, symSize: 0x28 }
  - { offsetInCU: 0x71FA5, offset: 0x71FA5, size: 0x8, addend: 0x0, symName: __ZNSt3__16vectorI10MeshVertexNS_9allocatorIS1_EEE21_ConstructTransactionD1B8ue170006Ev, symObjAddr: 0x208EC, symBinAddr: 0x100025398, symSize: 0x2C }
  - { offsetInCU: 0x71FCF, offset: 0x71FCF, size: 0x8, addend: 0x0, symName: __ZNSt3__16vectorI10MeshVertexNS_9allocatorIS1_EEE21_ConstructTransactionC2B8ue170006ERS4_m, symObjAddr: 0x20918, symBinAddr: 0x1000253C4, symSize: 0x4C }
  - { offsetInCU: 0x72017, offset: 0x72017, size: 0x8, addend: 0x0, symName: __ZNSt3__19allocatorI10MeshVertexE9constructB8ue170006IS1_JRKS1_EEEvPT_DpOT0_, symObjAddr: 0x20964, symBinAddr: 0x100025410, symSize: 0x34 }
  - { offsetInCU: 0x7206D, offset: 0x7206D, size: 0x8, addend: 0x0, symName: __ZNSt3__117__compressed_pairIP10MeshVertexNS_9allocatorIS1_EEE6secondB8ue170006Ev, symObjAddr: 0x20998, symBinAddr: 0x100025444, symSize: 0x24 }
  - { offsetInCU: 0x72093, offset: 0x72093, size: 0x8, addend: 0x0, symName: __ZNSt3__122__compressed_pair_elemINS_9allocatorI10MeshVertexEELi1ELb1EE5__getB8ue170006Ev, symObjAddr: 0x209BC, symBinAddr: 0x100025468, symSize: 0x14 }
  - { offsetInCU: 0x720B9, offset: 0x720B9, size: 0x8, addend: 0x0, symName: __ZNSt3__16vectorI10MeshVertexNS_9allocatorIS1_EEE21_ConstructTransactionD2B8ue170006Ev, symObjAddr: 0x209D0, symBinAddr: 0x10002547C, symSize: 0x20 }
  - { offsetInCU: 0x720E3, offset: 0x720E3, size: 0x8, addend: 0x0, symName: __ZNKSt3__16vectorI10MeshVertexNS_9allocatorIS1_EEE11__recommendB8ue170006Em, symObjAddr: 0x209F0, symBinAddr: 0x10002549C, symSize: 0xB4 }
  - { offsetInCU: 0x72138, offset: 0x72138, size: 0x8, addend: 0x0, symName: __ZNKSt3__16vectorI10MeshVertexNS_9allocatorIS1_EEE4sizeB8ue170006Ev, symObjAddr: 0x20AA4, symBinAddr: 0x100025550, symSize: 0x28 }
  - { offsetInCU: 0x7215E, offset: 0x7215E, size: 0x8, addend: 0x0, symName: __ZNSt3__114__split_bufferI10MeshVertexRNS_9allocatorIS1_EEEC1EmmS4_, symObjAddr: 0x20ACC, symBinAddr: 0x100025578, symSize: 0x44 }
  - { offsetInCU: 0x721B4, offset: 0x721B4, size: 0x8, addend: 0x0, symName: __ZNSt3__114__split_bufferI10MeshVertexRNS_9allocatorIS1_EEED1Ev, symObjAddr: 0x20C20, symBinAddr: 0x1000256CC, symSize: 0x2C }
  - { offsetInCU: 0x721E0, offset: 0x721E0, size: 0x8, addend: 0x0, symName: __ZNKSt3__16vectorI10MeshVertexNS_9allocatorIS1_EEE8max_sizeEv, symObjAddr: 0x20C4C, symBinAddr: 0x1000256F8, symSize: 0x60 }
  - { offsetInCU: 0x72208, offset: 0x72208, size: 0x8, addend: 0x0, symName: __ZNKSt3__16vectorI10MeshVertexNS_9allocatorIS1_EEE20__throw_length_errorB8ue170006Ev, symObjAddr: 0x20CAC, symBinAddr: 0x100025758, symSize: 0x1C }
  - { offsetInCU: 0x7222E, offset: 0x7222E, size: 0x8, addend: 0x0, symName: __ZNKSt3__16vectorI10MeshVertexNS_9allocatorIS1_EEE8capacityB8ue170006Ev, symObjAddr: 0x20CC8, symBinAddr: 0x100025774, symSize: 0x40 }
  - { offsetInCU: 0x7225E, offset: 0x7225E, size: 0x8, addend: 0x0, symName: __ZNSt3__116allocator_traitsINS_9allocatorI10MeshVertexEEE8max_sizeB8ue170006IS3_vEEmRKS3_, symObjAddr: 0x20D08, symBinAddr: 0x1000257B4, symSize: 0x24 }
  - { offsetInCU: 0x7228C, offset: 0x7228C, size: 0x8, addend: 0x0, symName: __ZNKSt3__16vectorI10MeshVertexNS_9allocatorIS1_EEE7__allocB8ue170006Ev, symObjAddr: 0x20D2C, symBinAddr: 0x1000257D8, symSize: 0x28 }
  - { offsetInCU: 0x722B2, offset: 0x722B2, size: 0x8, addend: 0x0, symName: __ZNKSt3__19allocatorI10MeshVertexE8max_sizeB8ue170006Ev, symObjAddr: 0x20D54, symBinAddr: 0x100025800, symSize: 0x20 }
  - { offsetInCU: 0x722D8, offset: 0x722D8, size: 0x8, addend: 0x0, symName: __ZNKSt3__117__compressed_pairIP10MeshVertexNS_9allocatorIS1_EEE6secondB8ue170006Ev, symObjAddr: 0x20D74, symBinAddr: 0x100025820, symSize: 0x24 }
  - { offsetInCU: 0x722FE, offset: 0x722FE, size: 0x8, addend: 0x0, symName: __ZNKSt3__122__compressed_pair_elemINS_9allocatorI10MeshVertexEELi1ELb1EE5__getB8ue170006Ev, symObjAddr: 0x20D98, symBinAddr: 0x100025844, symSize: 0x14 }
  - { offsetInCU: 0x72324, offset: 0x72324, size: 0x8, addend: 0x0, symName: __ZNKSt3__16vectorI10MeshVertexNS_9allocatorIS1_EEE9__end_capB8ue170006Ev, symObjAddr: 0x20DAC, symBinAddr: 0x100025858, symSize: 0x28 }
  - { offsetInCU: 0x7234A, offset: 0x7234A, size: 0x8, addend: 0x0, symName: __ZNKSt3__117__compressed_pairIP10MeshVertexNS_9allocatorIS1_EEE5firstB8ue170006Ev, symObjAddr: 0x20DD4, symBinAddr: 0x100025880, symSize: 0x24 }
  - { offsetInCU: 0x72370, offset: 0x72370, size: 0x8, addend: 0x0, symName: __ZNKSt3__122__compressed_pair_elemIP10MeshVertexLi0ELb0EE5__getB8ue170006Ev, symObjAddr: 0x20DF8, symBinAddr: 0x1000258A4, symSize: 0x14 }
  - { offsetInCU: 0x72396, offset: 0x72396, size: 0x8, addend: 0x0, symName: __ZNSt3__114__split_bufferI10MeshVertexRNS_9allocatorIS1_EEEC2EmmS4_, symObjAddr: 0x20E0C, symBinAddr: 0x1000258B8, symSize: 0xE0 }
  - { offsetInCU: 0x7240A, offset: 0x7240A, size: 0x8, addend: 0x0, symName: __ZNSt3__117__compressed_pairIP10MeshVertexRNS_9allocatorIS1_EEEC1B8ue170006IDnS5_EEOT_OT0_, symObjAddr: 0x20EEC, symBinAddr: 0x100025998, symSize: 0x3C }
  - { offsetInCU: 0x72462, offset: 0x72462, size: 0x8, addend: 0x0, symName: __ZNSt3__114__split_bufferI10MeshVertexRNS_9allocatorIS1_EEE7__allocB8ue170006Ev, symObjAddr: 0x20F68, symBinAddr: 0x100025A14, symSize: 0x28 }
  - { offsetInCU: 0x72488, offset: 0x72488, size: 0x8, addend: 0x0, symName: __ZNSt3__114__split_bufferI10MeshVertexRNS_9allocatorIS1_EEE9__end_capB8ue170006Ev, symObjAddr: 0x20F90, symBinAddr: 0x100025A3C, symSize: 0x28 }
  - { offsetInCU: 0x724AE, offset: 0x724AE, size: 0x8, addend: 0x0, symName: __ZNSt3__117__compressed_pairIP10MeshVertexRNS_9allocatorIS1_EEEC2B8ue170006IDnS5_EEOT_OT0_, symObjAddr: 0x20FB8, symBinAddr: 0x100025A64, symSize: 0x48 }
  - { offsetInCU: 0x72506, offset: 0x72506, size: 0x8, addend: 0x0, symName: __ZNSt3__122__compressed_pair_elemIRNS_9allocatorI10MeshVertexEELi1ELb0EEC2B8ue170006IS4_vEEOT_, symObjAddr: 0x21000, symBinAddr: 0x100025AAC, symSize: 0x20 }
  - { offsetInCU: 0x72548, offset: 0x72548, size: 0x8, addend: 0x0, symName: __ZNSt3__19allocatorI10MeshVertexE8allocateB8ue170006Em, symObjAddr: 0x21020, symBinAddr: 0x100025ACC, symSize: 0x5C }
  - { offsetInCU: 0x7257C, offset: 0x7257C, size: 0x8, addend: 0x0, symName: __ZNSt3__117__compressed_pairIP10MeshVertexRNS_9allocatorIS1_EEE6secondB8ue170006Ev, symObjAddr: 0x2107C, symBinAddr: 0x100025B28, symSize: 0x28 }
  - { offsetInCU: 0x725A2, offset: 0x725A2, size: 0x8, addend: 0x0, symName: __ZNSt3__122__compressed_pair_elemIRNS_9allocatorI10MeshVertexEELi1ELb0EE5__getB8ue170006Ev, symObjAddr: 0x210A4, symBinAddr: 0x100025B50, symSize: 0x18 }
  - { offsetInCU: 0x725C8, offset: 0x725C8, size: 0x8, addend: 0x0, symName: __ZNSt3__117__compressed_pairIP10MeshVertexRNS_9allocatorIS1_EEE5firstB8ue170006Ev, symObjAddr: 0x210BC, symBinAddr: 0x100025B68, symSize: 0x24 }
  - { offsetInCU: 0x725EE, offset: 0x725EE, size: 0x8, addend: 0x0, symName: __ZNKSt3__16vectorI10MeshVertexNS_9allocatorIS1_EEE17__annotate_deleteB8ue170006Ev, symObjAddr: 0x210E0, symBinAddr: 0x100025B8C, symSize: 0xD4 }
  - { offsetInCU: 0x72614, offset: 0x72614, size: 0x8, addend: 0x0, symName: __ZNSt3__116reverse_iteratorIP10MeshVertexEC1B8ue170006ES2_, symObjAddr: 0x2122C, symBinAddr: 0x100025CD8, symSize: 0x34 }
  - { offsetInCU: 0x7264C, offset: 0x7264C, size: 0x8, addend: 0x0, symName: __ZNKSt3__116reverse_iteratorIP10MeshVertexE4baseB8ue170006Ev, symObjAddr: 0x21260, symBinAddr: 0x100025D0C, symSize: 0x18 }
  - { offsetInCU: 0x72672, offset: 0x72672, size: 0x8, addend: 0x0, symName: __ZNKSt3__16vectorI10MeshVertexNS_9allocatorIS1_EEE14__annotate_newB8ue170006Em, symObjAddr: 0x212B4, symBinAddr: 0x100025D60, symSize: 0xC8 }
  - { offsetInCU: 0x726A7, offset: 0x726A7, size: 0x8, addend: 0x0, symName: __ZNKSt3__16vectorI10MeshVertexNS_9allocatorIS1_EEE31__annotate_contiguous_containerB8ue170006EPKvS6_S6_S6_, symObjAddr: 0x2137C, symBinAddr: 0x100025E28, symSize: 0x20 }
  - { offsetInCU: 0x726FD, offset: 0x726FD, size: 0x8, addend: 0x0, symName: __ZNKSt3__16vectorI10MeshVertexNS_9allocatorIS1_EEE4dataB8ue170006Ev, symObjAddr: 0x2139C, symBinAddr: 0x100025E48, symSize: 0x28 }
  - { offsetInCU: 0x72747, offset: 0x72747, size: 0x8, addend: 0x0, symName: __ZNKSt3__111__move_loopINS_17_ClassicAlgPolicyEEclB8ue170006INS_16reverse_iteratorIP10MeshVertexEES7_S7_EENS_4pairIT_T1_EES9_T0_SA_, symObjAddr: 0x216B4, symBinAddr: 0x100026160, symSize: 0x9C }
  - { offsetInCU: 0x727B8, offset: 0x727B8, size: 0x8, addend: 0x0, symName: __ZNSt3__18_IterOpsINS_17_ClassicAlgPolicyEE11__iter_moveB8ue170006IRNS_16reverse_iteratorIP10MeshVertexEEEENS_9enable_ifIXsr12is_referenceIDTdeclsr3stdE7declvalIRT_EEEEE5valueEDTclsr3stdE4movedeclsr3stdE7declvalISB_EEEEE4typeEOSA_, symObjAddr: 0x218E4, symBinAddr: 0x100026390, symSize: 0x28 }
  - { offsetInCU: 0x727E4, offset: 0x727E4, size: 0x8, addend: 0x0, symName: __ZNKSt3__116reverse_iteratorIP10MeshVertexEdeB8ue170006Ev, symObjAddr: 0x2190C, symBinAddr: 0x1000263B8, symSize: 0x28 }
  - { offsetInCU: 0x72818, offset: 0x72818, size: 0x8, addend: 0x0, symName: __ZNSt3__116reverse_iteratorIP10MeshVertexEppB8ue170006Ev, symObjAddr: 0x21934, symBinAddr: 0x1000263E0, symSize: 0x20 }
  - { offsetInCU: 0x7283E, offset: 0x7283E, size: 0x8, addend: 0x0, symName: __ZNSt3__18_IterOpsINS_17_ClassicAlgPolicyEE25__validate_iter_referenceB8ue170006IRNS_16reverse_iteratorIP10MeshVertexEEEEvv, symObjAddr: 0x21954, symBinAddr: 0x100026400, symSize: 0x4 }
  - { offsetInCU: 0x7285C, offset: 0x7285C, size: 0x8, addend: 0x0, symName: __ZNSt3__118__unwrap_iter_implINS_16reverse_iteratorIP10MeshVertexEELb0EE8__unwrapB8ue170006ES4_, symObjAddr: 0x21958, symBinAddr: 0x100026404, symSize: 0x24 }
  - { offsetInCU: 0x72885, offset: 0x72885, size: 0x8, addend: 0x0, symName: __ZNSt3__14pairINS_16reverse_iteratorIP10MeshVertexEES4_EC1B8ue170006IS4_S4_LPv0EEEOT_OT0_, symObjAddr: 0x2197C, symBinAddr: 0x100026428, symSize: 0x3C }
  - { offsetInCU: 0x728E3, offset: 0x728E3, size: 0x8, addend: 0x0, symName: __ZNSt3__14pairINS_16reverse_iteratorIP10MeshVertexEES4_EC2B8ue170006IS4_S4_LPv0EEEOT_OT0_, symObjAddr: 0x219B8, symBinAddr: 0x100026464, symSize: 0x34 }
  - { offsetInCU: 0x72941, offset: 0x72941, size: 0x8, addend: 0x0, symName: __ZNSt3__118__unwrap_iter_implINS_16reverse_iteratorIP10MeshVertexEELb0EE8__rewrapB8ue170006ES4_S4_, symObjAddr: 0x219EC, symBinAddr: 0x100026498, symSize: 0x2C }
  - { offsetInCU: 0x7296F, offset: 0x7296F, size: 0x8, addend: 0x0, symName: __ZNSt3__116reverse_iteratorIP10MeshVertexEC2B8ue170006ES2_, symObjAddr: 0x21A18, symBinAddr: 0x1000264C4, symSize: 0x28 }
  - { offsetInCU: 0x729A7, offset: 0x729A7, size: 0x8, addend: 0x0, symName: __ZNSt3__114__split_bufferI10MeshVertexRNS_9allocatorIS1_EEED2Ev, symObjAddr: 0x21A40, symBinAddr: 0x1000264EC, symSize: 0x8C }
  - { offsetInCU: 0x729D3, offset: 0x729D3, size: 0x8, addend: 0x0, symName: __ZNSt3__114__split_bufferI10MeshVertexRNS_9allocatorIS1_EEE5clearB8ue170006Ev, symObjAddr: 0x21ACC, symBinAddr: 0x100026578, symSize: 0x28 }
  - { offsetInCU: 0x729F9, offset: 0x729F9, size: 0x8, addend: 0x0, symName: __ZNSt3__116allocator_traitsINS_9allocatorI10MeshVertexEEE10deallocateB8ue170006ERS3_PS2_m, symObjAddr: 0x21AF4, symBinAddr: 0x1000265A0, symSize: 0x34 }
  - { offsetInCU: 0x72A3B, offset: 0x72A3B, size: 0x8, addend: 0x0, symName: __ZNKSt3__114__split_bufferI10MeshVertexRNS_9allocatorIS1_EEE8capacityB8ue170006Ev, symObjAddr: 0x21B28, symBinAddr: 0x1000265D4, symSize: 0x40 }
  - { offsetInCU: 0x72A61, offset: 0x72A61, size: 0x8, addend: 0x0, symName: __ZNSt3__114__split_bufferI10MeshVertexRNS_9allocatorIS1_EEE17__destruct_at_endB8ue170006EPS1_, symObjAddr: 0x21B68, symBinAddr: 0x100026614, symSize: 0x2C }
  - { offsetInCU: 0x72A95, offset: 0x72A95, size: 0x8, addend: 0x0, symName: __ZNSt3__114__split_bufferI10MeshVertexRNS_9allocatorIS1_EEE17__destruct_at_endB8ue170006EPS1_NS_17integral_constantIbLb0EEE, symObjAddr: 0x21B94, symBinAddr: 0x100026640, symSize: 0x80 }
  - { offsetInCU: 0x72AD6, offset: 0x72AD6, size: 0x8, addend: 0x0, symName: __ZNSt3__116allocator_traitsINS_9allocatorI10MeshVertexEEE7destroyB8ue170006IS2_vEEvRS3_PT_, symObjAddr: 0x21C14, symBinAddr: 0x1000266C0, symSize: 0x2C }
  - { offsetInCU: 0x72B13, offset: 0x72B13, size: 0x8, addend: 0x0, symName: __ZNSt3__19allocatorI10MeshVertexE7destroyB8ue170006EPS1_, symObjAddr: 0x21C40, symBinAddr: 0x1000266EC, symSize: 0x14 }
  - { offsetInCU: 0x72B47, offset: 0x72B47, size: 0x8, addend: 0x0, symName: __ZNSt3__19allocatorI10MeshVertexE10deallocateB8ue170006EPS1_m, symObjAddr: 0x21C54, symBinAddr: 0x100026700, symSize: 0x44 }
  - { offsetInCU: 0x72B89, offset: 0x72B89, size: 0x8, addend: 0x0, symName: __ZNKSt3__114__split_bufferI10MeshVertexRNS_9allocatorIS1_EEE9__end_capB8ue170006Ev, symObjAddr: 0x21C98, symBinAddr: 0x100026744, symSize: 0x28 }
  - { offsetInCU: 0x72BAF, offset: 0x72BAF, size: 0x8, addend: 0x0, symName: __ZNKSt3__117__compressed_pairIP10MeshVertexRNS_9allocatorIS1_EEE5firstB8ue170006Ev, symObjAddr: 0x21CC0, symBinAddr: 0x10002676C, symSize: 0x24 }
  - { offsetInCU: 0x72BD5, offset: 0x72BD5, size: 0x8, addend: 0x0, symName: __ZN6aiFaceC2ERKS_, symObjAddr: 0x21CE4, symBinAddr: 0x100026790, symSize: 0x3C }
  - { offsetInCU: 0x72C0D, offset: 0x72C0D, size: 0x8, addend: 0x0, symName: __ZN6aiFaceaSERKS_, symObjAddr: 0x21D20, symBinAddr: 0x1000267CC, symSize: 0x100 }
  - { offsetInCU: 0x72C41, offset: 0x72C41, size: 0x8, addend: 0x0, symName: __ZNSt3__16vectorIjNS_9allocatorIjEEE9__end_capB8ue170006Ev, symObjAddr: 0x21E20, symBinAddr: 0x1000268CC, symSize: 0x28 }
  - { offsetInCU: 0x72C67, offset: 0x72C67, size: 0x8, addend: 0x0, symName: __ZNSt3__16vectorIjNS_9allocatorIjEEE22__construct_one_at_endB8ue170006IJRKjEEEvDpOT_, symObjAddr: 0x21E48, symBinAddr: 0x1000268F4, symSize: 0x90 }
  - { offsetInCU: 0x72CB6, offset: 0x72CB6, size: 0x8, addend: 0x0, symName: __ZNSt3__16vectorIjNS_9allocatorIjEEE21__push_back_slow_pathIRKjEEvOT_, symObjAddr: 0x21ED8, symBinAddr: 0x100026984, symSize: 0xD8 }
  - { offsetInCU: 0x72D14, offset: 0x72D14, size: 0x8, addend: 0x0, symName: __ZNSt3__117__compressed_pairIPjNS_9allocatorIjEEE5firstB8ue170006Ev, symObjAddr: 0x21FB0, symBinAddr: 0x100026A5C, symSize: 0x24 }
  - { offsetInCU: 0x72D3A, offset: 0x72D3A, size: 0x8, addend: 0x0, symName: __ZNSt3__122__compressed_pair_elemIPjLi0ELb0EE5__getB8ue170006Ev, symObjAddr: 0x21FD4, symBinAddr: 0x100026A80, symSize: 0x14 }
  - { offsetInCU: 0x72D79, offset: 0x72D79, size: 0x8, addend: 0x0, symName: __ZNSt3__16vectorIjNS_9allocatorIjEEE21_ConstructTransactionC1B8ue170006ERS3_m, symObjAddr: 0x21FE8, symBinAddr: 0x100026A94, symSize: 0x3C }
  - { offsetInCU: 0x72DC1, offset: 0x72DC1, size: 0x8, addend: 0x0, symName: __ZNSt3__116allocator_traitsINS_9allocatorIjEEE9constructB8ue170006IjJRKjEvEEvRS2_PT_DpOT0_, symObjAddr: 0x22024, symBinAddr: 0x100026AD0, symSize: 0x34 }
  - { offsetInCU: 0x72E18, offset: 0x72E18, size: 0x8, addend: 0x0, symName: __ZNSt3__16vectorIjNS_9allocatorIjEEE7__allocB8ue170006Ev, symObjAddr: 0x22058, symBinAddr: 0x100026B04, symSize: 0x28 }
  - { offsetInCU: 0x72E3E, offset: 0x72E3E, size: 0x8, addend: 0x0, symName: __ZNSt3__16vectorIjNS_9allocatorIjEEE21_ConstructTransactionD1B8ue170006Ev, symObjAddr: 0x22094, symBinAddr: 0x100026B40, symSize: 0x2C }
  - { offsetInCU: 0x72E68, offset: 0x72E68, size: 0x8, addend: 0x0, symName: __ZNSt3__16vectorIjNS_9allocatorIjEEE21_ConstructTransactionC2B8ue170006ERS3_m, symObjAddr: 0x220C0, symBinAddr: 0x100026B6C, symSize: 0x44 }
  - { offsetInCU: 0x72EB0, offset: 0x72EB0, size: 0x8, addend: 0x0, symName: __ZNSt3__19allocatorIjE9constructB8ue170006IjJRKjEEEvPT_DpOT0_, symObjAddr: 0x22104, symBinAddr: 0x100026BB0, symSize: 0x28 }
  - { offsetInCU: 0x72F06, offset: 0x72F06, size: 0x8, addend: 0x0, symName: __ZNSt3__117__compressed_pairIPjNS_9allocatorIjEEE6secondB8ue170006Ev, symObjAddr: 0x2212C, symBinAddr: 0x100026BD8, symSize: 0x24 }
  - { offsetInCU: 0x72F2C, offset: 0x72F2C, size: 0x8, addend: 0x0, symName: __ZNSt3__122__compressed_pair_elemINS_9allocatorIjEELi1ELb1EE5__getB8ue170006Ev, symObjAddr: 0x22150, symBinAddr: 0x100026BFC, symSize: 0x14 }
  - { offsetInCU: 0x72F52, offset: 0x72F52, size: 0x8, addend: 0x0, symName: __ZNSt3__16vectorIjNS_9allocatorIjEEE21_ConstructTransactionD2B8ue170006Ev, symObjAddr: 0x22164, symBinAddr: 0x100026C10, symSize: 0x20 }
  - { offsetInCU: 0x72F7C, offset: 0x72F7C, size: 0x8, addend: 0x0, symName: __ZNKSt3__16vectorIjNS_9allocatorIjEEE11__recommendB8ue170006Em, symObjAddr: 0x22184, symBinAddr: 0x100026C30, symSize: 0xB4 }
  - { offsetInCU: 0x72FD1, offset: 0x72FD1, size: 0x8, addend: 0x0, symName: __ZNKSt3__16vectorIjNS_9allocatorIjEEE4sizeB8ue170006Ev, symObjAddr: 0x22238, symBinAddr: 0x100026CE4, symSize: 0x28 }
  - { offsetInCU: 0x72FF7, offset: 0x72FF7, size: 0x8, addend: 0x0, symName: __ZNSt3__114__split_bufferIjRNS_9allocatorIjEEEC1EmmS3_, symObjAddr: 0x22260, symBinAddr: 0x100026D0C, symSize: 0x44 }
  - { offsetInCU: 0x7304D, offset: 0x7304D, size: 0x8, addend: 0x0, symName: __ZNSt3__114__split_bufferIjRNS_9allocatorIjEEED1Ev, symObjAddr: 0x223B4, symBinAddr: 0x100026E60, symSize: 0x2C }
  - { offsetInCU: 0x73079, offset: 0x73079, size: 0x8, addend: 0x0, symName: __ZNKSt3__16vectorIjNS_9allocatorIjEEE8max_sizeEv, symObjAddr: 0x223E0, symBinAddr: 0x100026E8C, symSize: 0x60 }
  - { offsetInCU: 0x730A1, offset: 0x730A1, size: 0x8, addend: 0x0, symName: __ZNKSt3__16vectorIjNS_9allocatorIjEEE20__throw_length_errorB8ue170006Ev, symObjAddr: 0x22440, symBinAddr: 0x100026EEC, symSize: 0x1C }
  - { offsetInCU: 0x730C7, offset: 0x730C7, size: 0x8, addend: 0x0, symName: __ZNKSt3__16vectorIjNS_9allocatorIjEEE8capacityB8ue170006Ev, symObjAddr: 0x2245C, symBinAddr: 0x100026F08, symSize: 0x40 }
  - { offsetInCU: 0x730F7, offset: 0x730F7, size: 0x8, addend: 0x0, symName: __ZNSt3__116allocator_traitsINS_9allocatorIjEEE8max_sizeB8ue170006IS2_vEEmRKS2_, symObjAddr: 0x2249C, symBinAddr: 0x100026F48, symSize: 0x24 }
  - { offsetInCU: 0x73125, offset: 0x73125, size: 0x8, addend: 0x0, symName: __ZNKSt3__16vectorIjNS_9allocatorIjEEE7__allocB8ue170006Ev, symObjAddr: 0x224C0, symBinAddr: 0x100026F6C, symSize: 0x28 }
  - { offsetInCU: 0x7314B, offset: 0x7314B, size: 0x8, addend: 0x0, symName: __ZNKSt3__19allocatorIjE8max_sizeB8ue170006Ev, symObjAddr: 0x224E8, symBinAddr: 0x100026F94, symSize: 0x14 }
  - { offsetInCU: 0x73171, offset: 0x73171, size: 0x8, addend: 0x0, symName: __ZNKSt3__117__compressed_pairIPjNS_9allocatorIjEEE6secondB8ue170006Ev, symObjAddr: 0x224FC, symBinAddr: 0x100026FA8, symSize: 0x24 }
  - { offsetInCU: 0x73197, offset: 0x73197, size: 0x8, addend: 0x0, symName: __ZNKSt3__122__compressed_pair_elemINS_9allocatorIjEELi1ELb1EE5__getB8ue170006Ev, symObjAddr: 0x22520, symBinAddr: 0x100026FCC, symSize: 0x14 }
  - { offsetInCU: 0x731BD, offset: 0x731BD, size: 0x8, addend: 0x0, symName: __ZNKSt3__16vectorIjNS_9allocatorIjEEE9__end_capB8ue170006Ev, symObjAddr: 0x22534, symBinAddr: 0x100026FE0, symSize: 0x28 }
  - { offsetInCU: 0x731E3, offset: 0x731E3, size: 0x8, addend: 0x0, symName: __ZNKSt3__117__compressed_pairIPjNS_9allocatorIjEEE5firstB8ue170006Ev, symObjAddr: 0x2255C, symBinAddr: 0x100027008, symSize: 0x24 }
  - { offsetInCU: 0x73209, offset: 0x73209, size: 0x8, addend: 0x0, symName: __ZNKSt3__122__compressed_pair_elemIPjLi0ELb0EE5__getB8ue170006Ev, symObjAddr: 0x22580, symBinAddr: 0x10002702C, symSize: 0x14 }
  - { offsetInCU: 0x7322F, offset: 0x7322F, size: 0x8, addend: 0x0, symName: __ZNSt3__114__split_bufferIjRNS_9allocatorIjEEEC2EmmS3_, symObjAddr: 0x22594, symBinAddr: 0x100027040, symSize: 0xD4 }
  - { offsetInCU: 0x732A3, offset: 0x732A3, size: 0x8, addend: 0x0, symName: __ZNSt3__117__compressed_pairIPjRNS_9allocatorIjEEEC1B8ue170006IDnS4_EEOT_OT0_, symObjAddr: 0x22668, symBinAddr: 0x100027114, symSize: 0x3C }
  - { offsetInCU: 0x732FB, offset: 0x732FB, size: 0x8, addend: 0x0, symName: __ZNSt3__114__split_bufferIjRNS_9allocatorIjEEE7__allocB8ue170006Ev, symObjAddr: 0x226E4, symBinAddr: 0x100027190, symSize: 0x28 }
  - { offsetInCU: 0x73321, offset: 0x73321, size: 0x8, addend: 0x0, symName: __ZNSt3__114__split_bufferIjRNS_9allocatorIjEEE9__end_capB8ue170006Ev, symObjAddr: 0x2270C, symBinAddr: 0x1000271B8, symSize: 0x28 }
  - { offsetInCU: 0x73347, offset: 0x73347, size: 0x8, addend: 0x0, symName: __ZNSt3__117__compressed_pairIPjRNS_9allocatorIjEEEC2B8ue170006IDnS4_EEOT_OT0_, symObjAddr: 0x22734, symBinAddr: 0x1000271E0, symSize: 0x48 }
  - { offsetInCU: 0x7339F, offset: 0x7339F, size: 0x8, addend: 0x0, symName: __ZNSt3__122__compressed_pair_elemIRNS_9allocatorIjEELi1ELb0EEC2B8ue170006IS3_vEEOT_, symObjAddr: 0x2277C, symBinAddr: 0x100027228, symSize: 0x20 }
  - { offsetInCU: 0x733E1, offset: 0x733E1, size: 0x8, addend: 0x0, symName: __ZNSt3__19allocatorIjE8allocateB8ue170006Em, symObjAddr: 0x2279C, symBinAddr: 0x100027248, symSize: 0x58 }
  - { offsetInCU: 0x73415, offset: 0x73415, size: 0x8, addend: 0x0, symName: __ZNSt3__117__compressed_pairIPjRNS_9allocatorIjEEE6secondB8ue170006Ev, symObjAddr: 0x227F4, symBinAddr: 0x1000272A0, symSize: 0x28 }
  - { offsetInCU: 0x7343B, offset: 0x7343B, size: 0x8, addend: 0x0, symName: __ZNSt3__122__compressed_pair_elemIRNS_9allocatorIjEELi1ELb0EE5__getB8ue170006Ev, symObjAddr: 0x2281C, symBinAddr: 0x1000272C8, symSize: 0x18 }
  - { offsetInCU: 0x73461, offset: 0x73461, size: 0x8, addend: 0x0, symName: __ZNSt3__117__compressed_pairIPjRNS_9allocatorIjEEE5firstB8ue170006Ev, symObjAddr: 0x22834, symBinAddr: 0x1000272E0, symSize: 0x24 }
  - { offsetInCU: 0x73487, offset: 0x73487, size: 0x8, addend: 0x0, symName: __ZNKSt3__16vectorIjNS_9allocatorIjEEE17__annotate_deleteB8ue170006Ev, symObjAddr: 0x22858, symBinAddr: 0x100027304, symSize: 0xB8 }
  - { offsetInCU: 0x734AD, offset: 0x734AD, size: 0x8, addend: 0x0, symName: __ZNSt3__116reverse_iteratorIPjEC1B8ue170006ES1_, symObjAddr: 0x22988, symBinAddr: 0x100027434, symSize: 0x34 }
  - { offsetInCU: 0x734E5, offset: 0x734E5, size: 0x8, addend: 0x0, symName: __ZNKSt3__116reverse_iteratorIPjE4baseB8ue170006Ev, symObjAddr: 0x229BC, symBinAddr: 0x100027468, symSize: 0x18 }
  - { offsetInCU: 0x7350B, offset: 0x7350B, size: 0x8, addend: 0x0, symName: __ZNKSt3__16vectorIjNS_9allocatorIjEEE14__annotate_newB8ue170006Em, symObjAddr: 0x22A10, symBinAddr: 0x1000274BC, symSize: 0xAC }
  - { offsetInCU: 0x73540, offset: 0x73540, size: 0x8, addend: 0x0, symName: __ZNKSt3__16vectorIjNS_9allocatorIjEEE31__annotate_contiguous_containerB8ue170006EPKvS5_S5_S5_, symObjAddr: 0x22ABC, symBinAddr: 0x100027568, symSize: 0x20 }
  - { offsetInCU: 0x73596, offset: 0x73596, size: 0x8, addend: 0x0, symName: __ZNKSt3__16vectorIjNS_9allocatorIjEEE4dataB8ue170006Ev, symObjAddr: 0x22ADC, symBinAddr: 0x100027588, symSize: 0x28 }
  - { offsetInCU: 0x735D6, offset: 0x735D6, size: 0x8, addend: 0x0, symName: __ZNKSt3__111__move_loopINS_17_ClassicAlgPolicyEEclB8ue170006INS_16reverse_iteratorIPjEES6_S6_EENS_4pairIT_T1_EES8_T0_S9_, symObjAddr: 0x22DF4, symBinAddr: 0x1000278A0, symSize: 0xA0 }
  - { offsetInCU: 0x73647, offset: 0x73647, size: 0x8, addend: 0x0, symName: __ZNSt3__18_IterOpsINS_17_ClassicAlgPolicyEE11__iter_moveB8ue170006IRNS_16reverse_iteratorIPjEEEENS_9enable_ifIXsr12is_referenceIDTdeclsr3stdE7declvalIRT_EEEEE5valueEDTclsr3stdE4movedeclsr3stdE7declvalISA_EEEEE4typeEOS9_, symObjAddr: 0x23028, symBinAddr: 0x100027AD4, symSize: 0x28 }
  - { offsetInCU: 0x73673, offset: 0x73673, size: 0x8, addend: 0x0, symName: __ZNKSt3__116reverse_iteratorIPjEdeB8ue170006Ev, symObjAddr: 0x23050, symBinAddr: 0x100027AFC, symSize: 0x28 }
  - { offsetInCU: 0x736A7, offset: 0x736A7, size: 0x8, addend: 0x0, symName: __ZNSt3__116reverse_iteratorIPjEppB8ue170006Ev, symObjAddr: 0x23078, symBinAddr: 0x100027B24, symSize: 0x20 }
  - { offsetInCU: 0x736CD, offset: 0x736CD, size: 0x8, addend: 0x0, symName: __ZNSt3__18_IterOpsINS_17_ClassicAlgPolicyEE25__validate_iter_referenceB8ue170006IRNS_16reverse_iteratorIPjEEEEvv, symObjAddr: 0x23098, symBinAddr: 0x100027B44, symSize: 0x4 }
  - { offsetInCU: 0x736EB, offset: 0x736EB, size: 0x8, addend: 0x0, symName: __ZNSt3__118__unwrap_iter_implINS_16reverse_iteratorIPjEELb0EE8__unwrapB8ue170006ES3_, symObjAddr: 0x2309C, symBinAddr: 0x100027B48, symSize: 0x24 }
  - { offsetInCU: 0x73714, offset: 0x73714, size: 0x8, addend: 0x0, symName: __ZNSt3__14pairINS_16reverse_iteratorIPjEES3_EC1B8ue170006IS3_S3_LPv0EEEOT_OT0_, symObjAddr: 0x230C0, symBinAddr: 0x100027B6C, symSize: 0x3C }
  - { offsetInCU: 0x73772, offset: 0x73772, size: 0x8, addend: 0x0, symName: __ZNSt3__14pairINS_16reverse_iteratorIPjEES3_EC2B8ue170006IS3_S3_LPv0EEEOT_OT0_, symObjAddr: 0x230FC, symBinAddr: 0x100027BA8, symSize: 0x34 }
  - { offsetInCU: 0x737D0, offset: 0x737D0, size: 0x8, addend: 0x0, symName: __ZNSt3__118__unwrap_iter_implINS_16reverse_iteratorIPjEELb0EE8__rewrapB8ue170006ES3_S3_, symObjAddr: 0x23130, symBinAddr: 0x100027BDC, symSize: 0x2C }
  - { offsetInCU: 0x737FE, offset: 0x737FE, size: 0x8, addend: 0x0, symName: __ZNSt3__116reverse_iteratorIPjEC2B8ue170006ES1_, symObjAddr: 0x2315C, symBinAddr: 0x100027C08, symSize: 0x28 }
  - { offsetInCU: 0x73836, offset: 0x73836, size: 0x8, addend: 0x0, symName: __ZNSt3__114__split_bufferIjRNS_9allocatorIjEEED2Ev, symObjAddr: 0x23184, symBinAddr: 0x100027C30, symSize: 0x8C }
  - { offsetInCU: 0x73862, offset: 0x73862, size: 0x8, addend: 0x0, symName: __ZNSt3__114__split_bufferIjRNS_9allocatorIjEEE5clearB8ue170006Ev, symObjAddr: 0x23210, symBinAddr: 0x100027CBC, symSize: 0x28 }
  - { offsetInCU: 0x73888, offset: 0x73888, size: 0x8, addend: 0x0, symName: __ZNSt3__116allocator_traitsINS_9allocatorIjEEE10deallocateB8ue170006ERS2_Pjm, symObjAddr: 0x23238, symBinAddr: 0x100027CE4, symSize: 0x34 }
  - { offsetInCU: 0x738CA, offset: 0x738CA, size: 0x8, addend: 0x0, symName: __ZNKSt3__114__split_bufferIjRNS_9allocatorIjEEE8capacityB8ue170006Ev, symObjAddr: 0x2326C, symBinAddr: 0x100027D18, symSize: 0x40 }
  - { offsetInCU: 0x738F0, offset: 0x738F0, size: 0x8, addend: 0x0, symName: __ZNSt3__114__split_bufferIjRNS_9allocatorIjEEE17__destruct_at_endB8ue170006EPj, symObjAddr: 0x232AC, symBinAddr: 0x100027D58, symSize: 0x2C }
  - { offsetInCU: 0x73924, offset: 0x73924, size: 0x8, addend: 0x0, symName: __ZNSt3__114__split_bufferIjRNS_9allocatorIjEEE17__destruct_at_endB8ue170006EPjNS_17integral_constantIbLb0EEE, symObjAddr: 0x232D8, symBinAddr: 0x100027D84, symSize: 0x80 }
  - { offsetInCU: 0x73965, offset: 0x73965, size: 0x8, addend: 0x0, symName: __ZNSt3__116allocator_traitsINS_9allocatorIjEEE7destroyB8ue170006IjvEEvRS2_PT_, symObjAddr: 0x23358, symBinAddr: 0x100027E04, symSize: 0x2C }
  - { offsetInCU: 0x739A2, offset: 0x739A2, size: 0x8, addend: 0x0, symName: __ZNSt3__19allocatorIjE7destroyB8ue170006EPj, symObjAddr: 0x23384, symBinAddr: 0x100027E30, symSize: 0x14 }
  - { offsetInCU: 0x739D6, offset: 0x739D6, size: 0x8, addend: 0x0, symName: __ZNSt3__19allocatorIjE10deallocateB8ue170006EPjm, symObjAddr: 0x23398, symBinAddr: 0x100027E44, symSize: 0x40 }
  - { offsetInCU: 0x73A18, offset: 0x73A18, size: 0x8, addend: 0x0, symName: __ZNKSt3__114__split_bufferIjRNS_9allocatorIjEEE9__end_capB8ue170006Ev, symObjAddr: 0x233D8, symBinAddr: 0x100027E84, symSize: 0x28 }
  - { offsetInCU: 0x73A3E, offset: 0x73A3E, size: 0x8, addend: 0x0, symName: __ZNKSt3__117__compressed_pairIPjRNS_9allocatorIjEEE5firstB8ue170006Ev, symObjAddr: 0x23400, symBinAddr: 0x100027EAC, symSize: 0x24 }
  - { offsetInCU: 0x73A64, offset: 0x73A64, size: 0x8, addend: 0x0, symName: __ZN6aiFaceD2Ev, symObjAddr: 0x23424, symBinAddr: 0x100027ED0, symSize: 0x50 }
  - { offsetInCU: 0x73A8E, offset: 0x73A8E, size: 0x8, addend: 0x0, symName: __ZN8aiStringC1Ev, symObjAddr: 0x23474, symBinAddr: 0x100027F20, symSize: 0x2C }
  - { offsetInCU: 0x73AB8, offset: 0x73AB8, size: 0x8, addend: 0x0, symName: __ZNK10aiMaterial10GetTextureE13aiTextureTypejP8aiStringP16aiTextureMappingPjPfP11aiTextureOpP16aiTextureMapMode, symObjAddr: 0x234A0, symBinAddr: 0x100027F4C, symSize: 0x74 }
  - { offsetInCU: 0x73B50, offset: 0x73B50, size: 0x8, addend: 0x0, symName: __ZNKSt3__111__wrap_iterIPNS_10shared_ptrI3TexEEEdeB8ue170006Ev, symObjAddr: 0x23548, symBinAddr: 0x100027FF4, symSize: 0x18 }
  - { offsetInCU: 0x73B76, offset: 0x73B76, size: 0x8, addend: 0x0, symName: __ZNK8aiString5C_StrEv, symObjAddr: 0x236B0, symBinAddr: 0x10002815C, symSize: 0x18 }
  - { offsetInCU: 0x73B9C, offset: 0x73B9C, size: 0x8, addend: 0x0, symName: __ZNSt3__16vectorINS_10shared_ptrI3TexEENS_9allocatorIS3_EEE9push_backB8ue170006ERKS3_, symObjAddr: 0x236C8, symBinAddr: 0x100028174, symSize: 0x6C }
  - { offsetInCU: 0x73BD3, offset: 0x73BD3, size: 0x8, addend: 0x0, symName: __ZNSt3__111__wrap_iterIPNS_10shared_ptrI3TexEEEppB8ue170006Ev, symObjAddr: 0x23734, symBinAddr: 0x1000281E0, symSize: 0x20 }
  - { offsetInCU: 0x73BF9, offset: 0x73BF9, size: 0x8, addend: 0x0, symName: __ZN5Model15textureFromFileENSt3__112basic_stringIcNS0_11char_traitsIcEENS0_9allocatorIcEEEES6_8Tex_Type, symObjAddr: 0x23754, symBinAddr: 0x100028200, symSize: 0x1E4 }
  - { offsetInCU: 0x73C5D, offset: 0x73C5D, size: 0x8, addend: 0x0, symName: __ZN8aiStringC2Ev, symObjAddr: 0x23938, symBinAddr: 0x1000283E4, symSize: 0x4C }
  - { offsetInCU: 0x73C87, offset: 0x73C87, size: 0x8, addend: 0x0, symName: __ZNKSt3__111__wrap_iterIPNS_10shared_ptrI3TexEEE4baseB8ue170006Ev, symObjAddr: 0x239CC, symBinAddr: 0x100028478, symSize: 0x18 }
  - { offsetInCU: 0x73CAD, offset: 0x73CAD, size: 0x8, addend: 0x0, symName: __ZNSt3__112basic_stringIcNS_11char_traitsIcEENS_9allocatorIcEEE6appendB8ue170006ERKS5_, symObjAddr: 0x239E4, symBinAddr: 0x100028490, symSize: 0x4C }
  - { offsetInCU: 0x73CE2, offset: 0x73CE2, size: 0x8, addend: 0x0, symName: __ZNSt3__112basic_stringIcNS_11char_traitsIcEENS_9allocatorIcEEEC1B8ue170006EOS5_, symObjAddr: 0x23A30, symBinAddr: 0x1000284DC, symSize: 0x34 }
  - { offsetInCU: 0x73D1B, offset: 0x73D1B, size: 0x8, addend: 0x0, symName: __ZNSt3__112basic_stringIcNS_11char_traitsIcEENS_9allocatorIcEEEC2B8ue170006EOS5_, symObjAddr: 0x23A64, symBinAddr: 0x100028510, symSize: 0x50 }
  - { offsetInCU: 0x73D54, offset: 0x73D54, size: 0x8, addend: 0x0, symName: __ZNSt3__112basic_stringIcNS_11char_traitsIcEENS_9allocatorIcEEE14__default_initB8ue170006Ev, symObjAddr: 0x23AB4, symBinAddr: 0x100028560, symSize: 0x40 }
  - { offsetInCU: 0x73D84, offset: 0x73D84, size: 0x8, addend: 0x0, symName: __ZNSt3__116allocator_traitsINS_9allocatorIcEEE37select_on_container_copy_constructionB8ue170006IS2_vvEES2_RKS2_, symObjAddr: 0x23AF4, symBinAddr: 0x1000285A0, symSize: 0x10 }
  - { offsetInCU: 0x73DB3, offset: 0x73DB3, size: 0x8, addend: 0x0, symName: __ZNKSt3__112basic_stringIcNS_11char_traitsIcEENS_9allocatorIcEEE13get_allocatorB8ue170006Ev, symObjAddr: 0x23B04, symBinAddr: 0x1000285B0, symSize: 0x24 }
  - { offsetInCU: 0x73DD9, offset: 0x73DD9, size: 0x8, addend: 0x0, symName: __ZNSt3__112basic_stringIcNS_11char_traitsIcEENS_9allocatorIcEEEC1B8ue170006ENS_24__uninitialized_size_tagEmRKS4_, symObjAddr: 0x23B28, symBinAddr: 0x1000285D4, symSize: 0x3C }
  - { offsetInCU: 0x73E2D, offset: 0x73E2D, size: 0x8, addend: 0x0, symName: __ZNSt3__111char_traitsIcE4copyB8ue170006EPcPKcm, symObjAddr: 0x23B64, symBinAddr: 0x100028610, symSize: 0x40 }
  - { offsetInCU: 0x73E6C, offset: 0x73E6C, size: 0x8, addend: 0x0, symName: __ZNSt3__111char_traitsIcE6assignB8ue170006EPcmc, symObjAddr: 0x23BA4, symBinAddr: 0x100028650, symSize: 0x44 }
  - { offsetInCU: 0x73EAB, offset: 0x73EAB, size: 0x8, addend: 0x0, symName: __ZNKSt3__112basic_stringIcNS_11char_traitsIcEENS_9allocatorIcEEE7__allocB8ue170006Ev, symObjAddr: 0x23BE8, symBinAddr: 0x100028694, symSize: 0x24 }
  - { offsetInCU: 0x73ED1, offset: 0x73ED1, size: 0x8, addend: 0x0, symName: __ZNKSt3__117__compressed_pairINS_12basic_stringIcNS_11char_traitsIcEENS_9allocatorIcEEE5__repES5_E6secondB8ue170006Ev, symObjAddr: 0x23C0C, symBinAddr: 0x1000286B8, symSize: 0x24 }
  - { offsetInCU: 0x73EF7, offset: 0x73EF7, size: 0x8, addend: 0x0, symName: __ZNKSt3__122__compressed_pair_elemINS_9allocatorIcEELi1ELb1EE5__getB8ue170006Ev, symObjAddr: 0x23C30, symBinAddr: 0x1000286DC, symSize: 0x14 }
  - { offsetInCU: 0x73F1D, offset: 0x73F1D, size: 0x8, addend: 0x0, symName: __ZNSt3__112basic_stringIcNS_11char_traitsIcEENS_9allocatorIcEEEC2B8ue170006ENS_24__uninitialized_size_tagEmRKS4_, symObjAddr: 0x23C44, symBinAddr: 0x1000286F0, symSize: 0x110 }
  - { offsetInCU: 0x73F9E, offset: 0x73F9E, size: 0x8, addend: 0x0, symName: __ZNSt3__117__compressed_pairINS_12basic_stringIcNS_11char_traitsIcEENS_9allocatorIcEEE5__repES5_EC1B8ue170006INS_18__default_init_tagERKS5_EEOT_OT0_, symObjAddr: 0x23D54, symBinAddr: 0x100028800, symSize: 0x3C }
  - { offsetInCU: 0x73FF6, offset: 0x73FF6, size: 0x8, addend: 0x0, symName: __ZNKSt3__112basic_stringIcNS_11char_traitsIcEENS_9allocatorIcEEE8max_sizeB8ue170006Ev, symObjAddr: 0x23D90, symBinAddr: 0x10002883C, symSize: 0xAC }
  - { offsetInCU: 0x74049, offset: 0x74049, size: 0x8, addend: 0x0, symName: __ZNKSt3__112basic_stringIcNS_11char_traitsIcEENS_9allocatorIcEEE20__throw_length_errorB8ue170006Ev, symObjAddr: 0x23E3C, symBinAddr: 0x1000288E8, symSize: 0x1C }
  - { offsetInCU: 0x7406F, offset: 0x7406F, size: 0x8, addend: 0x0, symName: __ZNSt3__112basic_stringIcNS_11char_traitsIcEENS_9allocatorIcEEE13__fits_in_ssoB8ue170006Em, symObjAddr: 0x23E58, symBinAddr: 0x100028904, symSize: 0x20 }
  - { offsetInCU: 0x74093, offset: 0x74093, size: 0x8, addend: 0x0, symName: __ZNSt3__112basic_stringIcNS_11char_traitsIcEENS_9allocatorIcEEE11__recommendB8ue170006Em, symObjAddr: 0x23E78, symBinAddr: 0x100028924, symSize: 0x84 }
  - { offsetInCU: 0x740C6, offset: 0x740C6, size: 0x8, addend: 0x0, symName: __ZNSt3__116allocator_traitsINS_9allocatorIcEEE8allocateB8ue170006ERS2_m, symObjAddr: 0x23EFC, symBinAddr: 0x1000289A8, symSize: 0x2C }
  - { offsetInCU: 0x740F9, offset: 0x740F9, size: 0x8, addend: 0x0, symName: __ZNSt3__112basic_stringIcNS_11char_traitsIcEENS_9allocatorIcEEE16__begin_lifetimeB8ue170006EPcm, symObjAddr: 0x23F28, symBinAddr: 0x1000289D4, symSize: 0x14 }
  - { offsetInCU: 0x7412C, offset: 0x7412C, size: 0x8, addend: 0x0, symName: __ZNSt3__112basic_stringIcNS_11char_traitsIcEENS_9allocatorIcEEE14__set_long_capB8ue170006Em, symObjAddr: 0x23F3C, symBinAddr: 0x1000289E8, symSize: 0x70 }
  - { offsetInCU: 0x74161, offset: 0x74161, size: 0x8, addend: 0x0, symName: __ZNSt3__112basic_stringIcNS_11char_traitsIcEENS_9allocatorIcEEE18__set_long_pointerB8ue170006EPc, symObjAddr: 0x23FAC, symBinAddr: 0x100028A58, symSize: 0x38 }
  - { offsetInCU: 0x74196, offset: 0x74196, size: 0x8, addend: 0x0, symName: __ZNSt3__112basic_stringIcNS_11char_traitsIcEENS_9allocatorIcEEE15__set_long_sizeB8ue170006Em, symObjAddr: 0x23FE4, symBinAddr: 0x100028A90, symSize: 0x38 }
  - { offsetInCU: 0x741CB, offset: 0x741CB, size: 0x8, addend: 0x0, symName: __ZNSt3__117__compressed_pairINS_12basic_stringIcNS_11char_traitsIcEENS_9allocatorIcEEE5__repES5_EC2B8ue170006INS_18__default_init_tagERKS5_EEOT_OT0_, symObjAddr: 0x2401C, symBinAddr: 0x100028AC8, symSize: 0x40 }
  - { offsetInCU: 0x74223, offset: 0x74223, size: 0x8, addend: 0x0, symName: __ZNSt3__122__compressed_pair_elemINS_9allocatorIcEELi1ELb1EEC2B8ue170006IRKS2_vEEOT_, symObjAddr: 0x2405C, symBinAddr: 0x100028B08, symSize: 0x18 }
  - { offsetInCU: 0x74265, offset: 0x74265, size: 0x8, addend: 0x0, symName: __ZNSt3__116allocator_traitsINS_9allocatorIcEEE8max_sizeB8ue170006IS2_vEEmRKS2_, symObjAddr: 0x24074, symBinAddr: 0x100028B20, symSize: 0x24 }
  - { offsetInCU: 0x74293, offset: 0x74293, size: 0x8, addend: 0x0, symName: __ZNSt3__114numeric_limitsImE3maxB8ue170006Ev, symObjAddr: 0x24098, symBinAddr: 0x100028B44, symSize: 0x14 }
  - { offsetInCU: 0x742A7, offset: 0x742A7, size: 0x8, addend: 0x0, symName: __ZNKSt3__19allocatorIcE8max_sizeB8ue170006Ev, symObjAddr: 0x240AC, symBinAddr: 0x100028B58, symSize: 0x14 }
  - { offsetInCU: 0x742CD, offset: 0x742CD, size: 0x8, addend: 0x0, symName: __ZNSt3__123__libcpp_numeric_limitsImLb1EE3maxB8ue170006Ev, symObjAddr: 0x240C0, symBinAddr: 0x100028B6C, symSize: 0x8 }
  - { offsetInCU: 0x742E1, offset: 0x742E1, size: 0x8, addend: 0x0, symName: __ZNSt3__112basic_stringIcNS_11char_traitsIcEENS_9allocatorIcEEE10__align_itB8ue170006ILm16EEEmm, symObjAddr: 0x240C8, symBinAddr: 0x100028B74, symSize: 0x1C }
  - { offsetInCU: 0x7430F, offset: 0x7430F, size: 0x8, addend: 0x0, symName: __ZNSt3__19allocatorIcE8allocateB8ue170006Em, symObjAddr: 0x240E4, symBinAddr: 0x100028B90, symSize: 0x58 }
  - { offsetInCU: 0x74367, offset: 0x74367, size: 0x8, addend: 0x0, symName: __ZNKSt3__114__copy_trivialclB8ue170006IKccLi0EEENS_4pairIPT_PT0_EES5_S5_S7_, symObjAddr: 0x2435C, symBinAddr: 0x100028E08, symSize: 0x48 }
  - { offsetInCU: 0x743EF, offset: 0x743EF, size: 0x8, addend: 0x0, symName: __ZNSt3__14pairIPKcS2_EC1B8ue170006IS2_S2_LPv0EEEOT_OT0_, symObjAddr: 0x244C4, symBinAddr: 0x100028F70, symSize: 0x3C }
  - { offsetInCU: 0x7444D, offset: 0x7444D, size: 0x8, addend: 0x0, symName: __ZNSt3__14pairIPKcS2_EC2B8ue170006IS2_S2_LPv0EEEOT_OT0_, symObjAddr: 0x24500, symBinAddr: 0x100028FAC, symSize: 0x34 }
  - { offsetInCU: 0x744AB, offset: 0x744AB, size: 0x8, addend: 0x0, symName: __ZNSt3__118__unwrap_iter_implIPKcLb1EE8__unwrapB8ue170006ES2_, symObjAddr: 0x24534, symBinAddr: 0x100028FE0, symSize: 0x24 }
  - { offsetInCU: 0x744D9, offset: 0x744D9, size: 0x8, addend: 0x0, symName: __ZNSt3__14pairIPKcPcEC1B8ue170006IRS2_S3_LPv0EEEOT_OT0_, symObjAddr: 0x2466C, symBinAddr: 0x100029118, symSize: 0x3C }
  - { offsetInCU: 0x74537, offset: 0x74537, size: 0x8, addend: 0x0, symName: __ZNSt3__14pairIPKcPcEC2B8ue170006IRS2_S3_LPv0EEEOT_OT0_, symObjAddr: 0x246A8, symBinAddr: 0x100029154, symSize: 0x34 }
  - { offsetInCU: 0x74595, offset: 0x74595, size: 0x8, addend: 0x0, symName: __ZNSt3__118__unwrap_iter_implIPcLb1EE8__unwrapB8ue170006ES1_, symObjAddr: 0x246DC, symBinAddr: 0x100029188, symSize: 0x24 }
  - { offsetInCU: 0x745B8, offset: 0x745B8, size: 0x8, addend: 0x0, symName: __ZNSt3__14pairIPKcPcEC1B8ue170006IS2_S3_LPv0EEEOT_OT0_, symObjAddr: 0x24700, symBinAddr: 0x1000291AC, symSize: 0x3C }
  - { offsetInCU: 0x74616, offset: 0x74616, size: 0x8, addend: 0x0, symName: __ZNSt3__14pairIPKcPcEC2B8ue170006IS2_S3_LPv0EEEOT_OT0_, symObjAddr: 0x2473C, symBinAddr: 0x1000291E8, symSize: 0x34 }
  - { offsetInCU: 0x74674, offset: 0x74674, size: 0x8, addend: 0x0, symName: __ZNSt3__118__unwrap_iter_implIPKcLb1EE8__rewrapB8ue170006ES2_S2_, symObjAddr: 0x247AC, symBinAddr: 0x100029258, symSize: 0x48 }
  - { offsetInCU: 0x746A5, offset: 0x746A5, size: 0x8, addend: 0x0, symName: __ZNSt3__118__unwrap_iter_implIPcLb1EE8__rewrapB8ue170006ES1_S1_, symObjAddr: 0x247F4, symBinAddr: 0x1000292A0, symSize: 0x48 }
  - { offsetInCU: 0x746D6, offset: 0x746D6, size: 0x8, addend: 0x0, symName: __ZNSt3__16vectorINS_10shared_ptrI3TexEENS_9allocatorIS3_EEE9__end_capB8ue170006Ev, symObjAddr: 0x248F8, symBinAddr: 0x1000293A4, symSize: 0x28 }
  - { offsetInCU: 0x746FC, offset: 0x746FC, size: 0x8, addend: 0x0, symName: __ZNSt3__16vectorINS_10shared_ptrI3TexEENS_9allocatorIS3_EEE22__construct_one_at_endB8ue170006IJRKS3_EEEvDpOT_, symObjAddr: 0x24920, symBinAddr: 0x1000293CC, symSize: 0x90 }
  - { offsetInCU: 0x7474B, offset: 0x7474B, size: 0x8, addend: 0x0, symName: __ZNSt3__16vectorINS_10shared_ptrI3TexEENS_9allocatorIS3_EEE21__push_back_slow_pathIRKS3_EEvOT_, symObjAddr: 0x249B0, symBinAddr: 0x10002945C, symSize: 0xD8 }
  - { offsetInCU: 0x747A9, offset: 0x747A9, size: 0x8, addend: 0x0, symName: __ZNSt3__117__compressed_pairIPNS_10shared_ptrI3TexEENS_9allocatorIS3_EEE5firstB8ue170006Ev, symObjAddr: 0x24A88, symBinAddr: 0x100029534, symSize: 0x24 }
  - { offsetInCU: 0x747CF, offset: 0x747CF, size: 0x8, addend: 0x0, symName: __ZNSt3__122__compressed_pair_elemIPNS_10shared_ptrI3TexEELi0ELb0EE5__getB8ue170006Ev, symObjAddr: 0x24AAC, symBinAddr: 0x100029558, symSize: 0x14 }
  - { offsetInCU: 0x7480E, offset: 0x7480E, size: 0x8, addend: 0x0, symName: __ZNSt3__16vectorINS_10shared_ptrI3TexEENS_9allocatorIS3_EEE21_ConstructTransactionC1B8ue170006ERS6_m, symObjAddr: 0x24AC0, symBinAddr: 0x10002956C, symSize: 0x3C }
  - { offsetInCU: 0x74856, offset: 0x74856, size: 0x8, addend: 0x0, symName: __ZNSt3__116allocator_traitsINS_9allocatorINS_10shared_ptrI3TexEEEEE9constructB8ue170006IS4_JRKS4_EvEEvRS5_PT_DpOT0_, symObjAddr: 0x24AFC, symBinAddr: 0x1000295A8, symSize: 0x34 }
  - { offsetInCU: 0x748AD, offset: 0x748AD, size: 0x8, addend: 0x0, symName: __ZNSt3__16vectorINS_10shared_ptrI3TexEENS_9allocatorIS3_EEE7__allocB8ue170006Ev, symObjAddr: 0x24B30, symBinAddr: 0x1000295DC, symSize: 0x28 }
  - { offsetInCU: 0x748D3, offset: 0x748D3, size: 0x8, addend: 0x0, symName: __ZNSt3__16vectorINS_10shared_ptrI3TexEENS_9allocatorIS3_EEE21_ConstructTransactionD1B8ue170006Ev, symObjAddr: 0x24B6C, symBinAddr: 0x100029618, symSize: 0x2C }
  - { offsetInCU: 0x748FD, offset: 0x748FD, size: 0x8, addend: 0x0, symName: __ZNSt3__16vectorINS_10shared_ptrI3TexEENS_9allocatorIS3_EEE21_ConstructTransactionC2B8ue170006ERS6_m, symObjAddr: 0x24B98, symBinAddr: 0x100029644, symSize: 0x44 }
  - { offsetInCU: 0x74945, offset: 0x74945, size: 0x8, addend: 0x0, symName: __ZNSt3__19allocatorINS_10shared_ptrI3TexEEE9constructB8ue170006IS3_JRKS3_EEEvPT_DpOT0_, symObjAddr: 0x24BDC, symBinAddr: 0x100029688, symSize: 0x30 }
  - { offsetInCU: 0x7499B, offset: 0x7499B, size: 0x8, addend: 0x0, symName: __ZNSt3__117__compressed_pairIPNS_10shared_ptrI3TexEENS_9allocatorIS3_EEE6secondB8ue170006Ev, symObjAddr: 0x24C0C, symBinAddr: 0x1000296B8, symSize: 0x24 }
  - { offsetInCU: 0x749C1, offset: 0x749C1, size: 0x8, addend: 0x0, symName: __ZNSt3__122__compressed_pair_elemINS_9allocatorINS_10shared_ptrI3TexEEEELi1ELb1EE5__getB8ue170006Ev, symObjAddr: 0x24C30, symBinAddr: 0x1000296DC, symSize: 0x14 }
  - { offsetInCU: 0x749E7, offset: 0x749E7, size: 0x8, addend: 0x0, symName: __ZNSt3__16vectorINS_10shared_ptrI3TexEENS_9allocatorIS3_EEE21_ConstructTransactionD2B8ue170006Ev, symObjAddr: 0x24C44, symBinAddr: 0x1000296F0, symSize: 0x20 }
  - { offsetInCU: 0x74A11, offset: 0x74A11, size: 0x8, addend: 0x0, symName: __ZNKSt3__16vectorINS_10shared_ptrI3TexEENS_9allocatorIS3_EEE11__recommendB8ue170006Em, symObjAddr: 0x24C64, symBinAddr: 0x100029710, symSize: 0xB4 }
  - { offsetInCU: 0x74A66, offset: 0x74A66, size: 0x8, addend: 0x0, symName: __ZNKSt3__16vectorINS_10shared_ptrI3TexEENS_9allocatorIS3_EEE4sizeB8ue170006Ev, symObjAddr: 0x24D18, symBinAddr: 0x1000297C4, symSize: 0x28 }
  - { offsetInCU: 0x74A8C, offset: 0x74A8C, size: 0x8, addend: 0x0, symName: __ZNSt3__114__split_bufferINS_10shared_ptrI3TexEERNS_9allocatorIS3_EEEC1EmmS6_, symObjAddr: 0x24D40, symBinAddr: 0x1000297EC, symSize: 0x44 }
  - { offsetInCU: 0x74AE2, offset: 0x74AE2, size: 0x8, addend: 0x0, symName: __ZNSt3__114__split_bufferINS_10shared_ptrI3TexEERNS_9allocatorIS3_EEED1Ev, symObjAddr: 0x24E94, symBinAddr: 0x100029940, symSize: 0x2C }
  - { offsetInCU: 0x74B0E, offset: 0x74B0E, size: 0x8, addend: 0x0, symName: __ZNKSt3__16vectorINS_10shared_ptrI3TexEENS_9allocatorIS3_EEE8max_sizeEv, symObjAddr: 0x24EC0, symBinAddr: 0x10002996C, symSize: 0x60 }
  - { offsetInCU: 0x74B36, offset: 0x74B36, size: 0x8, addend: 0x0, symName: __ZNKSt3__16vectorINS_10shared_ptrI3TexEENS_9allocatorIS3_EEE20__throw_length_errorB8ue170006Ev, symObjAddr: 0x24F20, symBinAddr: 0x1000299CC, symSize: 0x1C }
  - { offsetInCU: 0x74B5C, offset: 0x74B5C, size: 0x8, addend: 0x0, symName: __ZNKSt3__16vectorINS_10shared_ptrI3TexEENS_9allocatorIS3_EEE8capacityB8ue170006Ev, symObjAddr: 0x24F3C, symBinAddr: 0x1000299E8, symSize: 0x40 }
  - { offsetInCU: 0x74B8C, offset: 0x74B8C, size: 0x8, addend: 0x0, symName: __ZNSt3__116allocator_traitsINS_9allocatorINS_10shared_ptrI3TexEEEEE8max_sizeB8ue170006IS5_vEEmRKS5_, symObjAddr: 0x24F7C, symBinAddr: 0x100029A28, symSize: 0x24 }
  - { offsetInCU: 0x74BBA, offset: 0x74BBA, size: 0x8, addend: 0x0, symName: __ZNKSt3__16vectorINS_10shared_ptrI3TexEENS_9allocatorIS3_EEE7__allocB8ue170006Ev, symObjAddr: 0x24FA0, symBinAddr: 0x100029A4C, symSize: 0x28 }
  - { offsetInCU: 0x74BE0, offset: 0x74BE0, size: 0x8, addend: 0x0, symName: __ZNKSt3__19allocatorINS_10shared_ptrI3TexEEE8max_sizeB8ue170006Ev, symObjAddr: 0x24FC8, symBinAddr: 0x100029A74, symSize: 0x14 }
  - { offsetInCU: 0x74C06, offset: 0x74C06, size: 0x8, addend: 0x0, symName: __ZNKSt3__117__compressed_pairIPNS_10shared_ptrI3TexEENS_9allocatorIS3_EEE6secondB8ue170006Ev, symObjAddr: 0x24FDC, symBinAddr: 0x100029A88, symSize: 0x24 }
  - { offsetInCU: 0x74C2C, offset: 0x74C2C, size: 0x8, addend: 0x0, symName: __ZNKSt3__122__compressed_pair_elemINS_9allocatorINS_10shared_ptrI3TexEEEELi1ELb1EE5__getB8ue170006Ev, symObjAddr: 0x25000, symBinAddr: 0x100029AAC, symSize: 0x14 }
  - { offsetInCU: 0x74C52, offset: 0x74C52, size: 0x8, addend: 0x0, symName: __ZNKSt3__16vectorINS_10shared_ptrI3TexEENS_9allocatorIS3_EEE9__end_capB8ue170006Ev, symObjAddr: 0x25014, symBinAddr: 0x100029AC0, symSize: 0x28 }
  - { offsetInCU: 0x74C78, offset: 0x74C78, size: 0x8, addend: 0x0, symName: __ZNKSt3__117__compressed_pairIPNS_10shared_ptrI3TexEENS_9allocatorIS3_EEE5firstB8ue170006Ev, symObjAddr: 0x2503C, symBinAddr: 0x100029AE8, symSize: 0x24 }
  - { offsetInCU: 0x74C9E, offset: 0x74C9E, size: 0x8, addend: 0x0, symName: __ZNKSt3__122__compressed_pair_elemIPNS_10shared_ptrI3TexEELi0ELb0EE5__getB8ue170006Ev, symObjAddr: 0x25060, symBinAddr: 0x100029B0C, symSize: 0x14 }
  - { offsetInCU: 0x74CC4, offset: 0x74CC4, size: 0x8, addend: 0x0, symName: __ZNSt3__114__split_bufferINS_10shared_ptrI3TexEERNS_9allocatorIS3_EEEC2EmmS6_, symObjAddr: 0x25074, symBinAddr: 0x100029B20, symSize: 0xD4 }
  - { offsetInCU: 0x74D38, offset: 0x74D38, size: 0x8, addend: 0x0, symName: __ZNSt3__117__compressed_pairIPNS_10shared_ptrI3TexEERNS_9allocatorIS3_EEEC1B8ue170006IDnS7_EEOT_OT0_, symObjAddr: 0x25148, symBinAddr: 0x100029BF4, symSize: 0x3C }
  - { offsetInCU: 0x74D90, offset: 0x74D90, size: 0x8, addend: 0x0, symName: __ZNSt3__114__split_bufferINS_10shared_ptrI3TexEERNS_9allocatorIS3_EEE7__allocB8ue170006Ev, symObjAddr: 0x251C4, symBinAddr: 0x100029C70, symSize: 0x28 }
  - { offsetInCU: 0x74DB6, offset: 0x74DB6, size: 0x8, addend: 0x0, symName: __ZNSt3__114__split_bufferINS_10shared_ptrI3TexEERNS_9allocatorIS3_EEE9__end_capB8ue170006Ev, symObjAddr: 0x251EC, symBinAddr: 0x100029C98, symSize: 0x28 }
  - { offsetInCU: 0x74DDC, offset: 0x74DDC, size: 0x8, addend: 0x0, symName: __ZNSt3__117__compressed_pairIPNS_10shared_ptrI3TexEERNS_9allocatorIS3_EEEC2B8ue170006IDnS7_EEOT_OT0_, symObjAddr: 0x25214, symBinAddr: 0x100029CC0, symSize: 0x48 }
  - { offsetInCU: 0x74E34, offset: 0x74E34, size: 0x8, addend: 0x0, symName: __ZNSt3__122__compressed_pair_elemIRNS_9allocatorINS_10shared_ptrI3TexEEEELi1ELb0EEC2B8ue170006IS6_vEEOT_, symObjAddr: 0x2525C, symBinAddr: 0x100029D08, symSize: 0x20 }
  - { offsetInCU: 0x74E76, offset: 0x74E76, size: 0x8, addend: 0x0, symName: __ZNSt3__19allocatorINS_10shared_ptrI3TexEEE8allocateB8ue170006Em, symObjAddr: 0x2527C, symBinAddr: 0x100029D28, symSize: 0x58 }
  - { offsetInCU: 0x74EAA, offset: 0x74EAA, size: 0x8, addend: 0x0, symName: __ZNSt3__117__compressed_pairIPNS_10shared_ptrI3TexEERNS_9allocatorIS3_EEE6secondB8ue170006Ev, symObjAddr: 0x252D4, symBinAddr: 0x100029D80, symSize: 0x28 }
  - { offsetInCU: 0x74ED0, offset: 0x74ED0, size: 0x8, addend: 0x0, symName: __ZNSt3__122__compressed_pair_elemIRNS_9allocatorINS_10shared_ptrI3TexEEEELi1ELb0EE5__getB8ue170006Ev, symObjAddr: 0x252FC, symBinAddr: 0x100029DA8, symSize: 0x18 }
  - { offsetInCU: 0x74EF6, offset: 0x74EF6, size: 0x8, addend: 0x0, symName: __ZNSt3__117__compressed_pairIPNS_10shared_ptrI3TexEERNS_9allocatorIS3_EEE5firstB8ue170006Ev, symObjAddr: 0x25314, symBinAddr: 0x100029DC0, symSize: 0x24 }
  - { offsetInCU: 0x74F1C, offset: 0x74F1C, size: 0x8, addend: 0x0, symName: __ZNKSt3__16vectorINS_10shared_ptrI3TexEENS_9allocatorIS3_EEE17__annotate_deleteB8ue170006Ev, symObjAddr: 0x25338, symBinAddr: 0x100029DE4, symSize: 0xB8 }
  - { offsetInCU: 0x74F42, offset: 0x74F42, size: 0x8, addend: 0x0, symName: __ZNSt3__116reverse_iteratorIPNS_10shared_ptrI3TexEEEC1B8ue170006ES4_, symObjAddr: 0x2551C, symBinAddr: 0x100029FC8, symSize: 0x34 }
  - { offsetInCU: 0x74F7A, offset: 0x74F7A, size: 0x8, addend: 0x0, symName: __ZNKSt3__116reverse_iteratorIPNS_10shared_ptrI3TexEEE4baseB8ue170006Ev, symObjAddr: 0x25550, symBinAddr: 0x100029FFC, symSize: 0x18 }
  - { offsetInCU: 0x74FA0, offset: 0x74FA0, size: 0x8, addend: 0x0, symName: __ZNKSt3__16vectorINS_10shared_ptrI3TexEENS_9allocatorIS3_EEE14__annotate_newB8ue170006Em, symObjAddr: 0x255A4, symBinAddr: 0x10002A050, symSize: 0xAC }
  - { offsetInCU: 0x74FD5, offset: 0x74FD5, size: 0x8, addend: 0x0, symName: __ZNKSt3__16vectorINS_10shared_ptrI3TexEENS_9allocatorIS3_EEE31__annotate_contiguous_containerB8ue170006EPKvS8_S8_S8_, symObjAddr: 0x25650, symBinAddr: 0x10002A0FC, symSize: 0x20 }
  - { offsetInCU: 0x7502B, offset: 0x7502B, size: 0x8, addend: 0x0, symName: __ZNKSt3__16vectorINS_10shared_ptrI3TexEENS_9allocatorIS3_EEE4dataB8ue170006Ev, symObjAddr: 0x25670, symBinAddr: 0x10002A11C, symSize: 0x28 }
  - { offsetInCU: 0x75051, offset: 0x75051, size: 0x8, addend: 0x0, symName: __ZNSt3__129_AllocatorDestroyRangeReverseINS_9allocatorINS_10shared_ptrI3TexEEEENS_16reverse_iteratorIPS4_EEEC1B8ue170006ERS5_RS8_SB_, symObjAddr: 0x256E4, symBinAddr: 0x10002A190, symSize: 0x44 }
  - { offsetInCU: 0x750A8, offset: 0x750A8, size: 0x8, addend: 0x0, symName: __ZNSt3__116allocator_traitsINS_9allocatorINS_10shared_ptrI3TexEEEEE9constructB8ue170006IS4_JS4_EvEEvRS5_PT_DpOT0_, symObjAddr: 0x25770, symBinAddr: 0x10002A21C, symSize: 0x34 }
  - { offsetInCU: 0x750FF, offset: 0x750FF, size: 0x8, addend: 0x0, symName: __ZNKSt3__116reverse_iteratorIPNS_10shared_ptrI3TexEEEdeB8ue170006Ev, symObjAddr: 0x257C8, symBinAddr: 0x10002A274, symSize: 0x28 }
  - { offsetInCU: 0x75133, offset: 0x75133, size: 0x8, addend: 0x0, symName: __ZNSt3__116reverse_iteratorIPNS_10shared_ptrI3TexEEEppB8ue170006Ev, symObjAddr: 0x257F0, symBinAddr: 0x10002A29C, symSize: 0x20 }
  - { offsetInCU: 0x75159, offset: 0x75159, size: 0x8, addend: 0x0, symName: __ZNSt3__128__exception_guard_exceptionsINS_29_AllocatorDestroyRangeReverseINS_9allocatorINS_10shared_ptrI3TexEEEENS_16reverse_iteratorIPS5_EEEEE10__completeB8ue170006Ev, symObjAddr: 0x25810, symBinAddr: 0x10002A2BC, symSize: 0x1C }
  - { offsetInCU: 0x7517F, offset: 0x7517F, size: 0x8, addend: 0x0, symName: __ZNSt3__128__exception_guard_exceptionsINS_29_AllocatorDestroyRangeReverseINS_9allocatorINS_10shared_ptrI3TexEEEENS_16reverse_iteratorIPS5_EEEEED1B8ue170006Ev, symObjAddr: 0x2582C, symBinAddr: 0x10002A2D8, symSize: 0x2C }
  - { offsetInCU: 0x751A9, offset: 0x751A9, size: 0x8, addend: 0x0, symName: __ZNSt3__128__exception_guard_exceptionsINS_29_AllocatorDestroyRangeReverseINS_9allocatorINS_10shared_ptrI3TexEEEENS_16reverse_iteratorIPS5_EEEEEC1B8ue170006ESA_, symObjAddr: 0x25858, symBinAddr: 0x10002A304, symSize: 0x34 }
  - { offsetInCU: 0x751E2, offset: 0x751E2, size: 0x8, addend: 0x0, symName: __ZNSt3__128__exception_guard_exceptionsINS_29_AllocatorDestroyRangeReverseINS_9allocatorINS_10shared_ptrI3TexEEEENS_16reverse_iteratorIPS5_EEEEEC2B8ue170006ESA_, symObjAddr: 0x2588C, symBinAddr: 0x10002A338, symSize: 0x30 }
  - { offsetInCU: 0x7521B, offset: 0x7521B, size: 0x8, addend: 0x0, symName: __ZNSt3__129_AllocatorDestroyRangeReverseINS_9allocatorINS_10shared_ptrI3TexEEEENS_16reverse_iteratorIPS4_EEEC2B8ue170006ERS5_RS8_SB_, symObjAddr: 0x258BC, symBinAddr: 0x10002A368, symSize: 0x38 }
  - { offsetInCU: 0x75272, offset: 0x75272, size: 0x8, addend: 0x0, symName: __ZNSt3__19allocatorINS_10shared_ptrI3TexEEE9constructB8ue170006IS3_JS3_EEEvPT_DpOT0_, symObjAddr: 0x258F4, symBinAddr: 0x10002A3A0, symSize: 0x30 }
  - { offsetInCU: 0x752C8, offset: 0x752C8, size: 0x8, addend: 0x0, symName: __ZNSt3__110shared_ptrI3TexEC1B8ue170006EOS2_, symObjAddr: 0x25924, symBinAddr: 0x10002A3D0, symSize: 0x34 }
  - { offsetInCU: 0x75301, offset: 0x75301, size: 0x8, addend: 0x0, symName: __ZNSt3__110shared_ptrI3TexEC2B8ue170006EOS2_, symObjAddr: 0x25958, symBinAddr: 0x10002A404, symSize: 0x40 }
  - { offsetInCU: 0x7533F, offset: 0x7533F, size: 0x8, addend: 0x0, symName: __ZNSt3__119__to_address_helperINS_16reverse_iteratorIPNS_10shared_ptrI3TexEEEEvE6__callB8ue170006ERKS6_, symObjAddr: 0x25998, symBinAddr: 0x10002A444, symSize: 0x38 }
  - { offsetInCU: 0x75362, offset: 0x75362, size: 0x8, addend: 0x0, symName: __ZNKSt3__116reverse_iteratorIPNS_10shared_ptrI3TexEEEptB8ue170006Ev, symObjAddr: 0x259D0, symBinAddr: 0x10002A47C, symSize: 0x24 }
  - { offsetInCU: 0x75388, offset: 0x75388, size: 0x8, addend: 0x0, symName: __ZNSt3__128__exception_guard_exceptionsINS_29_AllocatorDestroyRangeReverseINS_9allocatorINS_10shared_ptrI3TexEEEENS_16reverse_iteratorIPS5_EEEEED2B8ue170006Ev, symObjAddr: 0x259F4, symBinAddr: 0x10002A4A0, symSize: 0x50 }
  - { offsetInCU: 0x753B2, offset: 0x753B2, size: 0x8, addend: 0x0, symName: __ZNKSt3__129_AllocatorDestroyRangeReverseINS_9allocatorINS_10shared_ptrI3TexEEEENS_16reverse_iteratorIPS4_EEEclB8ue170006Ev, symObjAddr: 0x25A44, symBinAddr: 0x10002A4F0, symSize: 0xB4 }
  - { offsetInCU: 0x753D9, offset: 0x753D9, size: 0x8, addend: 0x0, symName: __ZNSt3__116reverse_iteratorINS0_IPNS_10shared_ptrI3TexEEEEEC1B8ue170006ES5_, symObjAddr: 0x25B68, symBinAddr: 0x10002A614, symSize: 0x3C }
  - { offsetInCU: 0x75411, offset: 0x75411, size: 0x8, addend: 0x0, symName: __ZNSt3__116allocator_traitsINS_9allocatorINS_10shared_ptrI3TexEEEEE7destroyB8ue170006IS4_vEEvRS5_PT_, symObjAddr: 0x25C04, symBinAddr: 0x10002A6B0, symSize: 0x2C }
  - { offsetInCU: 0x7544E, offset: 0x7544E, size: 0x8, addend: 0x0, symName: __ZNSt3__116reverse_iteratorINS0_IPNS_10shared_ptrI3TexEEEEEppB8ue170006Ev, symObjAddr: 0x25C54, symBinAddr: 0x10002A700, symSize: 0x30 }
  - { offsetInCU: 0x75474, offset: 0x75474, size: 0x8, addend: 0x0, symName: __ZNKSt3__116reverse_iteratorINS0_IPNS_10shared_ptrI3TexEEEEE4baseB8ue170006Ev, symObjAddr: 0x25C84, symBinAddr: 0x10002A730, symSize: 0x24 }
  - { offsetInCU: 0x7549A, offset: 0x7549A, size: 0x8, addend: 0x0, symName: __ZNSt3__19allocatorINS_10shared_ptrI3TexEEE7destroyB8ue170006EPS3_, symObjAddr: 0x25CA8, symBinAddr: 0x10002A754, symSize: 0x28 }
  - { offsetInCU: 0x754D3, offset: 0x754D3, size: 0x8, addend: 0x0, symName: __ZNSt3__119__to_address_helperINS_16reverse_iteratorINS1_IPNS_10shared_ptrI3TexEEEEEEvE6__callB8ue170006ERKS7_, symObjAddr: 0x25CD0, symBinAddr: 0x10002A77C, symSize: 0x38 }
  - { offsetInCU: 0x754F6, offset: 0x754F6, size: 0x8, addend: 0x0, symName: __ZNKSt3__116reverse_iteratorINS0_IPNS_10shared_ptrI3TexEEEEEptB8ue170006Ev, symObjAddr: 0x25D08, symBinAddr: 0x10002A7B4, symSize: 0x24 }
  - { offsetInCU: 0x7551C, offset: 0x7551C, size: 0x8, addend: 0x0, symName: __ZNKSt3__116reverse_iteratorINS0_IPNS_10shared_ptrI3TexEEEEEdeB8ue170006Ev, symObjAddr: 0x25D2C, symBinAddr: 0x10002A7D8, symSize: 0x34 }
  - { offsetInCU: 0x75550, offset: 0x75550, size: 0x8, addend: 0x0, symName: __ZNSt3__116reverse_iteratorIPNS_10shared_ptrI3TexEEEmmB8ue170006Ev, symObjAddr: 0x25D60, symBinAddr: 0x10002A80C, symSize: 0x20 }
  - { offsetInCU: 0x75576, offset: 0x75576, size: 0x8, addend: 0x0, symName: __ZNSt3__116reverse_iteratorINS0_IPNS_10shared_ptrI3TexEEEEEC2B8ue170006ES5_, symObjAddr: 0x25D80, symBinAddr: 0x10002A82C, symSize: 0x2C }
  - { offsetInCU: 0x755AE, offset: 0x755AE, size: 0x8, addend: 0x0, symName: __ZNSt3__116reverse_iteratorIPNS_10shared_ptrI3TexEEEC2B8ue170006ES4_, symObjAddr: 0x25DAC, symBinAddr: 0x10002A858, symSize: 0x28 }
  - { offsetInCU: 0x755E6, offset: 0x755E6, size: 0x8, addend: 0x0, symName: __ZNSt3__114__split_bufferINS_10shared_ptrI3TexEERNS_9allocatorIS3_EEED2Ev, symObjAddr: 0x25DD4, symBinAddr: 0x10002A880, symSize: 0x8C }
  - { offsetInCU: 0x75612, offset: 0x75612, size: 0x8, addend: 0x0, symName: __ZNSt3__114__split_bufferINS_10shared_ptrI3TexEERNS_9allocatorIS3_EEE5clearB8ue170006Ev, symObjAddr: 0x25E60, symBinAddr: 0x10002A90C, symSize: 0x28 }
  - { offsetInCU: 0x75638, offset: 0x75638, size: 0x8, addend: 0x0, symName: __ZNSt3__116allocator_traitsINS_9allocatorINS_10shared_ptrI3TexEEEEE10deallocateB8ue170006ERS5_PS4_m, symObjAddr: 0x25E88, symBinAddr: 0x10002A934, symSize: 0x34 }
  - { offsetInCU: 0x7567A, offset: 0x7567A, size: 0x8, addend: 0x0, symName: __ZNKSt3__114__split_bufferINS_10shared_ptrI3TexEERNS_9allocatorIS3_EEE8capacityB8ue170006Ev, symObjAddr: 0x25EBC, symBinAddr: 0x10002A968, symSize: 0x40 }
  - { offsetInCU: 0x756A0, offset: 0x756A0, size: 0x8, addend: 0x0, symName: __ZNSt3__114__split_bufferINS_10shared_ptrI3TexEERNS_9allocatorIS3_EEE17__destruct_at_endB8ue170006EPS3_, symObjAddr: 0x25EFC, symBinAddr: 0x10002A9A8, symSize: 0x2C }
  - { offsetInCU: 0x756D4, offset: 0x756D4, size: 0x8, addend: 0x0, symName: __ZNSt3__114__split_bufferINS_10shared_ptrI3TexEERNS_9allocatorIS3_EEE17__destruct_at_endB8ue170006EPS3_NS_17integral_constantIbLb0EEE, symObjAddr: 0x25F28, symBinAddr: 0x10002A9D4, symSize: 0x80 }
  - { offsetInCU: 0x75715, offset: 0x75715, size: 0x8, addend: 0x0, symName: __ZNSt3__19allocatorINS_10shared_ptrI3TexEEE10deallocateB8ue170006EPS3_m, symObjAddr: 0x25FA8, symBinAddr: 0x10002AA54, symSize: 0x40 }
  - { offsetInCU: 0x75757, offset: 0x75757, size: 0x8, addend: 0x0, symName: __ZNKSt3__114__split_bufferINS_10shared_ptrI3TexEERNS_9allocatorIS3_EEE9__end_capB8ue170006Ev, symObjAddr: 0x25FE8, symBinAddr: 0x10002AA94, symSize: 0x28 }
  - { offsetInCU: 0x7577D, offset: 0x7577D, size: 0x8, addend: 0x0, symName: __ZNKSt3__117__compressed_pairIPNS_10shared_ptrI3TexEERNS_9allocatorIS3_EEE5firstB8ue170006Ev, symObjAddr: 0x26010, symBinAddr: 0x10002AABC, symSize: 0x24 }
  - { offsetInCU: 0x757A3, offset: 0x757A3, size: 0x8, addend: 0x0, symName: __ZNSt3__111char_traitsIcE6lengthB8ue170006EPKc, symObjAddr: 0x26190, symBinAddr: 0x10002AC3C, symSize: 0x34 }
  - { offsetInCU: 0x757C6, offset: 0x757C6, size: 0x8, addend: 0x0, symName: __ZNSt3__16vectorINS_10shared_ptrI3TexEENS_9allocatorIS3_EEE18__insert_with_sizeB8ue170006INS_11__wrap_iterIPS3_EESA_EESA_NS8_IPKS3_EET_T0_l, symObjAddr: 0x261E8, symBinAddr: 0x10002AC94, symSize: 0x310 }
  - { offsetInCU: 0x758F0, offset: 0x758F0, size: 0x8, addend: 0x0, symName: __ZNSt3__16vectorINS_10shared_ptrI3TexEENS_9allocatorIS3_EEE18__construct_at_endINS_11__wrap_iterIPS3_EESA_EEvT_T0_m, symObjAddr: 0x265F0, symBinAddr: 0x10002B09C, symSize: 0x9C }
  - { offsetInCU: 0x75966, offset: 0x75966, size: 0x8, addend: 0x0, symName: __ZNSt3__16vectorINS_10shared_ptrI3TexEENS_9allocatorIS3_EEE12__move_rangeEPS3_S7_S7_, symObjAddr: 0x2668C, symBinAddr: 0x10002B138, symSize: 0x12C }
  - { offsetInCU: 0x75A24, offset: 0x75A24, size: 0x8, addend: 0x0, symName: __ZNSt3__114__split_bufferINS_10shared_ptrI3TexEERNS_9allocatorIS3_EEE28__construct_at_end_with_sizeINS_11__wrap_iterIPS3_EEEEvT_m, symObjAddr: 0x26808, symBinAddr: 0x10002B2B4, symSize: 0xD0 }
  - { offsetInCU: 0x75A80, offset: 0x75A80, size: 0x8, addend: 0x0, symName: __ZNSt3__16vectorINS_10shared_ptrI3TexEENS_9allocatorIS3_EEE11__make_iterB8ue170006EPS3_, symObjAddr: 0x26A24, symBinAddr: 0x10002B4D0, symSize: 0x30 }
  - { offsetInCU: 0x75AB5, offset: 0x75AB5, size: 0x8, addend: 0x0, symName: __ZNKSt3__111__wrap_iterIPKNS_10shared_ptrI3TexEEE4baseB8ue170006Ev, symObjAddr: 0x26A54, symBinAddr: 0x10002B500, symSize: 0x18 }
  - { offsetInCU: 0x75ADB, offset: 0x75ADB, size: 0x8, addend: 0x0, symName: __ZNSt3__111__wrap_iterIPNS_10shared_ptrI3TexEEEpLB8ue170006El, symObjAddr: 0x26AAC, symBinAddr: 0x10002B558, symSize: 0x28 }
  - { offsetInCU: 0x75B2F, offset: 0x75B2F, size: 0x8, addend: 0x0, symName: __ZNSt3__14pairIPNS_10shared_ptrI3TexEES4_EC1B8ue170006IS4_S4_LPv0EEEOT_OT0_, symObjAddr: 0x26D8C, symBinAddr: 0x10002B838, symSize: 0x3C }
  - { offsetInCU: 0x75B8D, offset: 0x75B8D, size: 0x8, addend: 0x0, symName: __ZNSt3__14pairIPNS_10shared_ptrI3TexEES4_EC2B8ue170006IS4_S4_LPv0EEEOT_OT0_, symObjAddr: 0x26DC8, symBinAddr: 0x10002B874, symSize: 0x34 }
  - { offsetInCU: 0x75BEB, offset: 0x75BEB, size: 0x8, addend: 0x0, symName: __ZNSt3__118__unwrap_iter_implINS_11__wrap_iterIPNS_10shared_ptrI3TexEEEELb1EE8__unwrapB8ue170006ES6_, symObjAddr: 0x26DFC, symBinAddr: 0x10002B8A8, symSize: 0x28 }
  - { offsetInCU: 0x75C13, offset: 0x75C13, size: 0x8, addend: 0x0, symName: __ZNSt3__119__to_address_helperINS_11__wrap_iterIPNS_10shared_ptrI3TexEEEEvE6__callB8ue170006ERKS6_, symObjAddr: 0x26E48, symBinAddr: 0x10002B8F4, symSize: 0x30 }
  - { offsetInCU: 0x75C36, offset: 0x75C36, size: 0x8, addend: 0x0, symName: __ZNSt3__114pointer_traitsINS_11__wrap_iterIPNS_10shared_ptrI3TexEEEEE10to_addressB8ue170006ES6_, symObjAddr: 0x26E78, symBinAddr: 0x10002B924, symSize: 0x2C }
  - { offsetInCU: 0x75C59, offset: 0x75C59, size: 0x8, addend: 0x0, symName: __ZNSt3__129_AllocatorDestroyRangeReverseINS_9allocatorINS_10shared_ptrI3TexEEEEPS4_EC1B8ue170006ERS5_RS6_S9_, symObjAddr: 0x26EF0, symBinAddr: 0x10002B99C, symSize: 0x44 }
  - { offsetInCU: 0x75CB0, offset: 0x75CB0, size: 0x8, addend: 0x0, symName: __ZNSt3__116allocator_traitsINS_9allocatorINS_10shared_ptrI3TexEEEEE9constructB8ue170006IS4_JRS4_EvEEvRS5_PT_DpOT0_, symObjAddr: 0x26F34, symBinAddr: 0x10002B9E0, symSize: 0x34 }
  - { offsetInCU: 0x75D07, offset: 0x75D07, size: 0x8, addend: 0x0, symName: __ZNSt3__128__exception_guard_exceptionsINS_29_AllocatorDestroyRangeReverseINS_9allocatorINS_10shared_ptrI3TexEEEEPS5_EEE10__completeB8ue170006Ev, symObjAddr: 0x26F68, symBinAddr: 0x10002BA14, symSize: 0x1C }
  - { offsetInCU: 0x75D2D, offset: 0x75D2D, size: 0x8, addend: 0x0, symName: __ZNSt3__128__exception_guard_exceptionsINS_29_AllocatorDestroyRangeReverseINS_9allocatorINS_10shared_ptrI3TexEEEEPS5_EEED1B8ue170006Ev, symObjAddr: 0x26F84, symBinAddr: 0x10002BA30, symSize: 0x2C }
  - { offsetInCU: 0x75D57, offset: 0x75D57, size: 0x8, addend: 0x0, symName: __ZNSt3__128__exception_guard_exceptionsINS_29_AllocatorDestroyRangeReverseINS_9allocatorINS_10shared_ptrI3TexEEEEPS5_EEEC1B8ue170006ES8_, symObjAddr: 0x26FB0, symBinAddr: 0x10002BA5C, symSize: 0x34 }
  - { offsetInCU: 0x75D90, offset: 0x75D90, size: 0x8, addend: 0x0, symName: __ZNSt3__128__exception_guard_exceptionsINS_29_AllocatorDestroyRangeReverseINS_9allocatorINS_10shared_ptrI3TexEEEEPS5_EEEC2B8ue170006ES8_, symObjAddr: 0x26FE4, symBinAddr: 0x10002BA90, symSize: 0x30 }
  - { offsetInCU: 0x75DC9, offset: 0x75DC9, size: 0x8, addend: 0x0, symName: __ZNSt3__129_AllocatorDestroyRangeReverseINS_9allocatorINS_10shared_ptrI3TexEEEEPS4_EC2B8ue170006ERS5_RS6_S9_, symObjAddr: 0x27014, symBinAddr: 0x10002BAC0, symSize: 0x38 }
  - { offsetInCU: 0x75E20, offset: 0x75E20, size: 0x8, addend: 0x0, symName: __ZNSt3__19allocatorINS_10shared_ptrI3TexEEE9constructB8ue170006IS3_JRS3_EEEvPT_DpOT0_, symObjAddr: 0x2704C, symBinAddr: 0x10002BAF8, symSize: 0x30 }
  - { offsetInCU: 0x75E76, offset: 0x75E76, size: 0x8, addend: 0x0, symName: __ZNSt3__128__exception_guard_exceptionsINS_29_AllocatorDestroyRangeReverseINS_9allocatorINS_10shared_ptrI3TexEEEEPS5_EEED2B8ue170006Ev, symObjAddr: 0x2707C, symBinAddr: 0x10002BB28, symSize: 0x50 }
  - { offsetInCU: 0x75EA0, offset: 0x75EA0, size: 0x8, addend: 0x0, symName: __ZNKSt3__129_AllocatorDestroyRangeReverseINS_9allocatorINS_10shared_ptrI3TexEEEEPS4_EclB8ue170006Ev, symObjAddr: 0x270CC, symBinAddr: 0x10002BB78, symSize: 0x68 }
  - { offsetInCU: 0x75EC6, offset: 0x75EC6, size: 0x8, addend: 0x0, symName: __ZNSt3__118__unwrap_iter_implIPNS_10shared_ptrI3TexEELb1EE8__unwrapB8ue170006ES4_, symObjAddr: 0x271A4, symBinAddr: 0x10002BC50, symSize: 0x24 }
  - { offsetInCU: 0x75EE9, offset: 0x75EE9, size: 0x8, addend: 0x0, symName: __ZNSt3__118__unwrap_iter_implIPNS_10shared_ptrI3TexEELb1EE8__rewrapB8ue170006ES4_S4_, symObjAddr: 0x271C8, symBinAddr: 0x10002BC74, symSize: 0x50 }
  - { offsetInCU: 0x75F24, offset: 0x75F24, size: 0x8, addend: 0x0, symName: __ZNKSt3__120__move_backward_loopINS_17_ClassicAlgPolicyEEclB8ue170006IPNS_10shared_ptrI3TexEES7_S7_EENS_4pairIT_T1_EES9_T0_SA_, symObjAddr: 0x273F4, symBinAddr: 0x10002BEA0, symSize: 0xA4 }
  - { offsetInCU: 0x75FAB, offset: 0x75FAB, size: 0x8, addend: 0x0, symName: __ZNSt3__18_IterOpsINS_17_ClassicAlgPolicyEE4nextB8ue170006IPNS_10shared_ptrI3TexEEEET_S8_S8_, symObjAddr: 0x274C4, symBinAddr: 0x10002BF70, symSize: 0x18 }
  - { offsetInCU: 0x75FE2, offset: 0x75FE2, size: 0x8, addend: 0x0, symName: __ZNSt3__18_IterOpsINS_17_ClassicAlgPolicyEE11__iter_moveB8ue170006IRPNS_10shared_ptrI3TexEEEENS_9enable_ifIXsr12is_referenceIDTdeclsr3stdE7declvalIRT_EEEEE5valueEDTclsr3stdE4movedeclsr3stdE7declvalISB_EEEEE4typeEOSA_, symObjAddr: 0x274DC, symBinAddr: 0x10002BF88, symSize: 0x28 }
  - { offsetInCU: 0x7600E, offset: 0x7600E, size: 0x8, addend: 0x0, symName: __ZNSt3__110shared_ptrI3TexEaSB8ue170006EOS2_, symObjAddr: 0x27504, symBinAddr: 0x10002BFB0, symSize: 0x50 }
  - { offsetInCU: 0x76043, offset: 0x76043, size: 0x8, addend: 0x0, symName: __ZNSt3__18_IterOpsINS_17_ClassicAlgPolicyEE25__validate_iter_referenceB8ue170006IRPNS_10shared_ptrI3TexEEEEvv, symObjAddr: 0x27554, symBinAddr: 0x10002C000, symSize: 0x4 }
  - { offsetInCU: 0x76061, offset: 0x76061, size: 0x8, addend: 0x0, symName: __ZNSt3__110shared_ptrI3TexE4swapB8ue170006ERS2_, symObjAddr: 0x27558, symBinAddr: 0x10002C004, symSize: 0x44 }
  - { offsetInCU: 0x760A0, offset: 0x760A0, size: 0x8, addend: 0x0, symName: __ZNKSt3__111__copy_loopINS_17_ClassicAlgPolicyEEclB8ue170006IPNS_10shared_ptrI3TexEES7_S7_EENS_4pairIT_T1_EES9_T0_SA_, symObjAddr: 0x27788, symBinAddr: 0x10002C234, symSize: 0x88 }
  - { offsetInCU: 0x7612B, offset: 0x7612B, size: 0x8, addend: 0x0, symName: __ZNSt3__14pairINS_11__wrap_iterIPNS_10shared_ptrI3TexEEEES5_EC1B8ue170006IS6_S5_LPv0EEEOT_OT0_, symObjAddr: 0x27884, symBinAddr: 0x10002C330, symSize: 0x3C }
  - { offsetInCU: 0x76189, offset: 0x76189, size: 0x8, addend: 0x0, symName: __ZNSt3__14pairINS_11__wrap_iterIPNS_10shared_ptrI3TexEEEES5_EC2B8ue170006IS6_S5_LPv0EEEOT_OT0_, symObjAddr: 0x278C0, symBinAddr: 0x10002C36C, symSize: 0x34 }
  - { offsetInCU: 0x761E7, offset: 0x761E7, size: 0x8, addend: 0x0, symName: __ZNSt3__118__unwrap_iter_implINS_11__wrap_iterIPNS_10shared_ptrI3TexEEEELb1EE8__rewrapB8ue170006ES6_S5_, symObjAddr: 0x27940, symBinAddr: 0x10002C3EC, symSize: 0x5C }
  - { offsetInCU: 0x76218, offset: 0x76218, size: 0x8, addend: 0x0, symName: __ZNKSt3__111__wrap_iterIPNS_10shared_ptrI3TexEEEplB8ue170006El, symObjAddr: 0x2799C, symBinAddr: 0x10002C448, symSize: 0x3C }
  - { offsetInCU: 0x76264, offset: 0x76264, size: 0x8, addend: 0x0, symName: __ZNSt3__114__split_bufferINS_10shared_ptrI3TexEERNS_9allocatorIS3_EEE21_ConstructTransactionC1B8ue170006EPPS3_m, symObjAddr: 0x279D8, symBinAddr: 0x10002C484, symSize: 0x3C }
  - { offsetInCU: 0x762AA, offset: 0x762AA, size: 0x8, addend: 0x0, symName: __ZNSt3__114__split_bufferINS_10shared_ptrI3TexEERNS_9allocatorIS3_EEE21_ConstructTransactionD1B8ue170006Ev, symObjAddr: 0x27A14, symBinAddr: 0x10002C4C0, symSize: 0x2C }
  - { offsetInCU: 0x762D4, offset: 0x762D4, size: 0x8, addend: 0x0, symName: __ZNSt3__114__split_bufferINS_10shared_ptrI3TexEERNS_9allocatorIS3_EEE21_ConstructTransactionC2B8ue170006EPPS3_m, symObjAddr: 0x27A40, symBinAddr: 0x10002C4EC, symSize: 0x44 }
  - { offsetInCU: 0x7631A, offset: 0x7631A, size: 0x8, addend: 0x0, symName: __ZNSt3__114__split_bufferINS_10shared_ptrI3TexEERNS_9allocatorIS3_EEE21_ConstructTransactionD2B8ue170006Ev, symObjAddr: 0x27A84, symBinAddr: 0x10002C530, symSize: 0x20 }
  - { offsetInCU: 0x76344, offset: 0x76344, size: 0x8, addend: 0x0, symName: __ZNSt3__111__wrap_iterIPNS_10shared_ptrI3TexEEEC1B8ue170006ES4_, symObjAddr: 0x27B98, symBinAddr: 0x10002C644, symSize: 0x34 }
  - { offsetInCU: 0x7637C, offset: 0x7637C, size: 0x8, addend: 0x0, symName: __ZNSt3__111__wrap_iterIPNS_10shared_ptrI3TexEEEC2B8ue170006ES4_, symObjAddr: 0x27BCC, symBinAddr: 0x10002C678, symSize: 0x20 }
  - { offsetInCU: 0x763B4, offset: 0x763B4, size: 0x8, addend: 0x0, symName: __ZNSt3__111__wrap_iterIPKNS_10shared_ptrI3TexEEEC2B8ue170006IPS3_EERKNS0_IT_EEPNS_9enable_ifIXsr14is_convertibleIS9_S5_EE5valueEvE4typeE, symObjAddr: 0x27C64, symBinAddr: 0x10002C710, symSize: 0x40 }
  - { offsetInCU: 0x76400, offset: 0x76400, size: 0x8, addend: 0x0, symName: __ZN9aiColor3DC2Ev, symObjAddr: 0x27CA4, symBinAddr: 0x10002C750, symSize: 0x24 }
  - { offsetInCU: 0x7642A, offset: 0x7642A, size: 0x8, addend: 0x0, symName: __ZN9MeshColorC2Ev, symObjAddr: 0x27CC8, symBinAddr: 0x10002C774, symSize: 0x30 }
  - { offsetInCU: 0x76456, offset: 0x76456, size: 0x8, addend: 0x0, symName: __ZN9aiColor4tIfEC1Ev, symObjAddr: 0x27CF8, symBinAddr: 0x10002C7A4, symSize: 0x2C }
  - { offsetInCU: 0x76480, offset: 0x76480, size: 0x8, addend: 0x0, symName: __ZN9aiColor3DC1Efff, symObjAddr: 0x27D24, symBinAddr: 0x10002C7D0, symSize: 0x44 }
  - { offsetInCU: 0x764D4, offset: 0x764D4, size: 0x8, addend: 0x0, symName: __ZN9aiColor3DaSERKS_, symObjAddr: 0x27D68, symBinAddr: 0x10002C814, symSize: 0x3C }
  - { offsetInCU: 0x76508, offset: 0x76508, size: 0x8, addend: 0x0, symName: __ZN9aiColor4tIfEC2Ev, symObjAddr: 0x27DA4, symBinAddr: 0x10002C850, symSize: 0x28 }
  - { offsetInCU: 0x76532, offset: 0x76532, size: 0x8, addend: 0x0, symName: __ZN9aiColor3DC2Efff, symObjAddr: 0x27DCC, symBinAddr: 0x10002C878, symSize: 0x38 }
  - { offsetInCU: 0x76586, offset: 0x76586, size: 0x8, addend: 0x0, symName: __ZNSt3__16vectorI9MeshColorNS_9allocatorIS1_EEE9__end_capB8ue170006Ev, symObjAddr: 0x27E04, symBinAddr: 0x10002C8B0, symSize: 0x28 }
  - { offsetInCU: 0x765AC, offset: 0x765AC, size: 0x8, addend: 0x0, symName: __ZNSt3__16vectorI9MeshColorNS_9allocatorIS1_EEE22__construct_one_at_endB8ue170006IJRKS1_EEEvDpOT_, symObjAddr: 0x27E2C, symBinAddr: 0x10002C8D8, symSize: 0x90 }
  - { offsetInCU: 0x765FB, offset: 0x765FB, size: 0x8, addend: 0x0, symName: __ZNSt3__16vectorI9MeshColorNS_9allocatorIS1_EEE21__push_back_slow_pathIRKS1_EEvOT_, symObjAddr: 0x27EBC, symBinAddr: 0x10002C968, symSize: 0xD8 }
  - { offsetInCU: 0x76659, offset: 0x76659, size: 0x8, addend: 0x0, symName: __ZNSt3__117__compressed_pairIP9MeshColorNS_9allocatorIS1_EEE5firstB8ue170006Ev, symObjAddr: 0x27F94, symBinAddr: 0x10002CA40, symSize: 0x24 }
  - { offsetInCU: 0x7667F, offset: 0x7667F, size: 0x8, addend: 0x0, symName: __ZNSt3__122__compressed_pair_elemIP9MeshColorLi0ELb0EE5__getB8ue170006Ev, symObjAddr: 0x27FB8, symBinAddr: 0x10002CA64, symSize: 0x14 }
  - { offsetInCU: 0x766BE, offset: 0x766BE, size: 0x8, addend: 0x0, symName: __ZNSt3__16vectorI9MeshColorNS_9allocatorIS1_EEE21_ConstructTransactionC1B8ue170006ERS4_m, symObjAddr: 0x27FCC, symBinAddr: 0x10002CA78, symSize: 0x3C }
  - { offsetInCU: 0x76706, offset: 0x76706, size: 0x8, addend: 0x0, symName: __ZNSt3__116allocator_traitsINS_9allocatorI9MeshColorEEE9constructB8ue170006IS2_JRKS2_EvEEvRS3_PT_DpOT0_, symObjAddr: 0x28008, symBinAddr: 0x10002CAB4, symSize: 0x34 }
  - { offsetInCU: 0x7675D, offset: 0x7675D, size: 0x8, addend: 0x0, symName: __ZNSt3__16vectorI9MeshColorNS_9allocatorIS1_EEE7__allocB8ue170006Ev, symObjAddr: 0x2803C, symBinAddr: 0x10002CAE8, symSize: 0x28 }
  - { offsetInCU: 0x76783, offset: 0x76783, size: 0x8, addend: 0x0, symName: __ZNSt3__16vectorI9MeshColorNS_9allocatorIS1_EEE21_ConstructTransactionD1B8ue170006Ev, symObjAddr: 0x28078, symBinAddr: 0x10002CB24, symSize: 0x2C }
  - { offsetInCU: 0x767AD, offset: 0x767AD, size: 0x8, addend: 0x0, symName: __ZNSt3__16vectorI9MeshColorNS_9allocatorIS1_EEE21_ConstructTransactionC2B8ue170006ERS4_m, symObjAddr: 0x280A4, symBinAddr: 0x10002CB50, symSize: 0x4C }
  - { offsetInCU: 0x767F5, offset: 0x767F5, size: 0x8, addend: 0x0, symName: __ZNSt3__19allocatorI9MeshColorE9constructB8ue170006IS1_JRKS1_EEEvPT_DpOT0_, symObjAddr: 0x280F0, symBinAddr: 0x10002CB9C, symSize: 0x30 }
  - { offsetInCU: 0x7684B, offset: 0x7684B, size: 0x8, addend: 0x0, symName: __ZN9MeshColorC1ERKS_, symObjAddr: 0x28120, symBinAddr: 0x10002CBCC, symSize: 0x34 }
  - { offsetInCU: 0x76880, offset: 0x76880, size: 0x8, addend: 0x0, symName: __ZN9MeshColorC2ERKS_, symObjAddr: 0x28154, symBinAddr: 0x10002CC00, symSize: 0x50 }
  - { offsetInCU: 0x768B5, offset: 0x768B5, size: 0x8, addend: 0x0, symName: __ZNSt3__117__compressed_pairIP9MeshColorNS_9allocatorIS1_EEE6secondB8ue170006Ev, symObjAddr: 0x281A4, symBinAddr: 0x10002CC50, symSize: 0x24 }
  - { offsetInCU: 0x768DB, offset: 0x768DB, size: 0x8, addend: 0x0, symName: __ZNSt3__122__compressed_pair_elemINS_9allocatorI9MeshColorEELi1ELb1EE5__getB8ue170006Ev, symObjAddr: 0x281C8, symBinAddr: 0x10002CC74, symSize: 0x14 }
  - { offsetInCU: 0x76901, offset: 0x76901, size: 0x8, addend: 0x0, symName: __ZNSt3__16vectorI9MeshColorNS_9allocatorIS1_EEE21_ConstructTransactionD2B8ue170006Ev, symObjAddr: 0x281DC, symBinAddr: 0x10002CC88, symSize: 0x20 }
  - { offsetInCU: 0x7692B, offset: 0x7692B, size: 0x8, addend: 0x0, symName: __ZNKSt3__16vectorI9MeshColorNS_9allocatorIS1_EEE11__recommendB8ue170006Em, symObjAddr: 0x281FC, symBinAddr: 0x10002CCA8, symSize: 0xB4 }
  - { offsetInCU: 0x76980, offset: 0x76980, size: 0x8, addend: 0x0, symName: __ZNKSt3__16vectorI9MeshColorNS_9allocatorIS1_EEE4sizeB8ue170006Ev, symObjAddr: 0x282B0, symBinAddr: 0x10002CD5C, symSize: 0x28 }
  - { offsetInCU: 0x769A6, offset: 0x769A6, size: 0x8, addend: 0x0, symName: __ZNSt3__114__split_bufferI9MeshColorRNS_9allocatorIS1_EEEC1EmmS4_, symObjAddr: 0x282D8, symBinAddr: 0x10002CD84, symSize: 0x44 }
  - { offsetInCU: 0x769FC, offset: 0x769FC, size: 0x8, addend: 0x0, symName: __ZNSt3__114__split_bufferI9MeshColorRNS_9allocatorIS1_EEED1Ev, symObjAddr: 0x2842C, symBinAddr: 0x10002CED8, symSize: 0x2C }
  - { offsetInCU: 0x76A28, offset: 0x76A28, size: 0x8, addend: 0x0, symName: __ZNKSt3__16vectorI9MeshColorNS_9allocatorIS1_EEE8max_sizeEv, symObjAddr: 0x28458, symBinAddr: 0x10002CF04, symSize: 0x60 }
  - { offsetInCU: 0x76A50, offset: 0x76A50, size: 0x8, addend: 0x0, symName: __ZNKSt3__16vectorI9MeshColorNS_9allocatorIS1_EEE20__throw_length_errorB8ue170006Ev, symObjAddr: 0x284B8, symBinAddr: 0x10002CF64, symSize: 0x1C }
  - { offsetInCU: 0x76A76, offset: 0x76A76, size: 0x8, addend: 0x0, symName: __ZNKSt3__16vectorI9MeshColorNS_9allocatorIS1_EEE8capacityB8ue170006Ev, symObjAddr: 0x284D4, symBinAddr: 0x10002CF80, symSize: 0x40 }
  - { offsetInCU: 0x76AA6, offset: 0x76AA6, size: 0x8, addend: 0x0, symName: __ZNSt3__116allocator_traitsINS_9allocatorI9MeshColorEEE8max_sizeB8ue170006IS3_vEEmRKS3_, symObjAddr: 0x28514, symBinAddr: 0x10002CFC0, symSize: 0x24 }
  - { offsetInCU: 0x76AD4, offset: 0x76AD4, size: 0x8, addend: 0x0, symName: __ZNKSt3__16vectorI9MeshColorNS_9allocatorIS1_EEE7__allocB8ue170006Ev, symObjAddr: 0x28538, symBinAddr: 0x10002CFE4, symSize: 0x28 }
  - { offsetInCU: 0x76AFA, offset: 0x76AFA, size: 0x8, addend: 0x0, symName: __ZNKSt3__19allocatorI9MeshColorE8max_sizeB8ue170006Ev, symObjAddr: 0x28560, symBinAddr: 0x10002D00C, symSize: 0x18 }
  - { offsetInCU: 0x76B20, offset: 0x76B20, size: 0x8, addend: 0x0, symName: __ZNKSt3__117__compressed_pairIP9MeshColorNS_9allocatorIS1_EEE6secondB8ue170006Ev, symObjAddr: 0x28578, symBinAddr: 0x10002D024, symSize: 0x24 }
  - { offsetInCU: 0x76B46, offset: 0x76B46, size: 0x8, addend: 0x0, symName: __ZNKSt3__122__compressed_pair_elemINS_9allocatorI9MeshColorEELi1ELb1EE5__getB8ue170006Ev, symObjAddr: 0x2859C, symBinAddr: 0x10002D048, symSize: 0x14 }
  - { offsetInCU: 0x76B6C, offset: 0x76B6C, size: 0x8, addend: 0x0, symName: __ZNKSt3__16vectorI9MeshColorNS_9allocatorIS1_EEE9__end_capB8ue170006Ev, symObjAddr: 0x285B0, symBinAddr: 0x10002D05C, symSize: 0x28 }
  - { offsetInCU: 0x76B92, offset: 0x76B92, size: 0x8, addend: 0x0, symName: __ZNKSt3__117__compressed_pairIP9MeshColorNS_9allocatorIS1_EEE5firstB8ue170006Ev, symObjAddr: 0x285D8, symBinAddr: 0x10002D084, symSize: 0x24 }
  - { offsetInCU: 0x76BB8, offset: 0x76BB8, size: 0x8, addend: 0x0, symName: __ZNKSt3__122__compressed_pair_elemIP9MeshColorLi0ELb0EE5__getB8ue170006Ev, symObjAddr: 0x285FC, symBinAddr: 0x10002D0A8, symSize: 0x14 }
  - { offsetInCU: 0x76BDE, offset: 0x76BDE, size: 0x8, addend: 0x0, symName: __ZNSt3__114__split_bufferI9MeshColorRNS_9allocatorIS1_EEEC2EmmS4_, symObjAddr: 0x28610, symBinAddr: 0x10002D0BC, symSize: 0xE0 }
  - { offsetInCU: 0x76C52, offset: 0x76C52, size: 0x8, addend: 0x0, symName: __ZNSt3__117__compressed_pairIP9MeshColorRNS_9allocatorIS1_EEEC1B8ue170006IDnS5_EEOT_OT0_, symObjAddr: 0x286F0, symBinAddr: 0x10002D19C, symSize: 0x3C }
  - { offsetInCU: 0x76CAA, offset: 0x76CAA, size: 0x8, addend: 0x0, symName: __ZNSt3__114__split_bufferI9MeshColorRNS_9allocatorIS1_EEE7__allocB8ue170006Ev, symObjAddr: 0x2876C, symBinAddr: 0x10002D218, symSize: 0x28 }
  - { offsetInCU: 0x76CD0, offset: 0x76CD0, size: 0x8, addend: 0x0, symName: __ZNSt3__114__split_bufferI9MeshColorRNS_9allocatorIS1_EEE9__end_capB8ue170006Ev, symObjAddr: 0x28794, symBinAddr: 0x10002D240, symSize: 0x28 }
  - { offsetInCU: 0x76CF6, offset: 0x76CF6, size: 0x8, addend: 0x0, symName: __ZNSt3__117__compressed_pairIP9MeshColorRNS_9allocatorIS1_EEEC2B8ue170006IDnS5_EEOT_OT0_, symObjAddr: 0x287BC, symBinAddr: 0x10002D268, symSize: 0x48 }
  - { offsetInCU: 0x76D4E, offset: 0x76D4E, size: 0x8, addend: 0x0, symName: __ZNSt3__122__compressed_pair_elemIRNS_9allocatorI9MeshColorEELi1ELb0EEC2B8ue170006IS4_vEEOT_, symObjAddr: 0x28804, symBinAddr: 0x10002D2B0, symSize: 0x20 }
  - { offsetInCU: 0x76D90, offset: 0x76D90, size: 0x8, addend: 0x0, symName: __ZNSt3__19allocatorI9MeshColorE8allocateB8ue170006Em, symObjAddr: 0x28824, symBinAddr: 0x10002D2D0, symSize: 0x5C }
  - { offsetInCU: 0x76DC4, offset: 0x76DC4, size: 0x8, addend: 0x0, symName: __ZNSt3__117__compressed_pairIP9MeshColorRNS_9allocatorIS1_EEE6secondB8ue170006Ev, symObjAddr: 0x28880, symBinAddr: 0x10002D32C, symSize: 0x28 }
  - { offsetInCU: 0x76DEA, offset: 0x76DEA, size: 0x8, addend: 0x0, symName: __ZNSt3__122__compressed_pair_elemIRNS_9allocatorI9MeshColorEELi1ELb0EE5__getB8ue170006Ev, symObjAddr: 0x288A8, symBinAddr: 0x10002D354, symSize: 0x18 }
  - { offsetInCU: 0x76E10, offset: 0x76E10, size: 0x8, addend: 0x0, symName: __ZNSt3__117__compressed_pairIP9MeshColorRNS_9allocatorIS1_EEE5firstB8ue170006Ev, symObjAddr: 0x288C0, symBinAddr: 0x10002D36C, symSize: 0x24 }
  - { offsetInCU: 0x76E36, offset: 0x76E36, size: 0x8, addend: 0x0, symName: __ZNKSt3__16vectorI9MeshColorNS_9allocatorIS1_EEE17__annotate_deleteB8ue170006Ev, symObjAddr: 0x288E4, symBinAddr: 0x10002D390, symSize: 0xD4 }
  - { offsetInCU: 0x76E5C, offset: 0x76E5C, size: 0x8, addend: 0x0, symName: __ZNSt3__116reverse_iteratorIP9MeshColorEC1B8ue170006ES2_, symObjAddr: 0x28AE4, symBinAddr: 0x10002D590, symSize: 0x34 }
  - { offsetInCU: 0x76E94, offset: 0x76E94, size: 0x8, addend: 0x0, symName: __ZNKSt3__116reverse_iteratorIP9MeshColorE4baseB8ue170006Ev, symObjAddr: 0x28B18, symBinAddr: 0x10002D5C4, symSize: 0x18 }
  - { offsetInCU: 0x76EBA, offset: 0x76EBA, size: 0x8, addend: 0x0, symName: __ZNKSt3__16vectorI9MeshColorNS_9allocatorIS1_EEE14__annotate_newB8ue170006Em, symObjAddr: 0x28B6C, symBinAddr: 0x10002D618, symSize: 0xC8 }
  - { offsetInCU: 0x76EEF, offset: 0x76EEF, size: 0x8, addend: 0x0, symName: __ZNKSt3__16vectorI9MeshColorNS_9allocatorIS1_EEE31__annotate_contiguous_containerB8ue170006EPKvS6_S6_S6_, symObjAddr: 0x28C34, symBinAddr: 0x10002D6E0, symSize: 0x20 }
  - { offsetInCU: 0x76F45, offset: 0x76F45, size: 0x8, addend: 0x0, symName: __ZNKSt3__16vectorI9MeshColorNS_9allocatorIS1_EEE4dataB8ue170006Ev, symObjAddr: 0x28C54, symBinAddr: 0x10002D700, symSize: 0x28 }
  - { offsetInCU: 0x76F6B, offset: 0x76F6B, size: 0x8, addend: 0x0, symName: __ZNSt3__129_AllocatorDestroyRangeReverseINS_9allocatorI9MeshColorEENS_16reverse_iteratorIPS2_EEEC1B8ue170006ERS3_RS6_S9_, symObjAddr: 0x28CC8, symBinAddr: 0x10002D774, symSize: 0x44 }
  - { offsetInCU: 0x76FC8, offset: 0x76FC8, size: 0x8, addend: 0x0, symName: __ZNSt3__116allocator_traitsINS_9allocatorI9MeshColorEEE9constructB8ue170006IS2_JS2_EvEEvRS3_PT_DpOT0_, symObjAddr: 0x28D54, symBinAddr: 0x10002D800, symSize: 0x34 }
  - { offsetInCU: 0x7701F, offset: 0x7701F, size: 0x8, addend: 0x0, symName: __ZNKSt3__116reverse_iteratorIP9MeshColorEdeB8ue170006Ev, symObjAddr: 0x28DAC, symBinAddr: 0x10002D858, symSize: 0x28 }
  - { offsetInCU: 0x77053, offset: 0x77053, size: 0x8, addend: 0x0, symName: __ZNSt3__116reverse_iteratorIP9MeshColorEppB8ue170006Ev, symObjAddr: 0x28DD4, symBinAddr: 0x10002D880, symSize: 0x20 }
  - { offsetInCU: 0x77079, offset: 0x77079, size: 0x8, addend: 0x0, symName: __ZNSt3__128__exception_guard_exceptionsINS_29_AllocatorDestroyRangeReverseINS_9allocatorI9MeshColorEENS_16reverse_iteratorIPS3_EEEEE10__completeB8ue170006Ev, symObjAddr: 0x28DF4, symBinAddr: 0x10002D8A0, symSize: 0x1C }
  - { offsetInCU: 0x7709F, offset: 0x7709F, size: 0x8, addend: 0x0, symName: __ZNSt3__128__exception_guard_exceptionsINS_29_AllocatorDestroyRangeReverseINS_9allocatorI9MeshColorEENS_16reverse_iteratorIPS3_EEEEED1B8ue170006Ev, symObjAddr: 0x28E10, symBinAddr: 0x10002D8BC, symSize: 0x2C }
  - { offsetInCU: 0x770C9, offset: 0x770C9, size: 0x8, addend: 0x0, symName: __ZNSt3__128__exception_guard_exceptionsINS_29_AllocatorDestroyRangeReverseINS_9allocatorI9MeshColorEENS_16reverse_iteratorIPS3_EEEEEC1B8ue170006ES8_, symObjAddr: 0x28E3C, symBinAddr: 0x10002D8E8, symSize: 0x34 }
  - { offsetInCU: 0x77102, offset: 0x77102, size: 0x8, addend: 0x0, symName: __ZNSt3__128__exception_guard_exceptionsINS_29_AllocatorDestroyRangeReverseINS_9allocatorI9MeshColorEENS_16reverse_iteratorIPS3_EEEEEC2B8ue170006ES8_, symObjAddr: 0x28E70, symBinAddr: 0x10002D91C, symSize: 0x30 }
  - { offsetInCU: 0x7713B, offset: 0x7713B, size: 0x8, addend: 0x0, symName: __ZNSt3__129_AllocatorDestroyRangeReverseINS_9allocatorI9MeshColorEENS_16reverse_iteratorIPS2_EEEC2B8ue170006ERS3_RS6_S9_, symObjAddr: 0x28EA0, symBinAddr: 0x10002D94C, symSize: 0x38 }
  - { offsetInCU: 0x77192, offset: 0x77192, size: 0x8, addend: 0x0, symName: __ZNSt3__19allocatorI9MeshColorE9constructB8ue170006IS1_JS1_EEEvPT_DpOT0_, symObjAddr: 0x28ED8, symBinAddr: 0x10002D984, symSize: 0x30 }
  - { offsetInCU: 0x771E8, offset: 0x771E8, size: 0x8, addend: 0x0, symName: __ZN9MeshColorC1EOS_, symObjAddr: 0x28F08, symBinAddr: 0x10002D9B4, symSize: 0x34 }
  - { offsetInCU: 0x7721D, offset: 0x7721D, size: 0x8, addend: 0x0, symName: __ZN9MeshColorC2EOS_, symObjAddr: 0x28F3C, symBinAddr: 0x10002D9E8, symSize: 0x50 }
  - { offsetInCU: 0x77257, offset: 0x77257, size: 0x8, addend: 0x0, symName: __ZNSt3__119__to_address_helperINS_16reverse_iteratorIP9MeshColorEEvE6__callB8ue170006ERKS4_, symObjAddr: 0x28F8C, symBinAddr: 0x10002DA38, symSize: 0x38 }
  - { offsetInCU: 0x7727A, offset: 0x7727A, size: 0x8, addend: 0x0, symName: __ZNKSt3__116reverse_iteratorIP9MeshColorEptB8ue170006Ev, symObjAddr: 0x28FC4, symBinAddr: 0x10002DA70, symSize: 0x24 }
  - { offsetInCU: 0x772A0, offset: 0x772A0, size: 0x8, addend: 0x0, symName: __ZNSt3__128__exception_guard_exceptionsINS_29_AllocatorDestroyRangeReverseINS_9allocatorI9MeshColorEENS_16reverse_iteratorIPS3_EEEEED2B8ue170006Ev, symObjAddr: 0x28FE8, symBinAddr: 0x10002DA94, symSize: 0x50 }
  - { offsetInCU: 0x772CA, offset: 0x772CA, size: 0x8, addend: 0x0, symName: __ZNKSt3__129_AllocatorDestroyRangeReverseINS_9allocatorI9MeshColorEENS_16reverse_iteratorIPS2_EEEclB8ue170006Ev, symObjAddr: 0x29038, symBinAddr: 0x10002DAE4, symSize: 0xB4 }
  - { offsetInCU: 0x772F1, offset: 0x772F1, size: 0x8, addend: 0x0, symName: __ZNSt3__116reverse_iteratorINS0_IP9MeshColorEEEC1B8ue170006ES3_, symObjAddr: 0x2915C, symBinAddr: 0x10002DC08, symSize: 0x3C }
  - { offsetInCU: 0x77329, offset: 0x77329, size: 0x8, addend: 0x0, symName: __ZNSt3__116allocator_traitsINS_9allocatorI9MeshColorEEE7destroyB8ue170006IS2_vEEvRS3_PT_, symObjAddr: 0x291F8, symBinAddr: 0x10002DCA4, symSize: 0x2C }
  - { offsetInCU: 0x77366, offset: 0x77366, size: 0x8, addend: 0x0, symName: __ZNSt3__116reverse_iteratorINS0_IP9MeshColorEEEppB8ue170006Ev, symObjAddr: 0x29248, symBinAddr: 0x10002DCF4, symSize: 0x30 }
  - { offsetInCU: 0x7738C, offset: 0x7738C, size: 0x8, addend: 0x0, symName: __ZNKSt3__116reverse_iteratorINS0_IP9MeshColorEEE4baseB8ue170006Ev, symObjAddr: 0x29278, symBinAddr: 0x10002DD24, symSize: 0x24 }
  - { offsetInCU: 0x773B2, offset: 0x773B2, size: 0x8, addend: 0x0, symName: __ZNSt3__19allocatorI9MeshColorE7destroyB8ue170006EPS1_, symObjAddr: 0x2929C, symBinAddr: 0x10002DD48, symSize: 0x28 }
  - { offsetInCU: 0x773EB, offset: 0x773EB, size: 0x8, addend: 0x0, symName: __ZNSt3__119__to_address_helperINS_16reverse_iteratorINS1_IP9MeshColorEEEEvE6__callB8ue170006ERKS5_, symObjAddr: 0x292C4, symBinAddr: 0x10002DD70, symSize: 0x38 }
  - { offsetInCU: 0x7740E, offset: 0x7740E, size: 0x8, addend: 0x0, symName: __ZNKSt3__116reverse_iteratorINS0_IP9MeshColorEEEptB8ue170006Ev, symObjAddr: 0x292FC, symBinAddr: 0x10002DDA8, symSize: 0x24 }
  - { offsetInCU: 0x77434, offset: 0x77434, size: 0x8, addend: 0x0, symName: __ZNKSt3__116reverse_iteratorINS0_IP9MeshColorEEEdeB8ue170006Ev, symObjAddr: 0x29320, symBinAddr: 0x10002DDCC, symSize: 0x34 }
  - { offsetInCU: 0x77468, offset: 0x77468, size: 0x8, addend: 0x0, symName: __ZNSt3__116reverse_iteratorIP9MeshColorEmmB8ue170006Ev, symObjAddr: 0x29354, symBinAddr: 0x10002DE00, symSize: 0x20 }
  - { offsetInCU: 0x7748E, offset: 0x7748E, size: 0x8, addend: 0x0, symName: __ZNSt3__116reverse_iteratorINS0_IP9MeshColorEEEC2B8ue170006ES3_, symObjAddr: 0x29374, symBinAddr: 0x10002DE20, symSize: 0x2C }
  - { offsetInCU: 0x774C6, offset: 0x774C6, size: 0x8, addend: 0x0, symName: __ZNSt3__116reverse_iteratorIP9MeshColorEC2B8ue170006ES2_, symObjAddr: 0x293A0, symBinAddr: 0x10002DE4C, symSize: 0x28 }
  - { offsetInCU: 0x774FE, offset: 0x774FE, size: 0x8, addend: 0x0, symName: __ZNSt3__114__split_bufferI9MeshColorRNS_9allocatorIS1_EEED2Ev, symObjAddr: 0x293C8, symBinAddr: 0x10002DE74, symSize: 0x8C }
  - { offsetInCU: 0x7752A, offset: 0x7752A, size: 0x8, addend: 0x0, symName: __ZNSt3__114__split_bufferI9MeshColorRNS_9allocatorIS1_EEE5clearB8ue170006Ev, symObjAddr: 0x29454, symBinAddr: 0x10002DF00, symSize: 0x28 }
  - { offsetInCU: 0x77550, offset: 0x77550, size: 0x8, addend: 0x0, symName: __ZNSt3__116allocator_traitsINS_9allocatorI9MeshColorEEE10deallocateB8ue170006ERS3_PS2_m, symObjAddr: 0x2947C, symBinAddr: 0x10002DF28, symSize: 0x34 }
  - { offsetInCU: 0x77592, offset: 0x77592, size: 0x8, addend: 0x0, symName: __ZNKSt3__114__split_bufferI9MeshColorRNS_9allocatorIS1_EEE8capacityB8ue170006Ev, symObjAddr: 0x294B0, symBinAddr: 0x10002DF5C, symSize: 0x40 }
  - { offsetInCU: 0x775B8, offset: 0x775B8, size: 0x8, addend: 0x0, symName: __ZNSt3__114__split_bufferI9MeshColorRNS_9allocatorIS1_EEE17__destruct_at_endB8ue170006EPS1_, symObjAddr: 0x294F0, symBinAddr: 0x10002DF9C, symSize: 0x2C }
  - { offsetInCU: 0x775EC, offset: 0x775EC, size: 0x8, addend: 0x0, symName: __ZNSt3__114__split_bufferI9MeshColorRNS_9allocatorIS1_EEE17__destruct_at_endB8ue170006EPS1_NS_17integral_constantIbLb0EEE, symObjAddr: 0x2951C, symBinAddr: 0x10002DFC8, symSize: 0x80 }
  - { offsetInCU: 0x7762D, offset: 0x7762D, size: 0x8, addend: 0x0, symName: __ZNSt3__19allocatorI9MeshColorE10deallocateB8ue170006EPS1_m, symObjAddr: 0x2959C, symBinAddr: 0x10002E048, symSize: 0x44 }
  - { offsetInCU: 0x7766F, offset: 0x7766F, size: 0x8, addend: 0x0, symName: __ZNKSt3__114__split_bufferI9MeshColorRNS_9allocatorIS1_EEE9__end_capB8ue170006Ev, symObjAddr: 0x295E0, symBinAddr: 0x10002E08C, symSize: 0x28 }
  - { offsetInCU: 0x77695, offset: 0x77695, size: 0x8, addend: 0x0, symName: __ZNKSt3__117__compressed_pairIP9MeshColorRNS_9allocatorIS1_EEE5firstB8ue170006Ev, symObjAddr: 0x29608, symBinAddr: 0x10002E0B4, symSize: 0x24 }
  - { offsetInCU: 0x776BB, offset: 0x776BB, size: 0x8, addend: 0x0, symName: __ZN10MeshScalarC2Ev, symObjAddr: 0x2962C, symBinAddr: 0x10002E0D8, symSize: 0x30 }
  - { offsetInCU: 0x776E7, offset: 0x776E7, size: 0x8, addend: 0x0, symName: _aiGetMaterialFloat, symObjAddr: 0x2965C, symBinAddr: 0x10002E108, symSize: 0x48 }
  - { offsetInCU: 0x7774E, offset: 0x7774E, size: 0x8, addend: 0x0, symName: __ZNSt3__16vectorI10MeshScalarNS_9allocatorIS1_EEE9__end_capB8ue170006Ev, symObjAddr: 0x296A4, symBinAddr: 0x10002E150, symSize: 0x28 }
  - { offsetInCU: 0x77774, offset: 0x77774, size: 0x8, addend: 0x0, symName: __ZNSt3__16vectorI10MeshScalarNS_9allocatorIS1_EEE22__construct_one_at_endB8ue170006IJRKS1_EEEvDpOT_, symObjAddr: 0x296CC, symBinAddr: 0x10002E178, symSize: 0x90 }
  - { offsetInCU: 0x777C3, offset: 0x777C3, size: 0x8, addend: 0x0, symName: __ZNSt3__16vectorI10MeshScalarNS_9allocatorIS1_EEE21__push_back_slow_pathIRKS1_EEvOT_, symObjAddr: 0x2975C, symBinAddr: 0x10002E208, symSize: 0xD8 }
  - { offsetInCU: 0x77821, offset: 0x77821, size: 0x8, addend: 0x0, symName: __ZNSt3__117__compressed_pairIP10MeshScalarNS_9allocatorIS1_EEE5firstB8ue170006Ev, symObjAddr: 0x29834, symBinAddr: 0x10002E2E0, symSize: 0x24 }
  - { offsetInCU: 0x77847, offset: 0x77847, size: 0x8, addend: 0x0, symName: __ZNSt3__122__compressed_pair_elemIP10MeshScalarLi0ELb0EE5__getB8ue170006Ev, symObjAddr: 0x29858, symBinAddr: 0x10002E304, symSize: 0x14 }
  - { offsetInCU: 0x77886, offset: 0x77886, size: 0x8, addend: 0x0, symName: __ZNSt3__16vectorI10MeshScalarNS_9allocatorIS1_EEE21_ConstructTransactionC1B8ue170006ERS4_m, symObjAddr: 0x2986C, symBinAddr: 0x10002E318, symSize: 0x3C }
  - { offsetInCU: 0x778CE, offset: 0x778CE, size: 0x8, addend: 0x0, symName: __ZNSt3__116allocator_traitsINS_9allocatorI10MeshScalarEEE9constructB8ue170006IS2_JRKS2_EvEEvRS3_PT_DpOT0_, symObjAddr: 0x298A8, symBinAddr: 0x10002E354, symSize: 0x34 }
  - { offsetInCU: 0x77925, offset: 0x77925, size: 0x8, addend: 0x0, symName: __ZNSt3__16vectorI10MeshScalarNS_9allocatorIS1_EEE7__allocB8ue170006Ev, symObjAddr: 0x298DC, symBinAddr: 0x10002E388, symSize: 0x28 }
  - { offsetInCU: 0x7794B, offset: 0x7794B, size: 0x8, addend: 0x0, symName: __ZNSt3__16vectorI10MeshScalarNS_9allocatorIS1_EEE21_ConstructTransactionD1B8ue170006Ev, symObjAddr: 0x29918, symBinAddr: 0x10002E3C4, symSize: 0x2C }
  - { offsetInCU: 0x77975, offset: 0x77975, size: 0x8, addend: 0x0, symName: __ZNSt3__16vectorI10MeshScalarNS_9allocatorIS1_EEE21_ConstructTransactionC2B8ue170006ERS4_m, symObjAddr: 0x29944, symBinAddr: 0x10002E3F0, symSize: 0x44 }
  - { offsetInCU: 0x779BD, offset: 0x779BD, size: 0x8, addend: 0x0, symName: __ZNSt3__19allocatorI10MeshScalarE9constructB8ue170006IS1_JRKS1_EEEvPT_DpOT0_, symObjAddr: 0x29988, symBinAddr: 0x10002E434, symSize: 0x30 }
  - { offsetInCU: 0x77A13, offset: 0x77A13, size: 0x8, addend: 0x0, symName: __ZN10MeshScalarC1ERKS_, symObjAddr: 0x299B8, symBinAddr: 0x10002E464, symSize: 0x34 }
  - { offsetInCU: 0x77A48, offset: 0x77A48, size: 0x8, addend: 0x0, symName: __ZN10MeshScalarC2ERKS_, symObjAddr: 0x299EC, symBinAddr: 0x10002E498, symSize: 0x48 }
  - { offsetInCU: 0x77A7D, offset: 0x77A7D, size: 0x8, addend: 0x0, symName: __ZNSt3__117__compressed_pairIP10MeshScalarNS_9allocatorIS1_EEE6secondB8ue170006Ev, symObjAddr: 0x29A34, symBinAddr: 0x10002E4E0, symSize: 0x24 }
  - { offsetInCU: 0x77AA3, offset: 0x77AA3, size: 0x8, addend: 0x0, symName: __ZNSt3__122__compressed_pair_elemINS_9allocatorI10MeshScalarEELi1ELb1EE5__getB8ue170006Ev, symObjAddr: 0x29A58, symBinAddr: 0x10002E504, symSize: 0x14 }
  - { offsetInCU: 0x77AC9, offset: 0x77AC9, size: 0x8, addend: 0x0, symName: __ZNSt3__16vectorI10MeshScalarNS_9allocatorIS1_EEE21_ConstructTransactionD2B8ue170006Ev, symObjAddr: 0x29A6C, symBinAddr: 0x10002E518, symSize: 0x20 }
  - { offsetInCU: 0x77AF3, offset: 0x77AF3, size: 0x8, addend: 0x0, symName: __ZNKSt3__16vectorI10MeshScalarNS_9allocatorIS1_EEE11__recommendB8ue170006Em, symObjAddr: 0x29A8C, symBinAddr: 0x10002E538, symSize: 0xB4 }
  - { offsetInCU: 0x77B48, offset: 0x77B48, size: 0x8, addend: 0x0, symName: __ZNKSt3__16vectorI10MeshScalarNS_9allocatorIS1_EEE4sizeB8ue170006Ev, symObjAddr: 0x29B40, symBinAddr: 0x10002E5EC, symSize: 0x28 }
  - { offsetInCU: 0x77B6E, offset: 0x77B6E, size: 0x8, addend: 0x0, symName: __ZNSt3__114__split_bufferI10MeshScalarRNS_9allocatorIS1_EEEC1EmmS4_, symObjAddr: 0x29B68, symBinAddr: 0x10002E614, symSize: 0x44 }
  - { offsetInCU: 0x77BC4, offset: 0x77BC4, size: 0x8, addend: 0x0, symName: __ZNSt3__114__split_bufferI10MeshScalarRNS_9allocatorIS1_EEED1Ev, symObjAddr: 0x29CBC, symBinAddr: 0x10002E768, symSize: 0x2C }
  - { offsetInCU: 0x77BF0, offset: 0x77BF0, size: 0x8, addend: 0x0, symName: __ZNKSt3__16vectorI10MeshScalarNS_9allocatorIS1_EEE8max_sizeEv, symObjAddr: 0x29CE8, symBinAddr: 0x10002E794, symSize: 0x60 }
  - { offsetInCU: 0x77C18, offset: 0x77C18, size: 0x8, addend: 0x0, symName: __ZNKSt3__16vectorI10MeshScalarNS_9allocatorIS1_EEE20__throw_length_errorB8ue170006Ev, symObjAddr: 0x29D48, symBinAddr: 0x10002E7F4, symSize: 0x1C }
  - { offsetInCU: 0x77C3E, offset: 0x77C3E, size: 0x8, addend: 0x0, symName: __ZNKSt3__16vectorI10MeshScalarNS_9allocatorIS1_EEE8capacityB8ue170006Ev, symObjAddr: 0x29D64, symBinAddr: 0x10002E810, symSize: 0x40 }
  - { offsetInCU: 0x77C6E, offset: 0x77C6E, size: 0x8, addend: 0x0, symName: __ZNSt3__116allocator_traitsINS_9allocatorI10MeshScalarEEE8max_sizeB8ue170006IS3_vEEmRKS3_, symObjAddr: 0x29DA4, symBinAddr: 0x10002E850, symSize: 0x24 }
  - { offsetInCU: 0x77C9C, offset: 0x77C9C, size: 0x8, addend: 0x0, symName: __ZNKSt3__16vectorI10MeshScalarNS_9allocatorIS1_EEE7__allocB8ue170006Ev, symObjAddr: 0x29DC8, symBinAddr: 0x10002E874, symSize: 0x28 }
  - { offsetInCU: 0x77CC2, offset: 0x77CC2, size: 0x8, addend: 0x0, symName: __ZNKSt3__19allocatorI10MeshScalarE8max_sizeB8ue170006Ev, symObjAddr: 0x29DF0, symBinAddr: 0x10002E89C, symSize: 0x14 }
  - { offsetInCU: 0x77CE8, offset: 0x77CE8, size: 0x8, addend: 0x0, symName: __ZNKSt3__117__compressed_pairIP10MeshScalarNS_9allocatorIS1_EEE6secondB8ue170006Ev, symObjAddr: 0x29E04, symBinAddr: 0x10002E8B0, symSize: 0x24 }
  - { offsetInCU: 0x77D0E, offset: 0x77D0E, size: 0x8, addend: 0x0, symName: __ZNKSt3__122__compressed_pair_elemINS_9allocatorI10MeshScalarEELi1ELb1EE5__getB8ue170006Ev, symObjAddr: 0x29E28, symBinAddr: 0x10002E8D4, symSize: 0x14 }
  - { offsetInCU: 0x77D34, offset: 0x77D34, size: 0x8, addend: 0x0, symName: __ZNKSt3__16vectorI10MeshScalarNS_9allocatorIS1_EEE9__end_capB8ue170006Ev, symObjAddr: 0x29E3C, symBinAddr: 0x10002E8E8, symSize: 0x28 }
  - { offsetInCU: 0x77D5A, offset: 0x77D5A, size: 0x8, addend: 0x0, symName: __ZNKSt3__117__compressed_pairIP10MeshScalarNS_9allocatorIS1_EEE5firstB8ue170006Ev, symObjAddr: 0x29E64, symBinAddr: 0x10002E910, symSize: 0x24 }
  - { offsetInCU: 0x77D80, offset: 0x77D80, size: 0x8, addend: 0x0, symName: __ZNKSt3__122__compressed_pair_elemIP10MeshScalarLi0ELb0EE5__getB8ue170006Ev, symObjAddr: 0x29E88, symBinAddr: 0x10002E934, symSize: 0x14 }
  - { offsetInCU: 0x77DA6, offset: 0x77DA6, size: 0x8, addend: 0x0, symName: __ZNSt3__114__split_bufferI10MeshScalarRNS_9allocatorIS1_EEEC2EmmS4_, symObjAddr: 0x29E9C, symBinAddr: 0x10002E948, symSize: 0xD4 }
  - { offsetInCU: 0x77E1A, offset: 0x77E1A, size: 0x8, addend: 0x0, symName: __ZNSt3__117__compressed_pairIP10MeshScalarRNS_9allocatorIS1_EEEC1B8ue170006IDnS5_EEOT_OT0_, symObjAddr: 0x29F70, symBinAddr: 0x10002EA1C, symSize: 0x3C }
  - { offsetInCU: 0x77E72, offset: 0x77E72, size: 0x8, addend: 0x0, symName: __ZNSt3__114__split_bufferI10MeshScalarRNS_9allocatorIS1_EEE7__allocB8ue170006Ev, symObjAddr: 0x29FEC, symBinAddr: 0x10002EA98, symSize: 0x28 }
  - { offsetInCU: 0x77E98, offset: 0x77E98, size: 0x8, addend: 0x0, symName: __ZNSt3__114__split_bufferI10MeshScalarRNS_9allocatorIS1_EEE9__end_capB8ue170006Ev, symObjAddr: 0x2A014, symBinAddr: 0x10002EAC0, symSize: 0x28 }
  - { offsetInCU: 0x77EBE, offset: 0x77EBE, size: 0x8, addend: 0x0, symName: __ZNSt3__117__compressed_pairIP10MeshScalarRNS_9allocatorIS1_EEEC2B8ue170006IDnS5_EEOT_OT0_, symObjAddr: 0x2A03C, symBinAddr: 0x10002EAE8, symSize: 0x48 }
  - { offsetInCU: 0x77F16, offset: 0x77F16, size: 0x8, addend: 0x0, symName: __ZNSt3__122__compressed_pair_elemIRNS_9allocatorI10MeshScalarEELi1ELb0EEC2B8ue170006IS4_vEEOT_, symObjAddr: 0x2A084, symBinAddr: 0x10002EB30, symSize: 0x20 }
  - { offsetInCU: 0x77F58, offset: 0x77F58, size: 0x8, addend: 0x0, symName: __ZNSt3__19allocatorI10MeshScalarE8allocateB8ue170006Em, symObjAddr: 0x2A0A4, symBinAddr: 0x10002EB50, symSize: 0x58 }
  - { offsetInCU: 0x77F8C, offset: 0x77F8C, size: 0x8, addend: 0x0, symName: __ZNSt3__117__compressed_pairIP10MeshScalarRNS_9allocatorIS1_EEE6secondB8ue170006Ev, symObjAddr: 0x2A0FC, symBinAddr: 0x10002EBA8, symSize: 0x28 }
  - { offsetInCU: 0x77FB2, offset: 0x77FB2, size: 0x8, addend: 0x0, symName: __ZNSt3__122__compressed_pair_elemIRNS_9allocatorI10MeshScalarEELi1ELb0EE5__getB8ue170006Ev, symObjAddr: 0x2A124, symBinAddr: 0x10002EBD0, symSize: 0x18 }
  - { offsetInCU: 0x77FD8, offset: 0x77FD8, size: 0x8, addend: 0x0, symName: __ZNSt3__117__compressed_pairIP10MeshScalarRNS_9allocatorIS1_EEE5firstB8ue170006Ev, symObjAddr: 0x2A13C, symBinAddr: 0x10002EBE8, symSize: 0x24 }
  - { offsetInCU: 0x77FFE, offset: 0x77FFE, size: 0x8, addend: 0x0, symName: __ZNKSt3__16vectorI10MeshScalarNS_9allocatorIS1_EEE17__annotate_deleteB8ue170006Ev, symObjAddr: 0x2A160, symBinAddr: 0x10002EC0C, symSize: 0xB8 }
  - { offsetInCU: 0x78024, offset: 0x78024, size: 0x8, addend: 0x0, symName: __ZNSt3__116reverse_iteratorIP10MeshScalarEC1B8ue170006ES2_, symObjAddr: 0x2A344, symBinAddr: 0x10002EDF0, symSize: 0x34 }
  - { offsetInCU: 0x7805C, offset: 0x7805C, size: 0x8, addend: 0x0, symName: __ZNKSt3__116reverse_iteratorIP10MeshScalarE4baseB8ue170006Ev, symObjAddr: 0x2A378, symBinAddr: 0x10002EE24, symSize: 0x18 }
  - { offsetInCU: 0x78082, offset: 0x78082, size: 0x8, addend: 0x0, symName: __ZNKSt3__16vectorI10MeshScalarNS_9allocatorIS1_EEE14__annotate_newB8ue170006Em, symObjAddr: 0x2A3CC, symBinAddr: 0x10002EE78, symSize: 0xAC }
  - { offsetInCU: 0x780B7, offset: 0x780B7, size: 0x8, addend: 0x0, symName: __ZNKSt3__16vectorI10MeshScalarNS_9allocatorIS1_EEE31__annotate_contiguous_containerB8ue170006EPKvS6_S6_S6_, symObjAddr: 0x2A478, symBinAddr: 0x10002EF24, symSize: 0x20 }
  - { offsetInCU: 0x7810D, offset: 0x7810D, size: 0x8, addend: 0x0, symName: __ZNKSt3__16vectorI10MeshScalarNS_9allocatorIS1_EEE4dataB8ue170006Ev, symObjAddr: 0x2A498, symBinAddr: 0x10002EF44, symSize: 0x28 }
  - { offsetInCU: 0x78133, offset: 0x78133, size: 0x8, addend: 0x0, symName: __ZNSt3__129_AllocatorDestroyRangeReverseINS_9allocatorI10MeshScalarEENS_16reverse_iteratorIPS2_EEEC1B8ue170006ERS3_RS6_S9_, symObjAddr: 0x2A50C, symBinAddr: 0x10002EFB8, symSize: 0x44 }
  - { offsetInCU: 0x78190, offset: 0x78190, size: 0x8, addend: 0x0, symName: __ZNSt3__116allocator_traitsINS_9allocatorI10MeshScalarEEE9constructB8ue170006IS2_JS2_EvEEvRS3_PT_DpOT0_, symObjAddr: 0x2A598, symBinAddr: 0x10002F044, symSize: 0x34 }
  - { offsetInCU: 0x781E7, offset: 0x781E7, size: 0x8, addend: 0x0, symName: __ZNKSt3__116reverse_iteratorIP10MeshScalarEdeB8ue170006Ev, symObjAddr: 0x2A5F0, symBinAddr: 0x10002F09C, symSize: 0x28 }
  - { offsetInCU: 0x7821B, offset: 0x7821B, size: 0x8, addend: 0x0, symName: __ZNSt3__116reverse_iteratorIP10MeshScalarEppB8ue170006Ev, symObjAddr: 0x2A618, symBinAddr: 0x10002F0C4, symSize: 0x20 }
  - { offsetInCU: 0x78241, offset: 0x78241, size: 0x8, addend: 0x0, symName: __ZNSt3__128__exception_guard_exceptionsINS_29_AllocatorDestroyRangeReverseINS_9allocatorI10MeshScalarEENS_16reverse_iteratorIPS3_EEEEE10__completeB8ue170006Ev, symObjAddr: 0x2A638, symBinAddr: 0x10002F0E4, symSize: 0x1C }
  - { offsetInCU: 0x78267, offset: 0x78267, size: 0x8, addend: 0x0, symName: __ZNSt3__128__exception_guard_exceptionsINS_29_AllocatorDestroyRangeReverseINS_9allocatorI10MeshScalarEENS_16reverse_iteratorIPS3_EEEEED1B8ue170006Ev, symObjAddr: 0x2A654, symBinAddr: 0x10002F100, symSize: 0x2C }
  - { offsetInCU: 0x78291, offset: 0x78291, size: 0x8, addend: 0x0, symName: __ZNSt3__128__exception_guard_exceptionsINS_29_AllocatorDestroyRangeReverseINS_9allocatorI10MeshScalarEENS_16reverse_iteratorIPS3_EEEEEC1B8ue170006ES8_, symObjAddr: 0x2A680, symBinAddr: 0x10002F12C, symSize: 0x34 }
  - { offsetInCU: 0x782CA, offset: 0x782CA, size: 0x8, addend: 0x0, symName: __ZNSt3__128__exception_guard_exceptionsINS_29_AllocatorDestroyRangeReverseINS_9allocatorI10MeshScalarEENS_16reverse_iteratorIPS3_EEEEEC2B8ue170006ES8_, symObjAddr: 0x2A6B4, symBinAddr: 0x10002F160, symSize: 0x30 }
  - { offsetInCU: 0x78303, offset: 0x78303, size: 0x8, addend: 0x0, symName: __ZNSt3__129_AllocatorDestroyRangeReverseINS_9allocatorI10MeshScalarEENS_16reverse_iteratorIPS2_EEEC2B8ue170006ERS3_RS6_S9_, symObjAddr: 0x2A6E4, symBinAddr: 0x10002F190, symSize: 0x38 }
  - { offsetInCU: 0x7835A, offset: 0x7835A, size: 0x8, addend: 0x0, symName: __ZNSt3__19allocatorI10MeshScalarE9constructB8ue170006IS1_JS1_EEEvPT_DpOT0_, symObjAddr: 0x2A71C, symBinAddr: 0x10002F1C8, symSize: 0x30 }
  - { offsetInCU: 0x783B0, offset: 0x783B0, size: 0x8, addend: 0x0, symName: __ZN10MeshScalarC1EOS_, symObjAddr: 0x2A74C, symBinAddr: 0x10002F1F8, symSize: 0x34 }
  - { offsetInCU: 0x783E5, offset: 0x783E5, size: 0x8, addend: 0x0, symName: __ZN10MeshScalarC2EOS_, symObjAddr: 0x2A780, symBinAddr: 0x10002F22C, symSize: 0x48 }
  - { offsetInCU: 0x7841F, offset: 0x7841F, size: 0x8, addend: 0x0, symName: __ZNSt3__119__to_address_helperINS_16reverse_iteratorIP10MeshScalarEEvE6__callB8ue170006ERKS4_, symObjAddr: 0x2A7C8, symBinAddr: 0x10002F274, symSize: 0x38 }
  - { offsetInCU: 0x78442, offset: 0x78442, size: 0x8, addend: 0x0, symName: __ZNKSt3__116reverse_iteratorIP10MeshScalarEptB8ue170006Ev, symObjAddr: 0x2A800, symBinAddr: 0x10002F2AC, symSize: 0x24 }
  - { offsetInCU: 0x78468, offset: 0x78468, size: 0x8, addend: 0x0, symName: __ZNSt3__128__exception_guard_exceptionsINS_29_AllocatorDestroyRangeReverseINS_9allocatorI10MeshScalarEENS_16reverse_iteratorIPS3_EEEEED2B8ue170006Ev, symObjAddr: 0x2A824, symBinAddr: 0x10002F2D0, symSize: 0x50 }
  - { offsetInCU: 0x78492, offset: 0x78492, size: 0x8, addend: 0x0, symName: __ZNKSt3__129_AllocatorDestroyRangeReverseINS_9allocatorI10MeshScalarEENS_16reverse_iteratorIPS2_EEEclB8ue170006Ev, symObjAddr: 0x2A874, symBinAddr: 0x10002F320, symSize: 0xB4 }
  - { offsetInCU: 0x784B9, offset: 0x784B9, size: 0x8, addend: 0x0, symName: __ZNSt3__116reverse_iteratorINS0_IP10MeshScalarEEEC1B8ue170006ES3_, symObjAddr: 0x2A998, symBinAddr: 0x10002F444, symSize: 0x3C }
  - { offsetInCU: 0x784F1, offset: 0x784F1, size: 0x8, addend: 0x0, symName: __ZNSt3__116allocator_traitsINS_9allocatorI10MeshScalarEEE7destroyB8ue170006IS2_vEEvRS3_PT_, symObjAddr: 0x2AA34, symBinAddr: 0x10002F4E0, symSize: 0x2C }
  - { offsetInCU: 0x7852E, offset: 0x7852E, size: 0x8, addend: 0x0, symName: __ZNSt3__116reverse_iteratorINS0_IP10MeshScalarEEEppB8ue170006Ev, symObjAddr: 0x2AA84, symBinAddr: 0x10002F530, symSize: 0x30 }
  - { offsetInCU: 0x78554, offset: 0x78554, size: 0x8, addend: 0x0, symName: __ZNKSt3__116reverse_iteratorINS0_IP10MeshScalarEEE4baseB8ue170006Ev, symObjAddr: 0x2AAB4, symBinAddr: 0x10002F560, symSize: 0x24 }
  - { offsetInCU: 0x7857A, offset: 0x7857A, size: 0x8, addend: 0x0, symName: __ZNSt3__19allocatorI10MeshScalarE7destroyB8ue170006EPS1_, symObjAddr: 0x2AAD8, symBinAddr: 0x10002F584, symSize: 0x28 }
  - { offsetInCU: 0x785B3, offset: 0x785B3, size: 0x8, addend: 0x0, symName: __ZNSt3__119__to_address_helperINS_16reverse_iteratorINS1_IP10MeshScalarEEEEvE6__callB8ue170006ERKS5_, symObjAddr: 0x2AB00, symBinAddr: 0x10002F5AC, symSize: 0x38 }
  - { offsetInCU: 0x785D6, offset: 0x785D6, size: 0x8, addend: 0x0, symName: __ZNKSt3__116reverse_iteratorINS0_IP10MeshScalarEEEptB8ue170006Ev, symObjAddr: 0x2AB38, symBinAddr: 0x10002F5E4, symSize: 0x24 }
  - { offsetInCU: 0x785FC, offset: 0x785FC, size: 0x8, addend: 0x0, symName: __ZNKSt3__116reverse_iteratorINS0_IP10MeshScalarEEEdeB8ue170006Ev, symObjAddr: 0x2AB5C, symBinAddr: 0x10002F608, symSize: 0x34 }
  - { offsetInCU: 0x78630, offset: 0x78630, size: 0x8, addend: 0x0, symName: __ZNSt3__116reverse_iteratorIP10MeshScalarEmmB8ue170006Ev, symObjAddr: 0x2AB90, symBinAddr: 0x10002F63C, symSize: 0x20 }
  - { offsetInCU: 0x78656, offset: 0x78656, size: 0x8, addend: 0x0, symName: __ZNSt3__116reverse_iteratorINS0_IP10MeshScalarEEEC2B8ue170006ES3_, symObjAddr: 0x2ABB0, symBinAddr: 0x10002F65C, symSize: 0x2C }
  - { offsetInCU: 0x7868E, offset: 0x7868E, size: 0x8, addend: 0x0, symName: __ZNSt3__116reverse_iteratorIP10MeshScalarEC2B8ue170006ES2_, symObjAddr: 0x2ABDC, symBinAddr: 0x10002F688, symSize: 0x28 }
  - { offsetInCU: 0x786C6, offset: 0x786C6, size: 0x8, addend: 0x0, symName: __ZNSt3__114__split_bufferI10MeshScalarRNS_9allocatorIS1_EEED2Ev, symObjAddr: 0x2AC04, symBinAddr: 0x10002F6B0, symSize: 0x8C }
  - { offsetInCU: 0x786F2, offset: 0x786F2, size: 0x8, addend: 0x0, symName: __ZNSt3__114__split_bufferI10MeshScalarRNS_9allocatorIS1_EEE5clearB8ue170006Ev, symObjAddr: 0x2AC90, symBinAddr: 0x10002F73C, symSize: 0x28 }
  - { offsetInCU: 0x78718, offset: 0x78718, size: 0x8, addend: 0x0, symName: __ZNSt3__116allocator_traitsINS_9allocatorI10MeshScalarEEE10deallocateB8ue170006ERS3_PS2_m, symObjAddr: 0x2ACB8, symBinAddr: 0x10002F764, symSize: 0x34 }
  - { offsetInCU: 0x7875A, offset: 0x7875A, size: 0x8, addend: 0x0, symName: __ZNKSt3__114__split_bufferI10MeshScalarRNS_9allocatorIS1_EEE8capacityB8ue170006Ev, symObjAddr: 0x2ACEC, symBinAddr: 0x10002F798, symSize: 0x40 }
  - { offsetInCU: 0x78780, offset: 0x78780, size: 0x8, addend: 0x0, symName: __ZNSt3__114__split_bufferI10MeshScalarRNS_9allocatorIS1_EEE17__destruct_at_endB8ue170006EPS1_, symObjAddr: 0x2AD2C, symBinAddr: 0x10002F7D8, symSize: 0x2C }
  - { offsetInCU: 0x787B4, offset: 0x787B4, size: 0x8, addend: 0x0, symName: __ZNSt3__114__split_bufferI10MeshScalarRNS_9allocatorIS1_EEE17__destruct_at_endB8ue170006EPS1_NS_17integral_constantIbLb0EEE, symObjAddr: 0x2AD58, symBinAddr: 0x10002F804, symSize: 0x80 }
  - { offsetInCU: 0x787F5, offset: 0x787F5, size: 0x8, addend: 0x0, symName: __ZNSt3__19allocatorI10MeshScalarE10deallocateB8ue170006EPS1_m, symObjAddr: 0x2ADD8, symBinAddr: 0x10002F884, symSize: 0x40 }
  - { offsetInCU: 0x78837, offset: 0x78837, size: 0x8, addend: 0x0, symName: __ZNKSt3__114__split_bufferI10MeshScalarRNS_9allocatorIS1_EEE9__end_capB8ue170006Ev, symObjAddr: 0x2AE18, symBinAddr: 0x10002F8C4, symSize: 0x28 }
  - { offsetInCU: 0x7885D, offset: 0x7885D, size: 0x8, addend: 0x0, symName: __ZNKSt3__117__compressed_pairIP10MeshScalarRNS_9allocatorIS1_EEE5firstB8ue170006Ev, symObjAddr: 0x2AE40, symBinAddr: 0x10002F8EC, symSize: 0x24 }
  - { offsetInCU: 0x78883, offset: 0x78883, size: 0x8, addend: 0x0, symName: __ZNSt3__16vectorI10MeshVertexNS_9allocatorIS1_EEEC2ERKS4_, symObjAddr: 0x2AE64, symBinAddr: 0x10002F910, symSize: 0x94 }
  - { offsetInCU: 0x788BE, offset: 0x788BE, size: 0x8, addend: 0x0, symName: __ZNSt3__116allocator_traitsINS_9allocatorI10MeshVertexEEE37select_on_container_copy_constructionB8ue170006IS3_vvEES3_RKS3_, symObjAddr: 0x2AEF8, symBinAddr: 0x10002F9A4, symSize: 0x10 }
  - { offsetInCU: 0x788F3, offset: 0x788F3, size: 0x8, addend: 0x0, symName: __ZNSt3__117__compressed_pairIP10MeshVertexNS_9allocatorIS1_EEEC1B8ue170006IDnS4_EEOT_OT0_, symObjAddr: 0x2AF08, symBinAddr: 0x10002F9B4, symSize: 0x3C }
  - { offsetInCU: 0x7894B, offset: 0x7894B, size: 0x8, addend: 0x0, symName: __ZNSt3__16vectorI10MeshVertexNS_9allocatorIS1_EEE16__init_with_sizeB8ue170006IPS1_S6_EEvT_T0_m, symObjAddr: 0x2AF44, symBinAddr: 0x10002F9F0, symSize: 0xB8 }
  - { offsetInCU: 0x789BF, offset: 0x789BF, size: 0x8, addend: 0x0, symName: __ZNSt3__117__compressed_pairIP10MeshVertexNS_9allocatorIS1_EEEC2B8ue170006IDnS4_EEOT_OT0_, symObjAddr: 0x2AFFC, symBinAddr: 0x10002FAA8, symSize: 0x44 }
  - { offsetInCU: 0x78A17, offset: 0x78A17, size: 0x8, addend: 0x0, symName: __ZNSt3__122__compressed_pair_elemINS_9allocatorI10MeshVertexEELi1ELb1EEC2B8ue170006IS3_vEEOT_, symObjAddr: 0x2B040, symBinAddr: 0x10002FAEC, symSize: 0x18 }
  - { offsetInCU: 0x78A59, offset: 0x78A59, size: 0x8, addend: 0x0, symName: __ZNSt3__16vectorI10MeshVertexNS_9allocatorIS1_EEE16__destroy_vectorC1B8ue170006ERS4_, symObjAddr: 0x2B098, symBinAddr: 0x10002FB44, symSize: 0x34 }
  - { offsetInCU: 0x78A92, offset: 0x78A92, size: 0x8, addend: 0x0, symName: __ZNSt3__16vectorI10MeshVertexNS_9allocatorIS1_EEE11__vallocateB8ue170006Em, symObjAddr: 0x2B0CC, symBinAddr: 0x10002FB78, symSize: 0xB4 }
  - { offsetInCU: 0x78AD6, offset: 0x78AD6, size: 0x8, addend: 0x0, symName: __ZNSt3__16vectorI10MeshVertexNS_9allocatorIS1_EEE18__construct_at_endIPS1_S6_EEvT_T0_m, symObjAddr: 0x2B180, symBinAddr: 0x10002FC2C, symSize: 0x8C }
  - { offsetInCU: 0x78B4C, offset: 0x78B4C, size: 0x8, addend: 0x0, symName: __ZNSt3__128__exception_guard_exceptionsINS_6vectorI10MeshVertexNS_9allocatorIS2_EEE16__destroy_vectorEE10__completeB8ue170006Ev, symObjAddr: 0x2B20C, symBinAddr: 0x10002FCB8, symSize: 0x1C }
  - { offsetInCU: 0x78B72, offset: 0x78B72, size: 0x8, addend: 0x0, symName: __ZNSt3__128__exception_guard_exceptionsINS_6vectorI10MeshVertexNS_9allocatorIS2_EEE16__destroy_vectorEED1B8ue170006Ev, symObjAddr: 0x2B228, symBinAddr: 0x10002FCD4, symSize: 0x2C }
  - { offsetInCU: 0x78B9C, offset: 0x78B9C, size: 0x8, addend: 0x0, symName: __ZNSt3__128__exception_guard_exceptionsINS_6vectorI10MeshVertexNS_9allocatorIS2_EEE16__destroy_vectorEEC1B8ue170006ES6_, symObjAddr: 0x2B254, symBinAddr: 0x10002FD00, symSize: 0x34 }
  - { offsetInCU: 0x78BD4, offset: 0x78BD4, size: 0x8, addend: 0x0, symName: __ZNSt3__128__exception_guard_exceptionsINS_6vectorI10MeshVertexNS_9allocatorIS2_EEE16__destroy_vectorEEC2B8ue170006ES6_, symObjAddr: 0x2B288, symBinAddr: 0x10002FD34, symSize: 0x24 }
  - { offsetInCU: 0x78C0C, offset: 0x78C0C, size: 0x8, addend: 0x0, symName: __ZNSt3__16vectorI10MeshVertexNS_9allocatorIS1_EEE16__destroy_vectorC2B8ue170006ERS4_, symObjAddr: 0x2B2AC, symBinAddr: 0x10002FD58, symSize: 0x20 }
  - { offsetInCU: 0x78C65, offset: 0x78C65, size: 0x8, addend: 0x0, symName: __ZNSt3__14pairIP10MeshVertexS2_EC1B8ue170006IS2_S2_LPv0EEEOT_OT0_, symObjAddr: 0x2B47C, symBinAddr: 0x10002FF28, symSize: 0x3C }
  - { offsetInCU: 0x78CC3, offset: 0x78CC3, size: 0x8, addend: 0x0, symName: __ZNSt3__14pairIP10MeshVertexS2_EC2B8ue170006IS2_S2_LPv0EEEOT_OT0_, symObjAddr: 0x2B4B8, symBinAddr: 0x10002FF64, symSize: 0x34 }
  - { offsetInCU: 0x78D21, offset: 0x78D21, size: 0x8, addend: 0x0, symName: __ZNKSt3__114__copy_trivialclB8ue170006I10MeshVertexS2_Li0EEENS_4pairIPT_PT0_EES5_S5_S7_, symObjAddr: 0x2B668, symBinAddr: 0x100030114, symSize: 0x48 }
  - { offsetInCU: 0x78D89, offset: 0x78D89, size: 0x8, addend: 0x0, symName: __ZNSt3__14pairIP10MeshVertexS2_EC1B8ue170006IRS2_S2_LPv0EEEOT_OT0_, symObjAddr: 0x2B804, symBinAddr: 0x1000302B0, symSize: 0x3C }
  - { offsetInCU: 0x78DE7, offset: 0x78DE7, size: 0x8, addend: 0x0, symName: __ZNSt3__14pairIP10MeshVertexS2_EC2B8ue170006IRS2_S2_LPv0EEEOT_OT0_, symObjAddr: 0x2B840, symBinAddr: 0x1000302EC, symSize: 0x34 }
  - { offsetInCU: 0x78E45, offset: 0x78E45, size: 0x8, addend: 0x0, symName: __ZNSt3__118__unwrap_iter_implIP10MeshVertexLb1EE8__unwrapB8ue170006ES2_, symObjAddr: 0x2B874, symBinAddr: 0x100030320, symSize: 0x24 }
  - { offsetInCU: 0x78E68, offset: 0x78E68, size: 0x8, addend: 0x0, symName: __ZNSt3__118__unwrap_iter_implIP10MeshVertexLb1EE8__rewrapB8ue170006ES2_S2_, symObjAddr: 0x2B898, symBinAddr: 0x100030344, symSize: 0x58 }
  - { offsetInCU: 0x78E99, offset: 0x78E99, size: 0x8, addend: 0x0, symName: __ZNSt3__128__exception_guard_exceptionsINS_6vectorI10MeshVertexNS_9allocatorIS2_EEE16__destroy_vectorEED2B8ue170006Ev, symObjAddr: 0x2B8F0, symBinAddr: 0x10003039C, symSize: 0x50 }
  - { offsetInCU: 0x78EC3, offset: 0x78EC3, size: 0x8, addend: 0x0, symName: __ZNSt3__16vectorI10MeshVertexNS_9allocatorIS1_EEE16__destroy_vectorclB8ue170006Ev, symObjAddr: 0x2B940, symBinAddr: 0x1000303EC, symSize: 0x90 }
  - { offsetInCU: 0x78EE9, offset: 0x78EE9, size: 0x8, addend: 0x0, symName: __ZNSt3__16vectorI10MeshVertexNS_9allocatorIS1_EEE7__clearB8ue170006Ev, symObjAddr: 0x2B9D0, symBinAddr: 0x10003047C, symSize: 0x28 }
  - { offsetInCU: 0x78F0F, offset: 0x78F0F, size: 0x8, addend: 0x0, symName: __ZNSt3__16vectorI10MeshVertexNS_9allocatorIS1_EEE22__base_destruct_at_endB8ue170006EPS1_, symObjAddr: 0x2B9F8, symBinAddr: 0x1000304A4, symSize: 0x8C }
  - { offsetInCU: 0x78F53, offset: 0x78F53, size: 0x8, addend: 0x0, symName: __ZNSt3__16vectorIjNS_9allocatorIjEEEC2ERKS3_, symObjAddr: 0x2BA84, symBinAddr: 0x100030530, symSize: 0x94 }
  - { offsetInCU: 0x78F8E, offset: 0x78F8E, size: 0x8, addend: 0x0, symName: __ZNSt3__116allocator_traitsINS_9allocatorIjEEE37select_on_container_copy_constructionB8ue170006IS2_vvEES2_RKS2_, symObjAddr: 0x2BB18, symBinAddr: 0x1000305C4, symSize: 0x10 }
  - { offsetInCU: 0x78FC3, offset: 0x78FC3, size: 0x8, addend: 0x0, symName: __ZNSt3__117__compressed_pairIPjNS_9allocatorIjEEEC1B8ue170006IDnS3_EEOT_OT0_, symObjAddr: 0x2BB28, symBinAddr: 0x1000305D4, symSize: 0x3C }
  - { offsetInCU: 0x7901B, offset: 0x7901B, size: 0x8, addend: 0x0, symName: __ZNSt3__16vectorIjNS_9allocatorIjEEE16__init_with_sizeB8ue170006IPjS5_EEvT_T0_m, symObjAddr: 0x2BB64, symBinAddr: 0x100030610, symSize: 0xB8 }
  - { offsetInCU: 0x7908F, offset: 0x7908F, size: 0x8, addend: 0x0, symName: __ZNSt3__117__compressed_pairIPjNS_9allocatorIjEEEC2B8ue170006IDnS3_EEOT_OT0_, symObjAddr: 0x2BC1C, symBinAddr: 0x1000306C8, symSize: 0x44 }
  - { offsetInCU: 0x790E7, offset: 0x790E7, size: 0x8, addend: 0x0, symName: __ZNSt3__122__compressed_pair_elemINS_9allocatorIjEELi1ELb1EEC2B8ue170006IS2_vEEOT_, symObjAddr: 0x2BC60, symBinAddr: 0x10003070C, symSize: 0x18 }
  - { offsetInCU: 0x79129, offset: 0x79129, size: 0x8, addend: 0x0, symName: __ZNSt3__16vectorIjNS_9allocatorIjEEE16__destroy_vectorC1B8ue170006ERS3_, symObjAddr: 0x2BCB8, symBinAddr: 0x100030764, symSize: 0x34 }
  - { offsetInCU: 0x79162, offset: 0x79162, size: 0x8, addend: 0x0, symName: __ZNSt3__16vectorIjNS_9allocatorIjEEE11__vallocateB8ue170006Em, symObjAddr: 0x2BCEC, symBinAddr: 0x100030798, symSize: 0xAC }
  - { offsetInCU: 0x791A6, offset: 0x791A6, size: 0x8, addend: 0x0, symName: __ZNSt3__16vectorIjNS_9allocatorIjEEE18__construct_at_endIPjS5_EEvT_T0_m, symObjAddr: 0x2BD98, symBinAddr: 0x100030844, symSize: 0x8C }
  - { offsetInCU: 0x7921C, offset: 0x7921C, size: 0x8, addend: 0x0, symName: __ZNSt3__128__exception_guard_exceptionsINS_6vectorIjNS_9allocatorIjEEE16__destroy_vectorEE10__completeB8ue170006Ev, symObjAddr: 0x2BE24, symBinAddr: 0x1000308D0, symSize: 0x1C }
  - { offsetInCU: 0x79242, offset: 0x79242, size: 0x8, addend: 0x0, symName: __ZNSt3__128__exception_guard_exceptionsINS_6vectorIjNS_9allocatorIjEEE16__destroy_vectorEED1B8ue170006Ev, symObjAddr: 0x2BE40, symBinAddr: 0x1000308EC, symSize: 0x2C }
  - { offsetInCU: 0x7926C, offset: 0x7926C, size: 0x8, addend: 0x0, symName: __ZNSt3__128__exception_guard_exceptionsINS_6vectorIjNS_9allocatorIjEEE16__destroy_vectorEEC1B8ue170006ES5_, symObjAddr: 0x2BE6C, symBinAddr: 0x100030918, symSize: 0x34 }
  - { offsetInCU: 0x792A4, offset: 0x792A4, size: 0x8, addend: 0x0, symName: __ZNSt3__128__exception_guard_exceptionsINS_6vectorIjNS_9allocatorIjEEE16__destroy_vectorEEC2B8ue170006ES5_, symObjAddr: 0x2BEA0, symBinAddr: 0x10003094C, symSize: 0x24 }
  - { offsetInCU: 0x792DC, offset: 0x792DC, size: 0x8, addend: 0x0, symName: __ZNSt3__16vectorIjNS_9allocatorIjEEE16__destroy_vectorC2B8ue170006ERS3_, symObjAddr: 0x2BEC4, symBinAddr: 0x100030970, symSize: 0x20 }
  - { offsetInCU: 0x7932F, offset: 0x7932F, size: 0x8, addend: 0x0, symName: __ZNSt3__14pairIPjS1_EC1B8ue170006IS1_S1_LPv0EEEOT_OT0_, symObjAddr: 0x2C094, symBinAddr: 0x100030B40, symSize: 0x3C }
  - { offsetInCU: 0x7938D, offset: 0x7938D, size: 0x8, addend: 0x0, symName: __ZNSt3__14pairIPjS1_EC2B8ue170006IS1_S1_LPv0EEEOT_OT0_, symObjAddr: 0x2C0D0, symBinAddr: 0x100030B7C, symSize: 0x34 }
  - { offsetInCU: 0x793EB, offset: 0x793EB, size: 0x8, addend: 0x0, symName: __ZNKSt3__114__copy_trivialclB8ue170006IjjLi0EEENS_4pairIPT_PT0_EES4_S4_S6_, symObjAddr: 0x2C280, symBinAddr: 0x100030D2C, symSize: 0x48 }
  - { offsetInCU: 0x79453, offset: 0x79453, size: 0x8, addend: 0x0, symName: __ZNSt3__14pairIPjS1_EC1B8ue170006IRS1_S1_LPv0EEEOT_OT0_, symObjAddr: 0x2C410, symBinAddr: 0x100030EBC, symSize: 0x3C }
  - { offsetInCU: 0x794B1, offset: 0x794B1, size: 0x8, addend: 0x0, symName: __ZNSt3__14pairIPjS1_EC2B8ue170006IRS1_S1_LPv0EEEOT_OT0_, symObjAddr: 0x2C44C, symBinAddr: 0x100030EF8, symSize: 0x34 }
  - { offsetInCU: 0x7950F, offset: 0x7950F, size: 0x8, addend: 0x0, symName: __ZNSt3__118__unwrap_iter_implIPjLb1EE8__unwrapB8ue170006ES1_, symObjAddr: 0x2C480, symBinAddr: 0x100030F2C, symSize: 0x24 }
  - { offsetInCU: 0x79532, offset: 0x79532, size: 0x8, addend: 0x0, symName: __ZNSt3__118__unwrap_iter_implIPjLb1EE8__rewrapB8ue170006ES1_S1_, symObjAddr: 0x2C4A4, symBinAddr: 0x100030F50, symSize: 0x50 }
  - { offsetInCU: 0x79563, offset: 0x79563, size: 0x8, addend: 0x0, symName: __ZNSt3__128__exception_guard_exceptionsINS_6vectorIjNS_9allocatorIjEEE16__destroy_vectorEED2B8ue170006Ev, symObjAddr: 0x2C4F4, symBinAddr: 0x100030FA0, symSize: 0x50 }
  - { offsetInCU: 0x7958D, offset: 0x7958D, size: 0x8, addend: 0x0, symName: __ZNSt3__16vectorIjNS_9allocatorIjEEE16__destroy_vectorclB8ue170006Ev, symObjAddr: 0x2C544, symBinAddr: 0x100030FF0, symSize: 0x90 }
  - { offsetInCU: 0x795B3, offset: 0x795B3, size: 0x8, addend: 0x0, symName: __ZNSt3__16vectorIjNS_9allocatorIjEEE7__clearB8ue170006Ev, symObjAddr: 0x2C5D4, symBinAddr: 0x100031080, symSize: 0x28 }
  - { offsetInCU: 0x795D9, offset: 0x795D9, size: 0x8, addend: 0x0, symName: __ZNSt3__16vectorIjNS_9allocatorIjEEE22__base_destruct_at_endB8ue170006EPj, symObjAddr: 0x2C5FC, symBinAddr: 0x1000310A8, symSize: 0x8C }
  - { offsetInCU: 0x7961D, offset: 0x7961D, size: 0x8, addend: 0x0, symName: __ZNSt3__16vectorINS_10shared_ptrI3TexEENS_9allocatorIS3_EEEC2ERKS6_, symObjAddr: 0x2C688, symBinAddr: 0x100031134, symSize: 0x94 }
  - { offsetInCU: 0x79658, offset: 0x79658, size: 0x8, addend: 0x0, symName: __ZNSt3__116allocator_traitsINS_9allocatorINS_10shared_ptrI3TexEEEEE37select_on_container_copy_constructionB8ue170006IS5_vvEES5_RKS5_, symObjAddr: 0x2C71C, symBinAddr: 0x1000311C8, symSize: 0x10 }
  - { offsetInCU: 0x7968D, offset: 0x7968D, size: 0x8, addend: 0x0, symName: __ZNSt3__117__compressed_pairIPNS_10shared_ptrI3TexEENS_9allocatorIS3_EEEC1B8ue170006IDnS6_EEOT_OT0_, symObjAddr: 0x2C72C, symBinAddr: 0x1000311D8, symSize: 0x3C }
  - { offsetInCU: 0x796E5, offset: 0x796E5, size: 0x8, addend: 0x0, symName: __ZNSt3__16vectorINS_10shared_ptrI3TexEENS_9allocatorIS3_EEE16__init_with_sizeB8ue170006IPS3_S8_EEvT_T0_m, symObjAddr: 0x2C768, symBinAddr: 0x100031214, symSize: 0xB8 }
  - { offsetInCU: 0x79759, offset: 0x79759, size: 0x8, addend: 0x0, symName: __ZNSt3__117__compressed_pairIPNS_10shared_ptrI3TexEENS_9allocatorIS3_EEEC2B8ue170006IDnS6_EEOT_OT0_, symObjAddr: 0x2C820, symBinAddr: 0x1000312CC, symSize: 0x44 }
  - { offsetInCU: 0x797B1, offset: 0x797B1, size: 0x8, addend: 0x0, symName: __ZNSt3__122__compressed_pair_elemINS_9allocatorINS_10shared_ptrI3TexEEEELi1ELb1EEC2B8ue170006IS5_vEEOT_, symObjAddr: 0x2C864, symBinAddr: 0x100031310, symSize: 0x18 }
  - { offsetInCU: 0x797F3, offset: 0x797F3, size: 0x8, addend: 0x0, symName: __ZNSt3__16vectorINS_10shared_ptrI3TexEENS_9allocatorIS3_EEE16__destroy_vectorC1B8ue170006ERS6_, symObjAddr: 0x2C8BC, symBinAddr: 0x100031368, symSize: 0x34 }
  - { offsetInCU: 0x7982C, offset: 0x7982C, size: 0x8, addend: 0x0, symName: __ZNSt3__16vectorINS_10shared_ptrI3TexEENS_9allocatorIS3_EEE11__vallocateB8ue170006Em, symObjAddr: 0x2C8F0, symBinAddr: 0x10003139C, symSize: 0xAC }
  - { offsetInCU: 0x79870, offset: 0x79870, size: 0x8, addend: 0x0, symName: __ZNSt3__16vectorINS_10shared_ptrI3TexEENS_9allocatorIS3_EEE18__construct_at_endIPS3_S8_EEvT_T0_m, symObjAddr: 0x2C99C, symBinAddr: 0x100031448, symSize: 0x8C }
  - { offsetInCU: 0x798E6, offset: 0x798E6, size: 0x8, addend: 0x0, symName: __ZNSt3__128__exception_guard_exceptionsINS_6vectorINS_10shared_ptrI3TexEENS_9allocatorIS4_EEE16__destroy_vectorEE10__completeB8ue170006Ev, symObjAddr: 0x2CA28, symBinAddr: 0x1000314D4, symSize: 0x1C }
  - { offsetInCU: 0x7990C, offset: 0x7990C, size: 0x8, addend: 0x0, symName: __ZNSt3__128__exception_guard_exceptionsINS_6vectorINS_10shared_ptrI3TexEENS_9allocatorIS4_EEE16__destroy_vectorEED1B8ue170006Ev, symObjAddr: 0x2CA44, symBinAddr: 0x1000314F0, symSize: 0x2C }
  - { offsetInCU: 0x79936, offset: 0x79936, size: 0x8, addend: 0x0, symName: __ZNSt3__128__exception_guard_exceptionsINS_6vectorINS_10shared_ptrI3TexEENS_9allocatorIS4_EEE16__destroy_vectorEEC1B8ue170006ES8_, symObjAddr: 0x2CA70, symBinAddr: 0x10003151C, symSize: 0x34 }
  - { offsetInCU: 0x7996E, offset: 0x7996E, size: 0x8, addend: 0x0, symName: __ZNSt3__128__exception_guard_exceptionsINS_6vectorINS_10shared_ptrI3TexEENS_9allocatorIS4_EEE16__destroy_vectorEEC2B8ue170006ES8_, symObjAddr: 0x2CAA4, symBinAddr: 0x100031550, symSize: 0x24 }
  - { offsetInCU: 0x799A6, offset: 0x799A6, size: 0x8, addend: 0x0, symName: __ZNSt3__16vectorINS_10shared_ptrI3TexEENS_9allocatorIS3_EEE16__destroy_vectorC2B8ue170006ERS6_, symObjAddr: 0x2CAC8, symBinAddr: 0x100031574, symSize: 0x20 }
  - { offsetInCU: 0x799DF, offset: 0x799DF, size: 0x8, addend: 0x0, symName: __ZNSt3__128__exception_guard_exceptionsINS_6vectorINS_10shared_ptrI3TexEENS_9allocatorIS4_EEE16__destroy_vectorEED2B8ue170006Ev, symObjAddr: 0x2CB68, symBinAddr: 0x100031614, symSize: 0x50 }
  - { offsetInCU: 0x79A09, offset: 0x79A09, size: 0x8, addend: 0x0, symName: __ZNSt3__16vectorINS_10shared_ptrI3TexEENS_9allocatorIS3_EEE16__destroy_vectorclB8ue170006Ev, symObjAddr: 0x2CBB8, symBinAddr: 0x100031664, symSize: 0x90 }
  - { offsetInCU: 0x79A2F, offset: 0x79A2F, size: 0x8, addend: 0x0, symName: __ZNSt3__16vectorINS_10shared_ptrI3TexEENS_9allocatorIS3_EEE7__clearB8ue170006Ev, symObjAddr: 0x2CC48, symBinAddr: 0x1000316F4, symSize: 0x28 }
  - { offsetInCU: 0x79A55, offset: 0x79A55, size: 0x8, addend: 0x0, symName: __ZNSt3__16vectorINS_10shared_ptrI3TexEENS_9allocatorIS3_EEE22__base_destruct_at_endB8ue170006EPS3_, symObjAddr: 0x2CC70, symBinAddr: 0x10003171C, symSize: 0x8C }
  - { offsetInCU: 0x79A99, offset: 0x79A99, size: 0x8, addend: 0x0, symName: __ZNSt3__16vectorI9MeshColorNS_9allocatorIS1_EEEC2ERKS4_, symObjAddr: 0x2CCFC, symBinAddr: 0x1000317A8, symSize: 0x94 }
  - { offsetInCU: 0x79AD4, offset: 0x79AD4, size: 0x8, addend: 0x0, symName: __ZNSt3__116allocator_traitsINS_9allocatorI9MeshColorEEE37select_on_container_copy_constructionB8ue170006IS3_vvEES3_RKS3_, symObjAddr: 0x2CD90, symBinAddr: 0x10003183C, symSize: 0x10 }
  - { offsetInCU: 0x79B09, offset: 0x79B09, size: 0x8, addend: 0x0, symName: __ZNSt3__117__compressed_pairIP9MeshColorNS_9allocatorIS1_EEEC1B8ue170006IDnS4_EEOT_OT0_, symObjAddr: 0x2CDA0, symBinAddr: 0x10003184C, symSize: 0x3C }
  - { offsetInCU: 0x79B61, offset: 0x79B61, size: 0x8, addend: 0x0, symName: __ZNSt3__16vectorI9MeshColorNS_9allocatorIS1_EEE16__init_with_sizeB8ue170006IPS1_S6_EEvT_T0_m, symObjAddr: 0x2CDDC, symBinAddr: 0x100031888, symSize: 0xB8 }
  - { offsetInCU: 0x79BD5, offset: 0x79BD5, size: 0x8, addend: 0x0, symName: __ZNSt3__117__compressed_pairIP9MeshColorNS_9allocatorIS1_EEEC2B8ue170006IDnS4_EEOT_OT0_, symObjAddr: 0x2CE94, symBinAddr: 0x100031940, symSize: 0x44 }
  - { offsetInCU: 0x79C2D, offset: 0x79C2D, size: 0x8, addend: 0x0, symName: __ZNSt3__122__compressed_pair_elemINS_9allocatorI9MeshColorEELi1ELb1EEC2B8ue170006IS3_vEEOT_, symObjAddr: 0x2CED8, symBinAddr: 0x100031984, symSize: 0x18 }
  - { offsetInCU: 0x79C6F, offset: 0x79C6F, size: 0x8, addend: 0x0, symName: __ZNSt3__16vectorI9MeshColorNS_9allocatorIS1_EEE16__destroy_vectorC1B8ue170006ERS4_, symObjAddr: 0x2CF30, symBinAddr: 0x1000319DC, symSize: 0x34 }
  - { offsetInCU: 0x79CA8, offset: 0x79CA8, size: 0x8, addend: 0x0, symName: __ZNSt3__16vectorI9MeshColorNS_9allocatorIS1_EEE11__vallocateB8ue170006Em, symObjAddr: 0x2CF64, symBinAddr: 0x100031A10, symSize: 0xB4 }
  - { offsetInCU: 0x79CEC, offset: 0x79CEC, size: 0x8, addend: 0x0, symName: __ZNSt3__16vectorI9MeshColorNS_9allocatorIS1_EEE18__construct_at_endIPS1_S6_EEvT_T0_m, symObjAddr: 0x2D018, symBinAddr: 0x100031AC4, symSize: 0x8C }
  - { offsetInCU: 0x79D62, offset: 0x79D62, size: 0x8, addend: 0x0, symName: __ZNSt3__128__exception_guard_exceptionsINS_6vectorI9MeshColorNS_9allocatorIS2_EEE16__destroy_vectorEE10__completeB8ue170006Ev, symObjAddr: 0x2D0A4, symBinAddr: 0x100031B50, symSize: 0x1C }
  - { offsetInCU: 0x79D88, offset: 0x79D88, size: 0x8, addend: 0x0, symName: __ZNSt3__128__exception_guard_exceptionsINS_6vectorI9MeshColorNS_9allocatorIS2_EEE16__destroy_vectorEED1B8ue170006Ev, symObjAddr: 0x2D0C0, symBinAddr: 0x100031B6C, symSize: 0x2C }
  - { offsetInCU: 0x79DB2, offset: 0x79DB2, size: 0x8, addend: 0x0, symName: __ZNSt3__128__exception_guard_exceptionsINS_6vectorI9MeshColorNS_9allocatorIS2_EEE16__destroy_vectorEEC1B8ue170006ES6_, symObjAddr: 0x2D0EC, symBinAddr: 0x100031B98, symSize: 0x34 }
  - { offsetInCU: 0x79DEA, offset: 0x79DEA, size: 0x8, addend: 0x0, symName: __ZNSt3__128__exception_guard_exceptionsINS_6vectorI9MeshColorNS_9allocatorIS2_EEE16__destroy_vectorEEC2B8ue170006ES6_, symObjAddr: 0x2D120, symBinAddr: 0x100031BCC, symSize: 0x24 }
  - { offsetInCU: 0x79E22, offset: 0x79E22, size: 0x8, addend: 0x0, symName: __ZNSt3__16vectorI9MeshColorNS_9allocatorIS1_EEE16__destroy_vectorC2B8ue170006ERS4_, symObjAddr: 0x2D144, symBinAddr: 0x100031BF0, symSize: 0x20 }
  - { offsetInCU: 0x79E7B, offset: 0x79E7B, size: 0x8, addend: 0x0, symName: __ZNSt3__14pairIP9MeshColorS2_EC1B8ue170006IS2_S2_LPv0EEEOT_OT0_, symObjAddr: 0x2D3D0, symBinAddr: 0x100031E7C, symSize: 0x3C }
  - { offsetInCU: 0x79ED9, offset: 0x79ED9, size: 0x8, addend: 0x0, symName: __ZNSt3__14pairIP9MeshColorS2_EC2B8ue170006IS2_S2_LPv0EEEOT_OT0_, symObjAddr: 0x2D40C, symBinAddr: 0x100031EB8, symSize: 0x34 }
  - { offsetInCU: 0x79F37, offset: 0x79F37, size: 0x8, addend: 0x0, symName: __ZNSt3__129_AllocatorDestroyRangeReverseINS_9allocatorI9MeshColorEEPS2_EC1B8ue170006ERS3_RS4_S7_, symObjAddr: 0x2D48C, symBinAddr: 0x100031F38, symSize: 0x44 }
  - { offsetInCU: 0x79F8E, offset: 0x79F8E, size: 0x8, addend: 0x0, symName: __ZNSt3__116allocator_traitsINS_9allocatorI9MeshColorEEE9constructB8ue170006IS2_JRS2_EvEEvRS3_PT_DpOT0_, symObjAddr: 0x2D4D0, symBinAddr: 0x100031F7C, symSize: 0x34 }
  - { offsetInCU: 0x79FE5, offset: 0x79FE5, size: 0x8, addend: 0x0, symName: __ZNSt3__128__exception_guard_exceptionsINS_29_AllocatorDestroyRangeReverseINS_9allocatorI9MeshColorEEPS3_EEE10__completeB8ue170006Ev, symObjAddr: 0x2D504, symBinAddr: 0x100031FB0, symSize: 0x1C }
  - { offsetInCU: 0x7A00B, offset: 0x7A00B, size: 0x8, addend: 0x0, symName: __ZNSt3__128__exception_guard_exceptionsINS_29_AllocatorDestroyRangeReverseINS_9allocatorI9MeshColorEEPS3_EEED1B8ue170006Ev, symObjAddr: 0x2D520, symBinAddr: 0x100031FCC, symSize: 0x2C }
  - { offsetInCU: 0x7A035, offset: 0x7A035, size: 0x8, addend: 0x0, symName: __ZNSt3__128__exception_guard_exceptionsINS_29_AllocatorDestroyRangeReverseINS_9allocatorI9MeshColorEEPS3_EEEC1B8ue170006ES6_, symObjAddr: 0x2D54C, symBinAddr: 0x100031FF8, symSize: 0x34 }
  - { offsetInCU: 0x7A06E, offset: 0x7A06E, size: 0x8, addend: 0x0, symName: __ZNSt3__128__exception_guard_exceptionsINS_29_AllocatorDestroyRangeReverseINS_9allocatorI9MeshColorEEPS3_EEEC2B8ue170006ES6_, symObjAddr: 0x2D580, symBinAddr: 0x10003202C, symSize: 0x30 }
  - { offsetInCU: 0x7A0A7, offset: 0x7A0A7, size: 0x8, addend: 0x0, symName: __ZNSt3__129_AllocatorDestroyRangeReverseINS_9allocatorI9MeshColorEEPS2_EC2B8ue170006ERS3_RS4_S7_, symObjAddr: 0x2D5B0, symBinAddr: 0x10003205C, symSize: 0x38 }
  - { offsetInCU: 0x7A0FE, offset: 0x7A0FE, size: 0x8, addend: 0x0, symName: __ZNSt3__19allocatorI9MeshColorE9constructB8ue170006IS1_JRS1_EEEvPT_DpOT0_, symObjAddr: 0x2D5E8, symBinAddr: 0x100032094, symSize: 0x30 }
  - { offsetInCU: 0x7A154, offset: 0x7A154, size: 0x8, addend: 0x0, symName: __ZNSt3__128__exception_guard_exceptionsINS_29_AllocatorDestroyRangeReverseINS_9allocatorI9MeshColorEEPS3_EEED2B8ue170006Ev, symObjAddr: 0x2D618, symBinAddr: 0x1000320C4, symSize: 0x50 }
  - { offsetInCU: 0x7A17E, offset: 0x7A17E, size: 0x8, addend: 0x0, symName: __ZNKSt3__129_AllocatorDestroyRangeReverseINS_9allocatorI9MeshColorEEPS2_EclB8ue170006Ev, symObjAddr: 0x2D668, symBinAddr: 0x100032114, symSize: 0x68 }
  - { offsetInCU: 0x7A1A4, offset: 0x7A1A4, size: 0x8, addend: 0x0, symName: __ZNSt3__118__unwrap_iter_implIP9MeshColorLb1EE8__unwrapB8ue170006ES2_, symObjAddr: 0x2D740, symBinAddr: 0x1000321EC, symSize: 0x24 }
  - { offsetInCU: 0x7A1C7, offset: 0x7A1C7, size: 0x8, addend: 0x0, symName: __ZNSt3__118__unwrap_iter_implIP9MeshColorLb1EE8__rewrapB8ue170006ES2_S2_, symObjAddr: 0x2D764, symBinAddr: 0x100032210, symSize: 0x58 }
  - { offsetInCU: 0x7A1F8, offset: 0x7A1F8, size: 0x8, addend: 0x0, symName: __ZNSt3__128__exception_guard_exceptionsINS_6vectorI9MeshColorNS_9allocatorIS2_EEE16__destroy_vectorEED2B8ue170006Ev, symObjAddr: 0x2D7BC, symBinAddr: 0x100032268, symSize: 0x50 }
  - { offsetInCU: 0x7A222, offset: 0x7A222, size: 0x8, addend: 0x0, symName: __ZNSt3__16vectorI9MeshColorNS_9allocatorIS1_EEE16__destroy_vectorclB8ue170006Ev, symObjAddr: 0x2D80C, symBinAddr: 0x1000322B8, symSize: 0x90 }
  - { offsetInCU: 0x7A248, offset: 0x7A248, size: 0x8, addend: 0x0, symName: __ZNSt3__16vectorI9MeshColorNS_9allocatorIS1_EEE7__clearB8ue170006Ev, symObjAddr: 0x2D89C, symBinAddr: 0x100032348, symSize: 0x28 }
  - { offsetInCU: 0x7A26E, offset: 0x7A26E, size: 0x8, addend: 0x0, symName: __ZNSt3__16vectorI9MeshColorNS_9allocatorIS1_EEE22__base_destruct_at_endB8ue170006EPS1_, symObjAddr: 0x2D8C4, symBinAddr: 0x100032370, symSize: 0x8C }
  - { offsetInCU: 0x7A2B2, offset: 0x7A2B2, size: 0x8, addend: 0x0, symName: __ZNSt3__16vectorI10MeshScalarNS_9allocatorIS1_EEEC2ERKS4_, symObjAddr: 0x2D950, symBinAddr: 0x1000323FC, symSize: 0x94 }
  - { offsetInCU: 0x7A2ED, offset: 0x7A2ED, size: 0x8, addend: 0x0, symName: __ZNSt3__116allocator_traitsINS_9allocatorI10MeshScalarEEE37select_on_container_copy_constructionB8ue170006IS3_vvEES3_RKS3_, symObjAddr: 0x2D9E4, symBinAddr: 0x100032490, symSize: 0x10 }
  - { offsetInCU: 0x7A322, offset: 0x7A322, size: 0x8, addend: 0x0, symName: __ZNSt3__117__compressed_pairIP10MeshScalarNS_9allocatorIS1_EEEC1B8ue170006IDnS4_EEOT_OT0_, symObjAddr: 0x2D9F4, symBinAddr: 0x1000324A0, symSize: 0x3C }
  - { offsetInCU: 0x7A37A, offset: 0x7A37A, size: 0x8, addend: 0x0, symName: __ZNSt3__16vectorI10MeshScalarNS_9allocatorIS1_EEE16__init_with_sizeB8ue170006IPS1_S6_EEvT_T0_m, symObjAddr: 0x2DA30, symBinAddr: 0x1000324DC, symSize: 0xB8 }
  - { offsetInCU: 0x7A3EE, offset: 0x7A3EE, size: 0x8, addend: 0x0, symName: __ZNSt3__117__compressed_pairIP10MeshScalarNS_9allocatorIS1_EEEC2B8ue170006IDnS4_EEOT_OT0_, symObjAddr: 0x2DAE8, symBinAddr: 0x100032594, symSize: 0x44 }
  - { offsetInCU: 0x7A446, offset: 0x7A446, size: 0x8, addend: 0x0, symName: __ZNSt3__122__compressed_pair_elemINS_9allocatorI10MeshScalarEELi1ELb1EEC2B8ue170006IS3_vEEOT_, symObjAddr: 0x2DB2C, symBinAddr: 0x1000325D8, symSize: 0x18 }
  - { offsetInCU: 0x7A488, offset: 0x7A488, size: 0x8, addend: 0x0, symName: __ZNSt3__16vectorI10MeshScalarNS_9allocatorIS1_EEE16__destroy_vectorC1B8ue170006ERS4_, symObjAddr: 0x2DB84, symBinAddr: 0x100032630, symSize: 0x34 }
  - { offsetInCU: 0x7A4C1, offset: 0x7A4C1, size: 0x8, addend: 0x0, symName: __ZNSt3__16vectorI10MeshScalarNS_9allocatorIS1_EEE11__vallocateB8ue170006Em, symObjAddr: 0x2DBB8, symBinAddr: 0x100032664, symSize: 0xAC }
  - { offsetInCU: 0x7A505, offset: 0x7A505, size: 0x8, addend: 0x0, symName: __ZNSt3__16vectorI10MeshScalarNS_9allocatorIS1_EEE18__construct_at_endIPS1_S6_EEvT_T0_m, symObjAddr: 0x2DC64, symBinAddr: 0x100032710, symSize: 0x8C }
  - { offsetInCU: 0x7A57B, offset: 0x7A57B, size: 0x8, addend: 0x0, symName: __ZNSt3__128__exception_guard_exceptionsINS_6vectorI10MeshScalarNS_9allocatorIS2_EEE16__destroy_vectorEE10__completeB8ue170006Ev, symObjAddr: 0x2DCF0, symBinAddr: 0x10003279C, symSize: 0x1C }
  - { offsetInCU: 0x7A5A1, offset: 0x7A5A1, size: 0x8, addend: 0x0, symName: __ZNSt3__128__exception_guard_exceptionsINS_6vectorI10MeshScalarNS_9allocatorIS2_EEE16__destroy_vectorEED1B8ue170006Ev, symObjAddr: 0x2DD0C, symBinAddr: 0x1000327B8, symSize: 0x2C }
  - { offsetInCU: 0x7A5CB, offset: 0x7A5CB, size: 0x8, addend: 0x0, symName: __ZNSt3__128__exception_guard_exceptionsINS_6vectorI10MeshScalarNS_9allocatorIS2_EEE16__destroy_vectorEEC1B8ue170006ES6_, symObjAddr: 0x2DD38, symBinAddr: 0x1000327E4, symSize: 0x34 }
  - { offsetInCU: 0x7A603, offset: 0x7A603, size: 0x8, addend: 0x0, symName: __ZNSt3__128__exception_guard_exceptionsINS_6vectorI10MeshScalarNS_9allocatorIS2_EEE16__destroy_vectorEEC2B8ue170006ES6_, symObjAddr: 0x2DD6C, symBinAddr: 0x100032818, symSize: 0x24 }
  - { offsetInCU: 0x7A63B, offset: 0x7A63B, size: 0x8, addend: 0x0, symName: __ZNSt3__16vectorI10MeshScalarNS_9allocatorIS1_EEE16__destroy_vectorC2B8ue170006ERS4_, symObjAddr: 0x2DD90, symBinAddr: 0x10003283C, symSize: 0x20 }
  - { offsetInCU: 0x7A694, offset: 0x7A694, size: 0x8, addend: 0x0, symName: __ZNSt3__14pairIP10MeshScalarS2_EC1B8ue170006IS2_S2_LPv0EEEOT_OT0_, symObjAddr: 0x2E01C, symBinAddr: 0x100032AC8, symSize: 0x3C }
  - { offsetInCU: 0x7A6F2, offset: 0x7A6F2, size: 0x8, addend: 0x0, symName: __ZNSt3__14pairIP10MeshScalarS2_EC2B8ue170006IS2_S2_LPv0EEEOT_OT0_, symObjAddr: 0x2E058, symBinAddr: 0x100032B04, symSize: 0x34 }
  - { offsetInCU: 0x7A750, offset: 0x7A750, size: 0x8, addend: 0x0, symName: __ZNSt3__129_AllocatorDestroyRangeReverseINS_9allocatorI10MeshScalarEEPS2_EC1B8ue170006ERS3_RS4_S7_, symObjAddr: 0x2E0D8, symBinAddr: 0x100032B84, symSize: 0x44 }
  - { offsetInCU: 0x7A7A7, offset: 0x7A7A7, size: 0x8, addend: 0x0, symName: __ZNSt3__116allocator_traitsINS_9allocatorI10MeshScalarEEE9constructB8ue170006IS2_JRS2_EvEEvRS3_PT_DpOT0_, symObjAddr: 0x2E11C, symBinAddr: 0x100032BC8, symSize: 0x34 }
  - { offsetInCU: 0x7A7FE, offset: 0x7A7FE, size: 0x8, addend: 0x0, symName: __ZNSt3__128__exception_guard_exceptionsINS_29_AllocatorDestroyRangeReverseINS_9allocatorI10MeshScalarEEPS3_EEE10__completeB8ue170006Ev, symObjAddr: 0x2E150, symBinAddr: 0x100032BFC, symSize: 0x1C }
  - { offsetInCU: 0x7A824, offset: 0x7A824, size: 0x8, addend: 0x0, symName: __ZNSt3__128__exception_guard_exceptionsINS_29_AllocatorDestroyRangeReverseINS_9allocatorI10MeshScalarEEPS3_EEED1B8ue170006Ev, symObjAddr: 0x2E16C, symBinAddr: 0x100032C18, symSize: 0x2C }
  - { offsetInCU: 0x7A84E, offset: 0x7A84E, size: 0x8, addend: 0x0, symName: __ZNSt3__128__exception_guard_exceptionsINS_29_AllocatorDestroyRangeReverseINS_9allocatorI10MeshScalarEEPS3_EEEC1B8ue170006ES6_, symObjAddr: 0x2E198, symBinAddr: 0x100032C44, symSize: 0x34 }
  - { offsetInCU: 0x7A887, offset: 0x7A887, size: 0x8, addend: 0x0, symName: __ZNSt3__128__exception_guard_exceptionsINS_29_AllocatorDestroyRangeReverseINS_9allocatorI10MeshScalarEEPS3_EEEC2B8ue170006ES6_, symObjAddr: 0x2E1CC, symBinAddr: 0x100032C78, symSize: 0x30 }
  - { offsetInCU: 0x7A8C0, offset: 0x7A8C0, size: 0x8, addend: 0x0, symName: __ZNSt3__129_AllocatorDestroyRangeReverseINS_9allocatorI10MeshScalarEEPS2_EC2B8ue170006ERS3_RS4_S7_, symObjAddr: 0x2E1FC, symBinAddr: 0x100032CA8, symSize: 0x38 }
  - { offsetInCU: 0x7A917, offset: 0x7A917, size: 0x8, addend: 0x0, symName: __ZNSt3__19allocatorI10MeshScalarE9constructB8ue170006IS1_JRS1_EEEvPT_DpOT0_, symObjAddr: 0x2E234, symBinAddr: 0x100032CE0, symSize: 0x30 }
  - { offsetInCU: 0x7A96D, offset: 0x7A96D, size: 0x8, addend: 0x0, symName: __ZNSt3__128__exception_guard_exceptionsINS_29_AllocatorDestroyRangeReverseINS_9allocatorI10MeshScalarEEPS3_EEED2B8ue170006Ev, symObjAddr: 0x2E264, symBinAddr: 0x100032D10, symSize: 0x50 }
  - { offsetInCU: 0x7A997, offset: 0x7A997, size: 0x8, addend: 0x0, symName: __ZNKSt3__129_AllocatorDestroyRangeReverseINS_9allocatorI10MeshScalarEEPS2_EclB8ue170006Ev, symObjAddr: 0x2E2B4, symBinAddr: 0x100032D60, symSize: 0x68 }
  - { offsetInCU: 0x7A9BD, offset: 0x7A9BD, size: 0x8, addend: 0x0, symName: __ZNSt3__118__unwrap_iter_implIP10MeshScalarLb1EE8__unwrapB8ue170006ES2_, symObjAddr: 0x2E38C, symBinAddr: 0x100032E38, symSize: 0x24 }
  - { offsetInCU: 0x7A9E0, offset: 0x7A9E0, size: 0x8, addend: 0x0, symName: __ZNSt3__118__unwrap_iter_implIP10MeshScalarLb1EE8__rewrapB8ue170006ES2_S2_, symObjAddr: 0x2E3B0, symBinAddr: 0x100032E5C, symSize: 0x50 }
  - { offsetInCU: 0x7AA11, offset: 0x7AA11, size: 0x8, addend: 0x0, symName: __ZNSt3__128__exception_guard_exceptionsINS_6vectorI10MeshScalarNS_9allocatorIS2_EEE16__destroy_vectorEED2B8ue170006Ev, symObjAddr: 0x2E400, symBinAddr: 0x100032EAC, symSize: 0x50 }
  - { offsetInCU: 0x7AA3B, offset: 0x7AA3B, size: 0x8, addend: 0x0, symName: __ZNSt3__16vectorI10MeshScalarNS_9allocatorIS1_EEE16__destroy_vectorclB8ue170006Ev, symObjAddr: 0x2E450, symBinAddr: 0x100032EFC, symSize: 0x90 }
  - { offsetInCU: 0x7AA61, offset: 0x7AA61, size: 0x8, addend: 0x0, symName: __ZNSt3__16vectorI10MeshScalarNS_9allocatorIS1_EEE7__clearB8ue170006Ev, symObjAddr: 0x2E4E0, symBinAddr: 0x100032F8C, symSize: 0x28 }
  - { offsetInCU: 0x7AA87, offset: 0x7AA87, size: 0x8, addend: 0x0, symName: __ZNSt3__16vectorI10MeshScalarNS_9allocatorIS1_EEE22__base_destruct_at_endB8ue170006EPS1_, symObjAddr: 0x2E508, symBinAddr: 0x100032FB4, symSize: 0x8C }
  - { offsetInCU: 0x7AACB, offset: 0x7AACB, size: 0x8, addend: 0x0, symName: __ZN4MeshC2ENSt3__16vectorI10MeshVertexNS0_9allocatorIS2_EEEENS1_IjNS3_IjEEEENS1_INS0_10shared_ptrI3TexEENS3_ISA_EEEENS1_I9MeshColorNS3_ISD_EEEENS1_I10MeshScalarNS3_ISG_EEEEN3glm3matILi4ELi4EfLNSJ_9qualifierE0EEE, symObjAddr: 0x2E594, symBinAddr: 0x100033040, symSize: 0x174 }
  - { offsetInCU: 0x7AB4F, offset: 0x7AB4F, size: 0x8, addend: 0x0, symName: __ZN4Mesh9setupMeshEv, symObjAddr: 0x2E708, symBinAddr: 0x1000331B4, symSize: 0x2B8 }
  - { offsetInCU: 0x7AB75, offset: 0x7AB75, size: 0x8, addend: 0x0, symName: __ZNSt3__16vectorI10MeshVertexNS_9allocatorIS1_EEEixB8ue170006Em, symObjAddr: 0x2E9C0, symBinAddr: 0x10003346C, symSize: 0x2C }
  - { offsetInCU: 0x7ABAC, offset: 0x7ABAC, size: 0x8, addend: 0x0, symName: __ZNSt3__110shared_ptrI4MeshEC2B8ue170006IS1_vEEPT_, symObjAddr: 0x2E9EC, symBinAddr: 0x100033498, symSize: 0xEC }
  - { offsetInCU: 0x7AC96, offset: 0x7AC96, size: 0x8, addend: 0x0, symName: __ZNSt3__110unique_ptrI4MeshNS_14default_deleteIS1_EEEC1B8ue170006ILb1EvEEPS1_, symObjAddr: 0x2EAD8, symBinAddr: 0x100033584, symSize: 0x34 }
  - { offsetInCU: 0x7ACFC, offset: 0x7ACFC, size: 0x8, addend: 0x0, symName: __ZNSt3__19allocatorI4MeshEC1B8ue170006Ev, symObjAddr: 0x2EB0C, symBinAddr: 0x1000335B8, symSize: 0x2C }
  - { offsetInCU: 0x7ADC1, offset: 0x7ADC1, size: 0x8, addend: 0x0, symName: __ZNSt3__120__shared_ptr_pointerIP4MeshNS_10shared_ptrIS1_E27__shared_ptr_default_deleteIS1_S1_EENS_9allocatorIS1_EEEC1B8ue170006ES2_S6_S8_, symObjAddr: 0x2EB38, symBinAddr: 0x1000335E4, symSize: 0x34 }
  - { offsetInCU: 0x7AE15, offset: 0x7AE15, size: 0x8, addend: 0x0, symName: __ZNSt3__110unique_ptrI4MeshNS_14default_deleteIS1_EEE7releaseB8ue170006Ev, symObjAddr: 0x2EB6C, symBinAddr: 0x100033618, symSize: 0x44 }
  - { offsetInCU: 0x7AE4A, offset: 0x7AE4A, size: 0x8, addend: 0x0, symName: __ZNSt3__110shared_ptrI4MeshE18__enable_weak_thisB8ue170006Ez, symObjAddr: 0x2EBB0, symBinAddr: 0x10003365C, symSize: 0x10 }
  - { offsetInCU: 0x7AE71, offset: 0x7AE71, size: 0x8, addend: 0x0, symName: __ZNSt3__110unique_ptrI4MeshNS_14default_deleteIS1_EEED1B8ue170006Ev, symObjAddr: 0x2EBC0, symBinAddr: 0x10003366C, symSize: 0x2C }
  - { offsetInCU: 0x7AE9B, offset: 0x7AE9B, size: 0x8, addend: 0x0, symName: __ZNSt3__110unique_ptrI4MeshNS_14default_deleteIS1_EEEC2B8ue170006ILb1EvEEPS1_, symObjAddr: 0x2EBEC, symBinAddr: 0x100033698, symSize: 0x44 }
  - { offsetInCU: 0x7AEE4, offset: 0x7AEE4, size: 0x8, addend: 0x0, symName: __ZNSt3__117__compressed_pairIP4MeshNS_14default_deleteIS1_EEEC1B8ue170006IRS2_NS_16__value_init_tagEEEOT_OT0_, symObjAddr: 0x2EC30, symBinAddr: 0x1000336DC, symSize: 0x3C }
  - { offsetInCU: 0x7AF3C, offset: 0x7AF3C, size: 0x8, addend: 0x0, symName: __ZNSt3__117__compressed_pairIP4MeshNS_14default_deleteIS1_EEEC2B8ue170006IRS2_NS_16__value_init_tagEEEOT_OT0_, symObjAddr: 0x2EC6C, symBinAddr: 0x100033718, symSize: 0x40 }
  - { offsetInCU: 0x7AF94, offset: 0x7AF94, size: 0x8, addend: 0x0, symName: __ZNSt3__122__compressed_pair_elemIP4MeshLi0ELb0EEC2B8ue170006IRS2_vEEOT_, symObjAddr: 0x2ECAC, symBinAddr: 0x100033758, symSize: 0x24 }
  - { offsetInCU: 0x7AFD6, offset: 0x7AFD6, size: 0x8, addend: 0x0, symName: __ZNSt3__122__compressed_pair_elemINS_14default_deleteI4MeshEELi1ELb1EEC2B8ue170006ENS_16__value_init_tagE, symObjAddr: 0x2ECD0, symBinAddr: 0x10003377C, symSize: 0x14 }
  - { offsetInCU: 0x7B00B, offset: 0x7B00B, size: 0x8, addend: 0x0, symName: __ZNSt3__19allocatorI4MeshEC2B8ue170006Ev, symObjAddr: 0x2ECE4, symBinAddr: 0x100033790, symSize: 0x2C }
  - { offsetInCU: 0x7B035, offset: 0x7B035, size: 0x8, addend: 0x0, symName: __ZNSt3__116__non_trivial_ifILb1ENS_9allocatorI4MeshEEEC2B8ue170006Ev, symObjAddr: 0x2ED10, symBinAddr: 0x1000337BC, symSize: 0x14 }
  - { offsetInCU: 0x7B05F, offset: 0x7B05F, size: 0x8, addend: 0x0, symName: __ZNSt3__120__shared_ptr_pointerIP4MeshNS_10shared_ptrIS1_E27__shared_ptr_default_deleteIS1_S1_EENS_9allocatorIS1_EEEC2B8ue170006ES2_S6_S8_, symObjAddr: 0x2ED24, symBinAddr: 0x1000337D0, symSize: 0xA8 }
  - { offsetInCU: 0x7B0B3, offset: 0x7B0B3, size: 0x8, addend: 0x0, symName: __ZNSt3__119__shared_weak_countC2B8ue170006El, symObjAddr: 0x2EDCC, symBinAddr: 0x100033878, symSize: 0x54 }
  - { offsetInCU: 0x7B0F1, offset: 0x7B0F1, size: 0x8, addend: 0x0, symName: __ZNSt3__117__compressed_pairIP4MeshNS_10shared_ptrIS1_E27__shared_ptr_default_deleteIS1_S1_EEEC1B8ue170006IRS2_S6_EEOT_OT0_, symObjAddr: 0x2EE20, symBinAddr: 0x1000338CC, symSize: 0x3C }
  - { offsetInCU: 0x7B155, offset: 0x7B155, size: 0x8, addend: 0x0, symName: __ZNSt3__117__compressed_pairINS0_IP4MeshNS_10shared_ptrIS1_E27__shared_ptr_default_deleteIS1_S1_EEEENS_9allocatorIS1_EEEC1B8ue170006IS7_S9_EEOT_OT0_, symObjAddr: 0x2EE5C, symBinAddr: 0x100033908, symSize: 0x3C }
  - { offsetInCU: 0x7B1AD, offset: 0x7B1AD, size: 0x8, addend: 0x0, symName: __ZNSt3__120__shared_ptr_pointerIP4MeshNS_10shared_ptrIS1_E27__shared_ptr_default_deleteIS1_S1_EENS_9allocatorIS1_EEED1Ev, symObjAddr: 0x2EE98, symBinAddr: 0x100033944, symSize: 0x2C }
  - { offsetInCU: 0x7B1D9, offset: 0x7B1D9, size: 0x8, addend: 0x0, symName: __ZNSt3__120__shared_ptr_pointerIP4MeshNS_10shared_ptrIS1_E27__shared_ptr_default_deleteIS1_S1_EENS_9allocatorIS1_EEED0Ev, symObjAddr: 0x2EEC4, symBinAddr: 0x100033970, symSize: 0x30 }
  - { offsetInCU: 0x7B205, offset: 0x7B205, size: 0x8, addend: 0x0, symName: __ZNSt3__120__shared_ptr_pointerIP4MeshNS_10shared_ptrIS1_E27__shared_ptr_default_deleteIS1_S1_EENS_9allocatorIS1_EEE16__on_zero_sharedEv, symObjAddr: 0x2EEF4, symBinAddr: 0x1000339A0, symSize: 0x64 }
  - { offsetInCU: 0x7B22D, offset: 0x7B22D, size: 0x8, addend: 0x0, symName: __ZNKSt3__120__shared_ptr_pointerIP4MeshNS_10shared_ptrIS1_E27__shared_ptr_default_deleteIS1_S1_EENS_9allocatorIS1_EEE13__get_deleterERKSt9type_info, symObjAddr: 0x2EF58, symBinAddr: 0x100033A04, symSize: 0x68 }
  - { offsetInCU: 0x7B262, offset: 0x7B262, size: 0x8, addend: 0x0, symName: __ZNSt3__120__shared_ptr_pointerIP4MeshNS_10shared_ptrIS1_E27__shared_ptr_default_deleteIS1_S1_EENS_9allocatorIS1_EEE21__on_zero_shared_weakEv, symObjAddr: 0x2EFC0, symBinAddr: 0x100033A6C, symSize: 0x60 }
  - { offsetInCU: 0x7B2A5, offset: 0x7B2A5, size: 0x8, addend: 0x0, symName: __ZNSt3__114__shared_countC2B8ue170006El, symObjAddr: 0x2F020, symBinAddr: 0x100033ACC, symSize: 0x30 }
  - { offsetInCU: 0x7B2DD, offset: 0x7B2DD, size: 0x8, addend: 0x0, symName: __ZNSt3__117__compressed_pairIP4MeshNS_10shared_ptrIS1_E27__shared_ptr_default_deleteIS1_S1_EEEC2B8ue170006IRS2_S6_EEOT_OT0_, symObjAddr: 0x2F050, symBinAddr: 0x100033AFC, symSize: 0x44 }
  - { offsetInCU: 0x7B335, offset: 0x7B335, size: 0x8, addend: 0x0, symName: __ZNSt3__122__compressed_pair_elemINS_10shared_ptrI4MeshE27__shared_ptr_default_deleteIS2_S2_EELi1ELb1EEC2B8ue170006IS5_vEEOT_, symObjAddr: 0x2F094, symBinAddr: 0x100033B40, symSize: 0x18 }
  - { offsetInCU: 0x7B377, offset: 0x7B377, size: 0x8, addend: 0x0, symName: __ZNSt3__117__compressed_pairINS0_IP4MeshNS_10shared_ptrIS1_E27__shared_ptr_default_deleteIS1_S1_EEEENS_9allocatorIS1_EEEC2B8ue170006IS7_S9_EEOT_OT0_, symObjAddr: 0x2F0AC, symBinAddr: 0x100033B58, symSize: 0x44 }
  - { offsetInCU: 0x7B3CF, offset: 0x7B3CF, size: 0x8, addend: 0x0, symName: __ZNSt3__122__compressed_pair_elemINS_17__compressed_pairIP4MeshNS_10shared_ptrIS2_E27__shared_ptr_default_deleteIS2_S2_EEEELi0ELb0EEC2B8ue170006IS8_vEEOT_, symObjAddr: 0x2F0F0, symBinAddr: 0x100033B9C, symSize: 0x24 }
  - { offsetInCU: 0x7B411, offset: 0x7B411, size: 0x8, addend: 0x0, symName: __ZNSt3__122__compressed_pair_elemINS_9allocatorI4MeshEELi1ELb1EEC2B8ue170006IS3_vEEOT_, symObjAddr: 0x2F114, symBinAddr: 0x100033BC0, symSize: 0x18 }
  - { offsetInCU: 0x7B453, offset: 0x7B453, size: 0x8, addend: 0x0, symName: __ZNSt3__120__shared_ptr_pointerIP4MeshNS_10shared_ptrIS1_E27__shared_ptr_default_deleteIS1_S1_EENS_9allocatorIS1_EEED2Ev, symObjAddr: 0x2F12C, symBinAddr: 0x100033BD8, symSize: 0x2C }
  - { offsetInCU: 0x7B47F, offset: 0x7B47F, size: 0x8, addend: 0x0, symName: __ZNSt3__117__compressed_pairINS0_IP4MeshNS_10shared_ptrIS1_E27__shared_ptr_default_deleteIS1_S1_EEEENS_9allocatorIS1_EEE5firstB8ue170006Ev, symObjAddr: 0x2F158, symBinAddr: 0x100033C04, symSize: 0x24 }
  - { offsetInCU: 0x7B4A5, offset: 0x7B4A5, size: 0x8, addend: 0x0, symName: __ZNSt3__117__compressed_pairIP4MeshNS_10shared_ptrIS1_E27__shared_ptr_default_deleteIS1_S1_EEE6secondB8ue170006Ev, symObjAddr: 0x2F17C, symBinAddr: 0x100033C28, symSize: 0x24 }
  - { offsetInCU: 0x7B4CB, offset: 0x7B4CB, size: 0x8, addend: 0x0, symName: __ZNKSt3__114default_deleteI4MeshEclB8ue170006EPS1_, symObjAddr: 0x2F1A0, symBinAddr: 0x100033C4C, symSize: 0x4C }
  - { offsetInCU: 0x7B4FF, offset: 0x7B4FF, size: 0x8, addend: 0x0, symName: __ZNSt3__117__compressed_pairIP4MeshNS_10shared_ptrIS1_E27__shared_ptr_default_deleteIS1_S1_EEE5firstB8ue170006Ev, symObjAddr: 0x2F1EC, symBinAddr: 0x100033C98, symSize: 0x24 }
  - { offsetInCU: 0x7B525, offset: 0x7B525, size: 0x8, addend: 0x0, symName: __ZNSt3__122__compressed_pair_elemINS_17__compressed_pairIP4MeshNS_10shared_ptrIS2_E27__shared_ptr_default_deleteIS2_S2_EEEELi0ELb0EE5__getB8ue170006Ev, symObjAddr: 0x2F210, symBinAddr: 0x100033CBC, symSize: 0x14 }
  - { offsetInCU: 0x7B54B, offset: 0x7B54B, size: 0x8, addend: 0x0, symName: __ZNSt3__122__compressed_pair_elemINS_10shared_ptrI4MeshE27__shared_ptr_default_deleteIS2_S2_EELi1ELb1EE5__getB8ue170006Ev, symObjAddr: 0x2F224, symBinAddr: 0x100033CD0, symSize: 0x14 }
  - { offsetInCU: 0x7B571, offset: 0x7B571, size: 0x8, addend: 0x0, symName: __ZN4MeshD1Ev, symObjAddr: 0x2F238, symBinAddr: 0x100033CE4, symSize: 0x2C }
  - { offsetInCU: 0x7B59B, offset: 0x7B59B, size: 0x8, addend: 0x0, symName: __ZN4MeshD2Ev, symObjAddr: 0x2F264, symBinAddr: 0x100033D10, symSize: 0xC0 }
  - { offsetInCU: 0x7B5C5, offset: 0x7B5C5, size: 0x8, addend: 0x0, symName: __ZNSt3__122__compressed_pair_elemIP4MeshLi0ELb0EE5__getB8ue170006Ev, symObjAddr: 0x2F324, symBinAddr: 0x100033DD0, symSize: 0x14 }
  - { offsetInCU: 0x7B621, offset: 0x7B621, size: 0x8, addend: 0x0, symName: __ZNKSt9type_infoeqB8ue170006ERKS_, symObjAddr: 0x2F338, symBinAddr: 0x100033DE4, symSize: 0xDC }
  - { offsetInCU: 0x7B6BF, offset: 0x7B6BF, size: 0x8, addend: 0x0, symName: __ZNKSt3__117__compressed_pairINS0_IP4MeshNS_10shared_ptrIS1_E27__shared_ptr_default_deleteIS1_S1_EEEENS_9allocatorIS1_EEE5firstB8ue170006Ev, symObjAddr: 0x2F414, symBinAddr: 0x100033EC0, symSize: 0x24 }
  - { offsetInCU: 0x7B6E5, offset: 0x7B6E5, size: 0x8, addend: 0x0, symName: __ZNKSt3__117__compressed_pairIP4MeshNS_10shared_ptrIS1_E27__shared_ptr_default_deleteIS1_S1_EEE6secondB8ue170006Ev, symObjAddr: 0x2F438, symBinAddr: 0x100033EE4, symSize: 0x24 }
  - { offsetInCU: 0x7B70B, offset: 0x7B70B, size: 0x8, addend: 0x0, symName: __ZNSt27__type_info_implementations30__non_unique_arm_rtti_bit_impl21__is_type_name_uniqueB8ue170006Em, symObjAddr: 0x2F45C, symBinAddr: 0x100033F08, symSize: 0x20 }
  - { offsetInCU: 0x7B72F, offset: 0x7B72F, size: 0x8, addend: 0x0, symName: __ZNKSt3__122__compressed_pair_elemINS_17__compressed_pairIP4MeshNS_10shared_ptrIS2_E27__shared_ptr_default_deleteIS2_S2_EEEELi0ELb0EE5__getB8ue170006Ev, symObjAddr: 0x2F47C, symBinAddr: 0x100033F28, symSize: 0x14 }
  - { offsetInCU: 0x7B755, offset: 0x7B755, size: 0x8, addend: 0x0, symName: __ZNKSt3__122__compressed_pair_elemINS_10shared_ptrI4MeshE27__shared_ptr_default_deleteIS2_S2_EELi1ELb1EE5__getB8ue170006Ev, symObjAddr: 0x2F490, symBinAddr: 0x100033F3C, symSize: 0x14 }
  - { offsetInCU: 0x7B77B, offset: 0x7B77B, size: 0x8, addend: 0x0, symName: __ZNSt3__117__compressed_pairINS0_IP4MeshNS_10shared_ptrIS1_E27__shared_ptr_default_deleteIS1_S1_EEEENS_9allocatorIS1_EEE6secondB8ue170006Ev, symObjAddr: 0x2F4A4, symBinAddr: 0x100033F50, symSize: 0x24 }
  - { offsetInCU: 0x7B7C9, offset: 0x7B7C9, size: 0x8, addend: 0x0, symName: __ZNSt3__19allocatorINS_20__shared_ptr_pointerIP4MeshNS_10shared_ptrIS2_E27__shared_ptr_default_deleteIS2_S2_EENS0_IS2_EEEEEC1B8ue170006IS2_EERKNS0_IT_EE, symObjAddr: 0x2F4C8, symBinAddr: 0x100033F74, symSize: 0x34 }
  - { offsetInCU: 0x7B807, offset: 0x7B807, size: 0x8, addend: 0x0, symName: __ZNSt3__19allocatorINS_20__shared_ptr_pointerIP4MeshNS_10shared_ptrIS2_E27__shared_ptr_default_deleteIS2_S2_EENS0_IS2_EEEEE10deallocateB8ue170006EPS9_m, symObjAddr: 0x2F4FC, symBinAddr: 0x100033FA8, symSize: 0x40 }
  - { offsetInCU: 0x7B849, offset: 0x7B849, size: 0x8, addend: 0x0, symName: __ZNSt3__114pointer_traitsIPNS_20__shared_ptr_pointerIP4MeshNS_10shared_ptrIS2_E27__shared_ptr_default_deleteIS2_S2_EENS_9allocatorIS2_EEEEE10pointer_toB8ue170006ERSA_, symObjAddr: 0x2F53C, symBinAddr: 0x100033FE8, symSize: 0x14 }
  - { offsetInCU: 0x7B86C, offset: 0x7B86C, size: 0x8, addend: 0x0, symName: __ZNSt3__122__compressed_pair_elemINS_9allocatorI4MeshEELi1ELb1EE5__getB8ue170006Ev, symObjAddr: 0x2F550, symBinAddr: 0x100033FFC, symSize: 0x14 }
  - { offsetInCU: 0x7B892, offset: 0x7B892, size: 0x8, addend: 0x0, symName: __ZNSt3__19allocatorINS_20__shared_ptr_pointerIP4MeshNS_10shared_ptrIS2_E27__shared_ptr_default_deleteIS2_S2_EENS0_IS2_EEEEEC2B8ue170006IS2_EERKNS0_IT_EE, symObjAddr: 0x2F564, symBinAddr: 0x100034010, symSize: 0x30 }
  - { offsetInCU: 0x7B8D0, offset: 0x7B8D0, size: 0x8, addend: 0x0, symName: __ZNSt3__116__non_trivial_ifILb1ENS_9allocatorINS_20__shared_ptr_pointerIP4MeshNS_10shared_ptrIS3_E27__shared_ptr_default_deleteIS3_S3_EENS1_IS3_EEEEEEEC2B8ue170006Ev, symObjAddr: 0x2F594, symBinAddr: 0x100034040, symSize: 0x14 }
  - { offsetInCU: 0x7B8FA, offset: 0x7B8FA, size: 0x8, addend: 0x0, symName: __ZNSt3__117__compressed_pairIP4MeshNS_14default_deleteIS1_EEE5firstB8ue170006Ev, symObjAddr: 0x2F5A8, symBinAddr: 0x100034054, symSize: 0x24 }
  - { offsetInCU: 0x7B920, offset: 0x7B920, size: 0x8, addend: 0x0, symName: __ZNSt3__110unique_ptrI4MeshNS_14default_deleteIS1_EEED2B8ue170006Ev, symObjAddr: 0x2F5CC, symBinAddr: 0x100034078, symSize: 0x30 }
  - { offsetInCU: 0x7B94A, offset: 0x7B94A, size: 0x8, addend: 0x0, symName: __ZNSt3__110unique_ptrI4MeshNS_14default_deleteIS1_EEE5resetB8ue170006EPS1_, symObjAddr: 0x2F5FC, symBinAddr: 0x1000340A8, symSize: 0x78 }
  - { offsetInCU: 0x7B98E, offset: 0x7B98E, size: 0x8, addend: 0x0, symName: __ZNSt3__117__compressed_pairIP4MeshNS_14default_deleteIS1_EEE6secondB8ue170006Ev, symObjAddr: 0x2F674, symBinAddr: 0x100034120, symSize: 0x24 }
  - { offsetInCU: 0x7B9B4, offset: 0x7B9B4, size: 0x8, addend: 0x0, symName: __ZNSt3__122__compressed_pair_elemINS_14default_deleteI4MeshEELi1ELb1EE5__getB8ue170006Ev, symObjAddr: 0x2F698, symBinAddr: 0x100034144, symSize: 0x14 }
  - { offsetInCU: 0x7B9DA, offset: 0x7B9DA, size: 0x8, addend: 0x0, symName: __ZNSt3__16vectorI10MeshScalarNS_9allocatorIS1_EEED2B8ue170006Ev, symObjAddr: 0x2F6AC, symBinAddr: 0x100034158, symSize: 0x40 }
  - { offsetInCU: 0x7BA04, offset: 0x7BA04, size: 0x8, addend: 0x0, symName: __ZNSt3__16vectorI9MeshColorNS_9allocatorIS1_EEED2B8ue170006Ev, symObjAddr: 0x2F6EC, symBinAddr: 0x100034198, symSize: 0x40 }
  - { offsetInCU: 0x7BA2E, offset: 0x7BA2E, size: 0x8, addend: 0x0, symName: __ZNSt3__16vectorI10MeshVertexNS_9allocatorIS1_EEED2B8ue170006Ev, symObjAddr: 0x2F72C, symBinAddr: 0x1000341D8, symSize: 0x40 }
  - { offsetInCU: 0x7BA58, offset: 0x7BA58, size: 0x8, addend: 0x0, symName: __ZN10MeshScalarD2Ev, symObjAddr: 0x2F76C, symBinAddr: 0x100034218, symSize: 0x30 }
  - { offsetInCU: 0x7BA84, offset: 0x7BA84, size: 0x8, addend: 0x0, symName: __ZN9MeshColorD2Ev, symObjAddr: 0x2F79C, symBinAddr: 0x100034248, symSize: 0x30 }
  - { offsetInCU: 0x7BAB0, offset: 0x7BAB0, size: 0x8, addend: 0x0, symName: __ZNSt3__110shared_ptrI4MeshED2B8ue170006Ev, symObjAddr: 0x2F7CC, symBinAddr: 0x100034278, symSize: 0x54 }
  - { offsetInCU: 0x7BADA, offset: 0x7BADA, size: 0x8, addend: 0x0, symName: __ZNSt3__119__shared_weak_count16__release_sharedB8ue170006Ev, symObjAddr: 0x2F820, symBinAddr: 0x1000342CC, symSize: 0x3C }
  - { offsetInCU: 0x7BB00, offset: 0x7BB00, size: 0x8, addend: 0x0, symName: __ZNSt3__114__shared_count16__release_sharedB8ue170006Ev, symObjAddr: 0x2F85C, symBinAddr: 0x100034308, symSize: 0x7C }
  - { offsetInCU: 0x7BB26, offset: 0x7BB26, size: 0x8, addend: 0x0, symName: __ZNSt3__114basic_ifstreamIcNS_11char_traitsIcEEEC1ERKNS_12basic_stringIcS2_NS_9allocatorIcEEEEj, symObjAddr: 0x2F908, symBinAddr: 0x1000343B4, symSize: 0x16C }
  - { offsetInCU: 0x7BB70, offset: 0x7BB70, size: 0x8, addend: 0x0, symName: __ZNKSt3__19basic_iosIcNS_11char_traitsIcEEEcvbB8ue170006Ev, symObjAddr: 0x2FAD0, symBinAddr: 0x10003457C, symSize: 0x2C }
  - { offsetInCU: 0x7BB96, offset: 0x7BB96, size: 0x8, addend: 0x0, symName: __ZNKSt3__112basic_stringIcNS_11char_traitsIcEENS_9allocatorIcEEE4findB8ue170006ERKS5_m, symObjAddr: 0x2FAFC, symBinAddr: 0x1000345A8, symSize: 0x78 }
  - { offsetInCU: 0x7BBDC, offset: 0x7BBDC, size: 0x8, addend: 0x0, symName: __ZNSt3__114basic_ifstreamIcNS_11char_traitsIcEEE5closeEv, symObjAddr: 0x2FB74, symBinAddr: 0x100034620, symSize: 0x58 }
  - { offsetInCU: 0x7BD17, offset: 0x7BD17, size: 0x8, addend: 0x0, symName: __ZNSt3__13setINS_12basic_stringIcNS_11char_traitsIcEENS_9allocatorIcEEEENS_4lessIS6_EENS4_IS6_EEEC1B8ue170006Ev, symObjAddr: 0x2FBCC, symBinAddr: 0x100034678, symSize: 0x2C }
  - { offsetInCU: 0x7BD41, offset: 0x7BD41, size: 0x8, addend: 0x0, symName: __ZNSt3__13setINS_12basic_stringIcNS_11char_traitsIcEENS_9allocatorIcEEEENS_4lessIS6_EENS4_IS6_EEE6insertB8ue170006EOS6_, symObjAddr: 0x2FBF8, symBinAddr: 0x1000346A4, symSize: 0x4C }
  - { offsetInCU: 0x7BD76, offset: 0x7BD76, size: 0x8, addend: 0x0, symName: __ZNSt3__13setINS_12basic_stringIcNS_11char_traitsIcEENS_9allocatorIcEEEENS_4lessIS6_EENS4_IS6_EEE5beginB8ue170006Ev, symObjAddr: 0x2FC44, symBinAddr: 0x1000346F0, symSize: 0x38 }
  - { offsetInCU: 0x7BD9C, offset: 0x7BD9C, size: 0x8, addend: 0x0, symName: __ZNSt3__13setINS_12basic_stringIcNS_11char_traitsIcEENS_9allocatorIcEEEENS_4lessIS6_EENS4_IS6_EEE3endB8ue170006Ev, symObjAddr: 0x2FCB0, symBinAddr: 0x10003475C, symSize: 0x38 }
  - { offsetInCU: 0x7BDC2, offset: 0x7BDC2, size: 0x8, addend: 0x0, symName: __ZNKSt3__121__tree_const_iteratorINS_12basic_stringIcNS_11char_traitsIcEENS_9allocatorIcEEEEPNS_11__tree_nodeIS6_PvEElEdeB8ue170006Ev, symObjAddr: 0x2FCE8, symBinAddr: 0x100034794, symSize: 0x28 }
  - { offsetInCU: 0x7BDE8, offset: 0x7BDE8, size: 0x8, addend: 0x0, symName: __ZNSt3__121__tree_const_iteratorINS_12basic_stringIcNS_11char_traitsIcEENS_9allocatorIcEEEEPNS_11__tree_nodeIS6_PvEElEppB8ue170006Ei, symObjAddr: 0x2FD10, symBinAddr: 0x1000347BC, symSize: 0x34 }
  - { offsetInCU: 0x7BE43, offset: 0x7BE43, size: 0x8, addend: 0x0, symName: __ZNSt3__114basic_ofstreamIcNS_11char_traitsIcEEEC1ERKNS_12basic_stringIcS2_NS_9allocatorIcEEEEj, symObjAddr: 0x2FD44, symBinAddr: 0x1000347F0, symSize: 0x16C }
  - { offsetInCU: 0x7BE8D, offset: 0x7BE8D, size: 0x8, addend: 0x0, symName: __ZNKSt3__19basic_iosIcNS_11char_traitsIcEEE3badB8ue170006Ev, symObjAddr: 0x2FEB0, symBinAddr: 0x10003495C, symSize: 0x28 }
  - { offsetInCU: 0x7BEB3, offset: 0x7BEB3, size: 0x8, addend: 0x0, symName: __ZNKSt3__118basic_stringstreamIcNS_11char_traitsIcEENS_9allocatorIcEEE5rdbufB8ue170006Ev, symObjAddr: 0x2FED8, symBinAddr: 0x100034984, symSize: 0x18 }
  - { offsetInCU: 0x7BED9, offset: 0x7BED9, size: 0x8, addend: 0x0, symName: __ZNSt3__114basic_ofstreamIcNS_11char_traitsIcEEE5closeEv, symObjAddr: 0x2FEF0, symBinAddr: 0x10003499C, symSize: 0x58 }
  - { offsetInCU: 0x7BF06, offset: 0x7BF06, size: 0x8, addend: 0x0, symName: __ZNSt3__114basic_ofstreamIcNS_11char_traitsIcEEED1Ev, symObjAddr: 0x2FF48, symBinAddr: 0x1000349F4, symSize: 0x40 }
  - { offsetInCU: 0x7BF33, offset: 0x7BF33, size: 0x8, addend: 0x0, symName: __ZNSt3__13setINS_12basic_stringIcNS_11char_traitsIcEENS_9allocatorIcEEEENS_4lessIS6_EENS4_IS6_EEED1B8ue170006Ev, symObjAddr: 0x2FF88, symBinAddr: 0x100034A34, symSize: 0x2C }
  - { offsetInCU: 0x7BF5D, offset: 0x7BF5D, size: 0x8, addend: 0x0, symName: __ZNSt3__113basic_filebufIcNS_11char_traitsIcEEE4openERKNS_12basic_stringIcS2_NS_9allocatorIcEEEEj, symObjAddr: 0x2FFB4, symBinAddr: 0x100034A60, symSize: 0x44 }
  - { offsetInCU: 0x7BFBF, offset: 0x7BFBF, size: 0x8, addend: 0x0, symName: __ZNKSt3__113basic_istreamIcNS_11char_traitsIcEEE6sentrycvbB8ue170006Ev, symObjAddr: 0x30230, symBinAddr: 0x100034CDC, symSize: 0x1C }
  - { offsetInCU: 0x7BFE5, offset: 0x7BFE5, size: 0x8, addend: 0x0, symName: __ZNSt3__112basic_stringIcNS_11char_traitsIcEENS_9allocatorIcEEE5clearB8ue170006Ev, symObjAddr: 0x3024C, symBinAddr: 0x100034CF8, symSize: 0x78 }
  - { offsetInCU: 0x7C00D, offset: 0x7C00D, size: 0x8, addend: 0x0, symName: __ZNSt3__115basic_streambufIcNS_11char_traitsIcEEE6sbumpcB8ue170006Ev, symObjAddr: 0x302C4, symBinAddr: 0x100034D70, symSize: 0x78 }
  - { offsetInCU: 0x7C033, offset: 0x7C033, size: 0x8, addend: 0x0, symName: __ZNSt3__111char_traitsIcE12to_char_typeB8ue170006Ei, symObjAddr: 0x3033C, symBinAddr: 0x100034DE8, symSize: 0x18 }
  - { offsetInCU: 0x7C056, offset: 0x7C056, size: 0x8, addend: 0x0, symName: __ZNSt3__111char_traitsIcE2eqEcc, symObjAddr: 0x30354, symBinAddr: 0x100034E00, symSize: 0x28 }
  - { offsetInCU: 0x7C087, offset: 0x7C087, size: 0x8, addend: 0x0, symName: __ZNSt3__18ios_base18__setstate_nothrowB8ue170006Ej, symObjAddr: 0x3037C, symBinAddr: 0x100034E28, symSize: 0x64 }
  - { offsetInCU: 0x7C0BC, offset: 0x7C0BC, size: 0x8, addend: 0x0, symName: __ZNKSt3__19basic_iosIcNS_11char_traitsIcEEE10exceptionsB8ue170006Ev, symObjAddr: 0x303E0, symBinAddr: 0x100034E8C, symSize: 0x24 }
  - { offsetInCU: 0x7C0E2, offset: 0x7C0E2, size: 0x8, addend: 0x0, symName: __ZNSt3__111char_traitsIcE11to_int_typeB8ue170006Ec, symObjAddr: 0x30404, symBinAddr: 0x100034EB0, symSize: 0x14 }
  - { offsetInCU: 0x7C106, offset: 0x7C106, size: 0x8, addend: 0x0, symName: __ZNKSt3__18ios_base10exceptionsB8ue170006Ev, symObjAddr: 0x30418, symBinAddr: 0x100034EC4, symSize: 0x18 }
  - { offsetInCU: 0x7C12E, offset: 0x7C12E, size: 0x8, addend: 0x0, symName: __ZNSt3__111char_traitsIcE4findB8ue170006EPKcmRS2_, symObjAddr: 0x30668, symBinAddr: 0x100035114, symSize: 0x70 }
  - { offsetInCU: 0x7C16D, offset: 0x7C16D, size: 0x8, addend: 0x0, symName: __ZNSt3__111char_traitsIcE7compareB8ue170006EPKcS3_m, symObjAddr: 0x306D8, symBinAddr: 0x100035184, symSize: 0x34 }
  - { offsetInCU: 0x7C1AC, offset: 0x7C1AC, size: 0x8, addend: 0x0, symName: __ZNSt3__13setINS_12basic_stringIcNS_11char_traitsIcEENS_9allocatorIcEEEENS_4lessIS6_EENS4_IS6_EEEC2B8ue170006Ev, symObjAddr: 0x3074C, symBinAddr: 0x1000351F8, symSize: 0x30 }
  - { offsetInCU: 0x7C1D6, offset: 0x7C1D6, size: 0x8, addend: 0x0, symName: __ZNSt3__16__treeINS_12basic_stringIcNS_11char_traitsIcEENS_9allocatorIcEEEENS_4lessIS6_EENS4_IS6_EEEC1ERKS8_, symObjAddr: 0x3077C, symBinAddr: 0x100035228, symSize: 0x34 }
  - { offsetInCU: 0x7C211, offset: 0x7C211, size: 0x8, addend: 0x0, symName: __ZNSt3__16__treeINS_12basic_stringIcNS_11char_traitsIcEENS_9allocatorIcEEEENS_4lessIS6_EENS4_IS6_EEEC2ERKS8_, symObjAddr: 0x307B0, symBinAddr: 0x10003525C, symSize: 0x7C }
  - { offsetInCU: 0x7C24C, offset: 0x7C24C, size: 0x8, addend: 0x0, symName: __ZNSt3__117__compressed_pairINS_15__tree_end_nodeIPNS_16__tree_node_baseIPvEEEENS_9allocatorINS_11__tree_nodeINS_12basic_stringIcNS_11char_traitsIcEENS7_IcEEEES3_EEEEEC1B8ue170006ILb1EvEEv, symObjAddr: 0x3082C, symBinAddr: 0x1000352D8, symSize: 0x2C }
  - { offsetInCU: 0x7C281, offset: 0x7C281, size: 0x8, addend: 0x0, symName: __ZNSt3__117__compressed_pairImNS_4lessINS_12basic_stringIcNS_11char_traitsIcEENS_9allocatorIcEEEEEEEC1B8ue170006IiRKS8_EEOT_OT0_, symObjAddr: 0x30858, symBinAddr: 0x100035304, symSize: 0x3C }
  - { offsetInCU: 0x7C2D9, offset: 0x7C2D9, size: 0x8, addend: 0x0, symName: __ZNSt3__16__treeINS_12basic_stringIcNS_11char_traitsIcEENS_9allocatorIcEEEENS_4lessIS6_EENS4_IS6_EEE10__end_nodeB8ue170006Ev, symObjAddr: 0x30894, symBinAddr: 0x100035340, symSize: 0x2C }
  - { offsetInCU: 0x7C2FF, offset: 0x7C2FF, size: 0x8, addend: 0x0, symName: __ZNSt3__16__treeINS_12basic_stringIcNS_11char_traitsIcEENS_9allocatorIcEEEENS_4lessIS6_EENS4_IS6_EEE12__begin_nodeB8ue170006Ev, symObjAddr: 0x308C0, symBinAddr: 0x10003536C, symSize: 0x14 }
  - { offsetInCU: 0x7C325, offset: 0x7C325, size: 0x8, addend: 0x0, symName: __ZNSt3__117__compressed_pairINS_15__tree_end_nodeIPNS_16__tree_node_baseIPvEEEENS_9allocatorINS_11__tree_nodeINS_12basic_stringIcNS_11char_traitsIcEENS7_IcEEEES3_EEEEEC2B8ue170006ILb1EvEEv, symObjAddr: 0x308D4, symBinAddr: 0x100035380, symSize: 0x34 }
  - { offsetInCU: 0x7C35A, offset: 0x7C35A, size: 0x8, addend: 0x0, symName: __ZNSt3__122__compressed_pair_elemINS_9allocatorINS_11__tree_nodeINS_12basic_stringIcNS_11char_traitsIcEENS1_IcEEEEPvEEEELi1ELb1EEC2B8ue170006ENS_16__value_init_tagE, symObjAddr: 0x30908, symBinAddr: 0x1000353B4, symSize: 0x2C }
  - { offsetInCU: 0x7C38F, offset: 0x7C38F, size: 0x8, addend: 0x0, symName: __ZNSt3__19allocatorINS_11__tree_nodeINS_12basic_stringIcNS_11char_traitsIcEENS0_IcEEEEPvEEEC2B8ue170006Ev, symObjAddr: 0x30934, symBinAddr: 0x1000353E0, symSize: 0x2C }
  - { offsetInCU: 0x7C3B9, offset: 0x7C3B9, size: 0x8, addend: 0x0, symName: __ZNSt3__116__non_trivial_ifILb1ENS_9allocatorINS_11__tree_nodeINS_12basic_stringIcNS_11char_traitsIcEENS1_IcEEEEPvEEEEEC2B8ue170006Ev, symObjAddr: 0x30960, symBinAddr: 0x10003540C, symSize: 0x14 }
  - { offsetInCU: 0x7C3E3, offset: 0x7C3E3, size: 0x8, addend: 0x0, symName: __ZNSt3__117__compressed_pairImNS_4lessINS_12basic_stringIcNS_11char_traitsIcEENS_9allocatorIcEEEEEEEC2B8ue170006IiRKS8_EEOT_OT0_, symObjAddr: 0x30974, symBinAddr: 0x100035420, symSize: 0x44 }
  - { offsetInCU: 0x7C43B, offset: 0x7C43B, size: 0x8, addend: 0x0, symName: __ZNSt3__122__compressed_pair_elemINS_4lessINS_12basic_stringIcNS_11char_traitsIcEENS_9allocatorIcEEEEEELi1ELb1EEC2B8ue170006IRKS8_vEEOT_, symObjAddr: 0x309B8, symBinAddr: 0x100035464, symSize: 0x18 }
  - { offsetInCU: 0x7C47D, offset: 0x7C47D, size: 0x8, addend: 0x0, symName: __ZNSt3__117__compressed_pairINS_15__tree_end_nodeIPNS_16__tree_node_baseIPvEEEENS_9allocatorINS_11__tree_nodeINS_12basic_stringIcNS_11char_traitsIcEENS7_IcEEEES3_EEEEE5firstB8ue170006Ev, symObjAddr: 0x309D0, symBinAddr: 0x10003547C, symSize: 0x24 }
  - { offsetInCU: 0x7C4A3, offset: 0x7C4A3, size: 0x8, addend: 0x0, symName: __ZNSt3__16__treeINS_12basic_stringIcNS_11char_traitsIcEENS_9allocatorIcEEEENS_4lessIS6_EENS4_IS6_EEE15__insert_uniqueB8ue170006EOS6_, symObjAddr: 0x309F4, symBinAddr: 0x1000354A0, symSize: 0x50 }
  - { offsetInCU: 0x7C4D8, offset: 0x7C4D8, size: 0x8, addend: 0x0, symName: __ZNSt3__14pairINS_21__tree_const_iteratorINS_12basic_stringIcNS_11char_traitsIcEENS_9allocatorIcEEEEPNS_11__tree_nodeIS7_PvEElEEbEC1B8ue170006INS_15__tree_iteratorIS7_SB_lEEbLS9_0EEEONS0_IT_T0_EE, symObjAddr: 0x30A44, symBinAddr: 0x1000354F0, symSize: 0x34 }
  - { offsetInCU: 0x7C52F, offset: 0x7C52F, size: 0x8, addend: 0x0, symName: __ZNSt3__16__treeINS_12basic_stringIcNS_11char_traitsIcEENS_9allocatorIcEEEENS_4lessIS6_EENS4_IS6_EEE25__emplace_unique_key_argsIS6_JS6_EEENS_4pairINS_15__tree_iteratorIS6_PNS_11__tree_nodeIS6_PvEElEEbEERKT_DpOT0_, symObjAddr: 0x30A78, symBinAddr: 0x100035524, symSize: 0xF0 }
  - { offsetInCU: 0x7C5DB, offset: 0x7C5DB, size: 0x8, addend: 0x0, symName: __ZNSt3__122__tree_key_value_typesINS_12basic_stringIcNS_11char_traitsIcEENS_9allocatorIcEEEEE9__get_keyB8ue170006ERKS6_, symObjAddr: 0x30B68, symBinAddr: 0x100035614, symSize: 0x14 }
  - { offsetInCU: 0x7C5FF, offset: 0x7C5FF, size: 0x8, addend: 0x0, symName: __ZNSt3__16__treeINS_12basic_stringIcNS_11char_traitsIcEENS_9allocatorIcEEEENS_4lessIS6_EENS4_IS6_EEE12__find_equalIS6_EERPNS_16__tree_node_baseIPvEERPNS_15__tree_end_nodeISF_EERKT_, symObjAddr: 0x30B7C, symBinAddr: 0x100035628, symSize: 0x184 }
  - { offsetInCU: 0x7C66C, offset: 0x7C66C, size: 0x8, addend: 0x0, symName: __ZNSt3__16__treeINS_12basic_stringIcNS_11char_traitsIcEENS_9allocatorIcEEEENS_4lessIS6_EENS4_IS6_EEE16__construct_nodeIJS6_EEENS_10unique_ptrINS_11__tree_nodeIS6_PvEENS_22__tree_node_destructorINS4_ISF_EEEEEEDpOT_, symObjAddr: 0x30D00, symBinAddr: 0x1000357AC, symSize: 0x110 }
  - { offsetInCU: 0x7C6CD, offset: 0x7C6CD, size: 0x8, addend: 0x0, symName: __ZNSt3__16__treeINS_12basic_stringIcNS_11char_traitsIcEENS_9allocatorIcEEEENS_4lessIS6_EENS4_IS6_EEE16__insert_node_atEPNS_15__tree_end_nodeIPNS_16__tree_node_baseIPvEEEERSF_SF_, symObjAddr: 0x30E10, symBinAddr: 0x1000358BC, symSize: 0xCC }
  - { offsetInCU: 0x7C722, offset: 0x7C722, size: 0x8, addend: 0x0, symName: __ZNKSt3__110unique_ptrINS_11__tree_nodeINS_12basic_stringIcNS_11char_traitsIcEENS_9allocatorIcEEEEPvEENS_22__tree_node_destructorINS5_IS9_EEEEE3getB8ue170006Ev, symObjAddr: 0x30EDC, symBinAddr: 0x100035988, symSize: 0x28 }
  - { offsetInCU: 0x7C748, offset: 0x7C748, size: 0x8, addend: 0x0, symName: __ZNSt3__110unique_ptrINS_11__tree_nodeINS_12basic_stringIcNS_11char_traitsIcEENS_9allocatorIcEEEEPvEENS_22__tree_node_destructorINS5_IS9_EEEEE7releaseB8ue170006Ev, symObjAddr: 0x30F04, symBinAddr: 0x1000359B0, symSize: 0x44 }
  - { offsetInCU: 0x7C77D, offset: 0x7C77D, size: 0x8, addend: 0x0, symName: __ZNSt3__110unique_ptrINS_11__tree_nodeINS_12basic_stringIcNS_11char_traitsIcEENS_9allocatorIcEEEEPvEENS_22__tree_node_destructorINS5_IS9_EEEEED1B8ue170006Ev, symObjAddr: 0x30F48, symBinAddr: 0x1000359F4, symSize: 0x2C }
  - { offsetInCU: 0x7C7A7, offset: 0x7C7A7, size: 0x8, addend: 0x0, symName: __ZNSt3__115__tree_iteratorINS_12basic_stringIcNS_11char_traitsIcEENS_9allocatorIcEEEEPNS_11__tree_nodeIS6_PvEElEC1B8ue170006ESA_, symObjAddr: 0x30F74, symBinAddr: 0x100035A20, symSize: 0x34 }
  - { offsetInCU: 0x7C7E6, offset: 0x7C7E6, size: 0x8, addend: 0x0, symName: __ZNSt3__14pairINS_15__tree_iteratorINS_12basic_stringIcNS_11char_traitsIcEENS_9allocatorIcEEEEPNS_11__tree_nodeIS7_PvEElEEbEC1B8ue170006ISC_RbLS9_0EEEOT_OT0_, symObjAddr: 0x30FA8, symBinAddr: 0x100035A54, symSize: 0x3C }
  - { offsetInCU: 0x7C844, offset: 0x7C844, size: 0x8, addend: 0x0, symName: __ZNKSt3__16__treeINS_12basic_stringIcNS_11char_traitsIcEENS_9allocatorIcEEEENS_4lessIS6_EENS4_IS6_EEE6__rootB8ue170006Ev, symObjAddr: 0x30FE4, symBinAddr: 0x100035A90, symSize: 0x28 }
  - { offsetInCU: 0x7C86A, offset: 0x7C86A, size: 0x8, addend: 0x0, symName: __ZNKSt3__16__treeINS_12basic_stringIcNS_11char_traitsIcEENS_9allocatorIcEEEENS_4lessIS6_EENS4_IS6_EEE10__root_ptrB8ue170006Ev, symObjAddr: 0x3100C, symBinAddr: 0x100035AB8, symSize: 0x24 }
  - { offsetInCU: 0x7C890, offset: 0x7C890, size: 0x8, addend: 0x0, symName: __ZNSt3__16__treeINS_12basic_stringIcNS_11char_traitsIcEENS_9allocatorIcEEEENS_4lessIS6_EENS4_IS6_EEE10value_compB8ue170006Ev, symObjAddr: 0x31030, symBinAddr: 0x100035ADC, symSize: 0x28 }
  - { offsetInCU: 0x7C8B6, offset: 0x7C8B6, size: 0x8, addend: 0x0, symName: __ZNKSt3__14lessINS_12basic_stringIcNS_11char_traitsIcEENS_9allocatorIcEEEEEclB8ue170006ERKS6_S9_, symObjAddr: 0x31058, symBinAddr: 0x100035B04, symSize: 0x34 }
  - { offsetInCU: 0x7C8FA, offset: 0x7C8FA, size: 0x8, addend: 0x0, symName: __ZNKSt3__16__treeINS_12basic_stringIcNS_11char_traitsIcEENS_9allocatorIcEEEENS_4lessIS6_EENS4_IS6_EEE10__end_nodeB8ue170006Ev, symObjAddr: 0x3108C, symBinAddr: 0x100035B38, symSize: 0x2C }
  - { offsetInCU: 0x7C920, offset: 0x7C920, size: 0x8, addend: 0x0, symName: __ZNKSt3__117__compressed_pairINS_15__tree_end_nodeIPNS_16__tree_node_baseIPvEEEENS_9allocatorINS_11__tree_nodeINS_12basic_stringIcNS_11char_traitsIcEENS7_IcEEEES3_EEEEE5firstB8ue170006Ev, symObjAddr: 0x310B8, symBinAddr: 0x100035B64, symSize: 0x24 }
  - { offsetInCU: 0x7C946, offset: 0x7C946, size: 0x8, addend: 0x0, symName: __ZNSt3__117__compressed_pairImNS_4lessINS_12basic_stringIcNS_11char_traitsIcEENS_9allocatorIcEEEEEEE6secondB8ue170006Ev, symObjAddr: 0x310DC, symBinAddr: 0x100035B88, symSize: 0x24 }
  - { offsetInCU: 0x7C96C, offset: 0x7C96C, size: 0x8, addend: 0x0, symName: __ZNSt3__122__compressed_pair_elemINS_4lessINS_12basic_stringIcNS_11char_traitsIcEENS_9allocatorIcEEEEEELi1ELb1EE5__getB8ue170006Ev, symObjAddr: 0x31100, symBinAddr: 0x100035BAC, symSize: 0x14 }
  - { offsetInCU: 0x7C992, offset: 0x7C992, size: 0x8, addend: 0x0, symName: __ZNKSt3__112basic_stringIcNS_11char_traitsIcEENS_9allocatorIcEEE7compareB8ue170006ERKS5_, symObjAddr: 0x3114C, symBinAddr: 0x100035BF8, symSize: 0x4C }
  - { offsetInCU: 0x7C9C9, offset: 0x7C9C9, size: 0x8, addend: 0x0, symName: __ZNKSt3__112basic_stringIcNS_11char_traitsIcEENS_9allocatorIcEEE7compareINS_17basic_string_viewIcS2_EELi0EEEiRKT_, symObjAddr: 0x31198, symBinAddr: 0x100035C44, symSize: 0x12C }
